   1              	 .cpu cortex-m0
   2              	 .fpu softvfp
   3              	 .eabi_attribute 20,1
   4              	 .eabi_attribute 21,1
   5              	 .eabi_attribute 23,3
   6              	 .eabi_attribute 24,1
   7              	 .eabi_attribute 25,1
   8              	 .eabi_attribute 26,1
   9              	 .eabi_attribute 30,2
  10              	 .eabi_attribute 34,0
  11              	 .eabi_attribute 18,4
  12              	 .code 16
  13              	 .file "lib_math.c"
  14              	 .text
  15              	.Ltext0:
  16              	 .cfi_sections .debug_frame
  17              	 .section .text.Math_Init,"ax",%progbits
  18              	 .align 2
  19              	 .global Math_Init
  20              	 .code 16
  21              	 .thumb_func
  23              	Math_Init:
  24              	.LFB0:
  25              	 .file 1 "../Dave/Generated/UCPROBE/lib_math.c"
   1:../Dave/Generated/UCPROBE/lib_math.c **** /*
   2:../Dave/Generated/UCPROBE/lib_math.c **** ***************************************************************************************************
   3:../Dave/Generated/UCPROBE/lib_math.c **** *                                                uC/LIB
   4:../Dave/Generated/UCPROBE/lib_math.c **** *                                        CUSTOM LIBRARY MODULES
   5:../Dave/Generated/UCPROBE/lib_math.c **** *
   6:../Dave/Generated/UCPROBE/lib_math.c **** *                         (c) Copyright 2004-2014; Micrium, Inc.; Weston, FL
   7:../Dave/Generated/UCPROBE/lib_math.c **** *
   8:../Dave/Generated/UCPROBE/lib_math.c **** *                  All rights reserved.  Protected by international copyright laws.
   9:../Dave/Generated/UCPROBE/lib_math.c **** *
  10:../Dave/Generated/UCPROBE/lib_math.c **** *                  uC/LIB is provided in source form to registered licensees ONLY.  It is
  11:../Dave/Generated/UCPROBE/lib_math.c **** *                  illegal to distribute this source code to any third party unless you receive
  12:../Dave/Generated/UCPROBE/lib_math.c **** *                  written permission by an authorized Micrium representative.  Knowledge of
  13:../Dave/Generated/UCPROBE/lib_math.c **** *                  the source code may NOT be used to develop a similar product.
  14:../Dave/Generated/UCPROBE/lib_math.c **** *
  15:../Dave/Generated/UCPROBE/lib_math.c **** *                  Please help us continue to provide the Embedded community with the finest
  16:../Dave/Generated/UCPROBE/lib_math.c **** *                  software available.  Your honesty is greatly appreciated.
  17:../Dave/Generated/UCPROBE/lib_math.c **** *
  18:../Dave/Generated/UCPROBE/lib_math.c **** *                  You can find our product's user manual, API reference, release notes and
  19:../Dave/Generated/UCPROBE/lib_math.c **** *                  more information at: https://doc.micrium.com
  20:../Dave/Generated/UCPROBE/lib_math.c **** *
  21:../Dave/Generated/UCPROBE/lib_math.c **** *                  You can contact us at: http://www.micrium.com
  22:../Dave/Generated/UCPROBE/lib_math.c **** ***************************************************************************************************
  23:../Dave/Generated/UCPROBE/lib_math.c **** */
  24:../Dave/Generated/UCPROBE/lib_math.c **** 
  25:../Dave/Generated/UCPROBE/lib_math.c **** /*
  26:../Dave/Generated/UCPROBE/lib_math.c **** ***************************************************************************************************
  27:../Dave/Generated/UCPROBE/lib_math.c **** *
  28:../Dave/Generated/UCPROBE/lib_math.c **** *                                        MATHEMATIC OPERATIONS
  29:../Dave/Generated/UCPROBE/lib_math.c **** *
  30:../Dave/Generated/UCPROBE/lib_math.c **** * Filename      : lib_math.c
  31:../Dave/Generated/UCPROBE/lib_math.c **** * Version       : V1.38.01
  32:../Dave/Generated/UCPROBE/lib_math.c **** * Programmer(s) : SR
  33:../Dave/Generated/UCPROBE/lib_math.c **** *                 ITJ
  34:../Dave/Generated/UCPROBE/lib_math.c **** ***************************************************************************************************
  35:../Dave/Generated/UCPROBE/lib_math.c **** * Note(s)       : (1) NO compiler-supplied standard library functions are used in library or produc
  36:../Dave/Generated/UCPROBE/lib_math.c **** *
  37:../Dave/Generated/UCPROBE/lib_math.c **** *                     (a) ALL standard library functions are implemented in the custom library modu
  38:../Dave/Generated/UCPROBE/lib_math.c **** *
  39:../Dave/Generated/UCPROBE/lib_math.c **** *                         (1) \<Custom Library Directory>\lib_*.*
  40:../Dave/Generated/UCPROBE/lib_math.c **** *
  41:../Dave/Generated/UCPROBE/lib_math.c **** *                         (2) \<Custom Library Directory>\Ports\<cpu>\<compiler>\lib*_a.*
  42:../Dave/Generated/UCPROBE/lib_math.c **** *
  43:../Dave/Generated/UCPROBE/lib_math.c **** *                               where
  44:../Dave/Generated/UCPROBE/lib_math.c **** *                                       <Custom Library Directory>      directory path for custom l
  45:../Dave/Generated/UCPROBE/lib_math.c **** *                                       <cpu>                           directory name for specific
  46:../Dave/Generated/UCPROBE/lib_math.c **** *                                       <compiler>                      directory name for specific
  47:../Dave/Generated/UCPROBE/lib_math.c **** *
  48:../Dave/Generated/UCPROBE/lib_math.c **** *                     (b) Product-specific library functions are implemented in individual products
  49:../Dave/Generated/UCPROBE/lib_math.c **** *
  50:../Dave/Generated/UCPROBE/lib_math.c **** ***************************************************************************************************
  51:../Dave/Generated/UCPROBE/lib_math.c **** * Notice(s)     : (1) The Institute of Electrical and Electronics Engineers and The Open Group, hav
  52:../Dave/Generated/UCPROBE/lib_math.c **** *                     us permission to reprint portions of their documentation.  Portions of this t
  53:../Dave/Generated/UCPROBE/lib_math.c **** *                     reprinted and reproduced in electronic form from the IEEE Std 1003.1, 2004 Ed
  54:../Dave/Generated/UCPROBE/lib_math.c **** *                     Standard for Information Technology -- Portable Operating System Interface (P
  55:../Dave/Generated/UCPROBE/lib_math.c **** *                     The Open Group Base Specifications Issue 6, Copyright (C) 2001-2004 by the In
  56:../Dave/Generated/UCPROBE/lib_math.c **** *                     of Electrical and Electronics Engineers, Inc and The Open Group.  In the even
  57:../Dave/Generated/UCPROBE/lib_math.c **** *                     discrepancy between these versions and the original IEEE and The Open Group S
  58:../Dave/Generated/UCPROBE/lib_math.c **** *                     the original IEEE and The Open Group Standard is the referee document.  The o
  59:../Dave/Generated/UCPROBE/lib_math.c **** *                     Standard can be obtained online at http://www.opengroup.org/unix/online.html.
  60:../Dave/Generated/UCPROBE/lib_math.c **** ***************************************************************************************************
  61:../Dave/Generated/UCPROBE/lib_math.c **** */
  62:../Dave/Generated/UCPROBE/lib_math.c **** 
  63:../Dave/Generated/UCPROBE/lib_math.c **** 
  64:../Dave/Generated/UCPROBE/lib_math.c **** /*
  65:../Dave/Generated/UCPROBE/lib_math.c **** ***************************************************************************************************
  66:../Dave/Generated/UCPROBE/lib_math.c **** *                                            INCLUDE FILES
  67:../Dave/Generated/UCPROBE/lib_math.c **** ***************************************************************************************************
  68:../Dave/Generated/UCPROBE/lib_math.c **** */
  69:../Dave/Generated/UCPROBE/lib_math.c **** 
  70:../Dave/Generated/UCPROBE/lib_math.c **** #define    MICRIUM_SOURCE
  71:../Dave/Generated/UCPROBE/lib_math.c **** #define    LIB_MATH_MODULE
  72:../Dave/Generated/UCPROBE/lib_math.c **** #include  "lib_math.h"
  73:../Dave/Generated/UCPROBE/lib_math.c **** 
  74:../Dave/Generated/UCPROBE/lib_math.c **** 
  75:../Dave/Generated/UCPROBE/lib_math.c **** /*
  76:../Dave/Generated/UCPROBE/lib_math.c **** ***************************************************************************************************
  77:../Dave/Generated/UCPROBE/lib_math.c **** *                                            LOCAL DEFINES
  78:../Dave/Generated/UCPROBE/lib_math.c **** ***************************************************************************************************
  79:../Dave/Generated/UCPROBE/lib_math.c **** */
  80:../Dave/Generated/UCPROBE/lib_math.c **** 
  81:../Dave/Generated/UCPROBE/lib_math.c **** 
  82:../Dave/Generated/UCPROBE/lib_math.c **** /*
  83:../Dave/Generated/UCPROBE/lib_math.c **** ***************************************************************************************************
  84:../Dave/Generated/UCPROBE/lib_math.c **** *                                           LOCAL CONSTANTS
  85:../Dave/Generated/UCPROBE/lib_math.c **** ***************************************************************************************************
  86:../Dave/Generated/UCPROBE/lib_math.c **** */
  87:../Dave/Generated/UCPROBE/lib_math.c **** 
  88:../Dave/Generated/UCPROBE/lib_math.c **** 
  89:../Dave/Generated/UCPROBE/lib_math.c **** /*
  90:../Dave/Generated/UCPROBE/lib_math.c **** ***************************************************************************************************
  91:../Dave/Generated/UCPROBE/lib_math.c **** *                                          LOCAL DATA TYPES
  92:../Dave/Generated/UCPROBE/lib_math.c **** ***************************************************************************************************
  93:../Dave/Generated/UCPROBE/lib_math.c **** */
  94:../Dave/Generated/UCPROBE/lib_math.c **** 
  95:../Dave/Generated/UCPROBE/lib_math.c **** 
  96:../Dave/Generated/UCPROBE/lib_math.c **** /*
  97:../Dave/Generated/UCPROBE/lib_math.c **** ***************************************************************************************************
  98:../Dave/Generated/UCPROBE/lib_math.c **** *                                            LOCAL TABLES
  99:../Dave/Generated/UCPROBE/lib_math.c **** ***************************************************************************************************
 100:../Dave/Generated/UCPROBE/lib_math.c **** */
 101:../Dave/Generated/UCPROBE/lib_math.c **** 
 102:../Dave/Generated/UCPROBE/lib_math.c **** 
 103:../Dave/Generated/UCPROBE/lib_math.c **** /*
 104:../Dave/Generated/UCPROBE/lib_math.c **** ***************************************************************************************************
 105:../Dave/Generated/UCPROBE/lib_math.c **** *                                       LOCAL GLOBAL VARIABLES
 106:../Dave/Generated/UCPROBE/lib_math.c **** ***************************************************************************************************
 107:../Dave/Generated/UCPROBE/lib_math.c **** */
 108:../Dave/Generated/UCPROBE/lib_math.c **** 
 109:../Dave/Generated/UCPROBE/lib_math.c **** RAND_NBR  Math_RandSeedCur;                                     /* Cur rand nbr seed.              
 110:../Dave/Generated/UCPROBE/lib_math.c **** 
 111:../Dave/Generated/UCPROBE/lib_math.c **** 
 112:../Dave/Generated/UCPROBE/lib_math.c **** /*
 113:../Dave/Generated/UCPROBE/lib_math.c **** ***************************************************************************************************
 114:../Dave/Generated/UCPROBE/lib_math.c **** *                                      LOCAL FUNCTION PROTOTYPES
 115:../Dave/Generated/UCPROBE/lib_math.c **** ***************************************************************************************************
 116:../Dave/Generated/UCPROBE/lib_math.c **** */
 117:../Dave/Generated/UCPROBE/lib_math.c **** 
 118:../Dave/Generated/UCPROBE/lib_math.c **** 
 119:../Dave/Generated/UCPROBE/lib_math.c **** /*
 120:../Dave/Generated/UCPROBE/lib_math.c **** ***************************************************************************************************
 121:../Dave/Generated/UCPROBE/lib_math.c **** *                                     LOCAL CONFIGURATION ERRORS
 122:../Dave/Generated/UCPROBE/lib_math.c **** ***************************************************************************************************
 123:../Dave/Generated/UCPROBE/lib_math.c **** */
 124:../Dave/Generated/UCPROBE/lib_math.c **** 
 125:../Dave/Generated/UCPROBE/lib_math.c **** 
 126:../Dave/Generated/UCPROBE/lib_math.c **** /*
 127:../Dave/Generated/UCPROBE/lib_math.c **** ***************************************************************************************************
 128:../Dave/Generated/UCPROBE/lib_math.c **** *                                             Math_Init()
 129:../Dave/Generated/UCPROBE/lib_math.c **** *
 130:../Dave/Generated/UCPROBE/lib_math.c **** * Description : (1) Initialize Mathematic Module :
 131:../Dave/Generated/UCPROBE/lib_math.c **** *
 132:../Dave/Generated/UCPROBE/lib_math.c **** *                   (a) Initialize random number seed value
 133:../Dave/Generated/UCPROBE/lib_math.c **** *
 134:../Dave/Generated/UCPROBE/lib_math.c **** *
 135:../Dave/Generated/UCPROBE/lib_math.c **** * Argument(s) : none.
 136:../Dave/Generated/UCPROBE/lib_math.c **** *
 137:../Dave/Generated/UCPROBE/lib_math.c **** * Return(s)   : none.
 138:../Dave/Generated/UCPROBE/lib_math.c **** *
 139:../Dave/Generated/UCPROBE/lib_math.c **** * Caller(s)   : Application.
 140:../Dave/Generated/UCPROBE/lib_math.c **** *
 141:../Dave/Generated/UCPROBE/lib_math.c **** * Note(s)     : (2) IEEE Std 1003.1, 2004 Edition, Section 'rand() : DESCRIPTION' states that "if r
 142:../Dave/Generated/UCPROBE/lib_math.c **** *                   is called before any calls to srand() are made, the same sequence shall be gene
 143:../Dave/Generated/UCPROBE/lib_math.c **** *                   as when srand() is first called with a seed value of 1".
 144:../Dave/Generated/UCPROBE/lib_math.c **** ***************************************************************************************************
 145:../Dave/Generated/UCPROBE/lib_math.c **** */
 146:../Dave/Generated/UCPROBE/lib_math.c **** 
 147:../Dave/Generated/UCPROBE/lib_math.c **** void  Math_Init (void)
 148:../Dave/Generated/UCPROBE/lib_math.c **** {
  26              	 .loc 1 148 0
  27              	 .cfi_startproc
  28              	.LVL0:
  29 0000 08B5     	 push {r3,lr}
  30              	.LCFI0:
  31              	 .cfi_def_cfa_offset 8
  32              	 .cfi_offset 3,-8
  33              	 .cfi_offset 14,-4
  34              	.LBB6:
  35              	.LBB7:
 149:../Dave/Generated/UCPROBE/lib_math.c ****     Math_RandSetSeed((RAND_NBR)RAND_SEED_INIT_VAL);             /* See Note #2.                    
 150:../Dave/Generated/UCPROBE/lib_math.c **** }
 151:../Dave/Generated/UCPROBE/lib_math.c **** 
 152:../Dave/Generated/UCPROBE/lib_math.c **** 
 153:../Dave/Generated/UCPROBE/lib_math.c **** /*
 154:../Dave/Generated/UCPROBE/lib_math.c **** ***************************************************************************************************
 155:../Dave/Generated/UCPROBE/lib_math.c **** *                                         Math_RandSetSeed()
 156:../Dave/Generated/UCPROBE/lib_math.c **** *
 157:../Dave/Generated/UCPROBE/lib_math.c **** * Description : Set the current pseudo-random number generator seed.
 158:../Dave/Generated/UCPROBE/lib_math.c **** *
 159:../Dave/Generated/UCPROBE/lib_math.c **** * Argument(s) : seed        Initial (or current) value to set for the pseudo-random number sequence
 160:../Dave/Generated/UCPROBE/lib_math.c **** *
 161:../Dave/Generated/UCPROBE/lib_math.c **** * Return(s)   : none.
 162:../Dave/Generated/UCPROBE/lib_math.c **** *
 163:../Dave/Generated/UCPROBE/lib_math.c **** * Caller(s)   : Application.
 164:../Dave/Generated/UCPROBE/lib_math.c **** *
 165:../Dave/Generated/UCPROBE/lib_math.c **** * Note(s)     : (1) IEEE Std 1003.1, 2004 Edition, Section 'rand() : DESCRIPTION' states that "sran
 166:../Dave/Generated/UCPROBE/lib_math.c **** *                   ... uses the argument as a seed for a new sequence of pseudo-random numbers to 
 167:../Dave/Generated/UCPROBE/lib_math.c **** *                   returned by subsequent calls to rand()".
 168:../Dave/Generated/UCPROBE/lib_math.c **** *
 169:../Dave/Generated/UCPROBE/lib_math.c **** *               (2) 'Math_RandSeedCur' MUST always be accessed exclusively in critical sections.
 170:../Dave/Generated/UCPROBE/lib_math.c **** *
 171:../Dave/Generated/UCPROBE/lib_math.c **** *                   See also 'Math_Rand()  Note #1b'.
 172:../Dave/Generated/UCPROBE/lib_math.c **** ***************************************************************************************************
 173:../Dave/Generated/UCPROBE/lib_math.c **** */
 174:../Dave/Generated/UCPROBE/lib_math.c **** 
 175:../Dave/Generated/UCPROBE/lib_math.c **** void  Math_RandSetSeed (RAND_NBR  seed)
 176:../Dave/Generated/UCPROBE/lib_math.c **** {
 177:../Dave/Generated/UCPROBE/lib_math.c ****     CPU_SR_ALLOC();
 178:../Dave/Generated/UCPROBE/lib_math.c **** 
 179:../Dave/Generated/UCPROBE/lib_math.c **** 
 180:../Dave/Generated/UCPROBE/lib_math.c ****     CPU_CRITICAL_ENTER();
  36              	 .loc 1 180 0
  37 0002 FFF7FEFF 	 bl CPU_SR_Save
  38              	.LVL1:
 181:../Dave/Generated/UCPROBE/lib_math.c ****     Math_RandSeedCur = seed;
  39              	 .loc 1 181 0
  40 0006 0122     	 mov r2,#1
  41 0008 024B     	 ldr r3,.L2
  42              	.LBE7:
  43              	.LBE6:
 150:../Dave/Generated/UCPROBE/lib_math.c **** 
  44              	 .loc 1 150 0
  45              	 
  46              	.LBB9:
  47              	.LBB8:
  48              	 .loc 1 181 0
  49 000a 1A60     	 str r2,[r3]
 182:../Dave/Generated/UCPROBE/lib_math.c ****     CPU_CRITICAL_EXIT();
  50              	 .loc 1 182 0
  51 000c FFF7FEFF 	 bl CPU_SR_Restore
  52              	.LVL2:
  53              	.LBE8:
  54              	.LBE9:
 150:../Dave/Generated/UCPROBE/lib_math.c **** 
  55              	 .loc 1 150 0
  56 0010 08BD     	 pop {r3,pc}
  57              	.L3:
  58 0012 C046     	 .align 2
  59              	.L2:
  60 0014 00000000 	 .word Math_RandSeedCur
  61              	 .cfi_endproc
  62              	.LFE0:
  64              	 .section .text.Math_RandSetSeed,"ax",%progbits
  65              	 .align 2
  66              	 .global Math_RandSetSeed
  67              	 .code 16
  68              	 .thumb_func
  70              	Math_RandSetSeed:
  71              	.LFB1:
 176:../Dave/Generated/UCPROBE/lib_math.c ****     CPU_SR_ALLOC();
  72              	 .loc 1 176 0
  73              	 .cfi_startproc
  74              	.LVL3:
  75 0000 10B5     	 push {r4,lr}
  76              	.LCFI1:
  77              	 .cfi_def_cfa_offset 8
  78              	 .cfi_offset 4,-8
  79              	 .cfi_offset 14,-4
 176:../Dave/Generated/UCPROBE/lib_math.c ****     CPU_SR_ALLOC();
  80              	 .loc 1 176 0
  81 0002 041C     	 mov r4,r0
 180:../Dave/Generated/UCPROBE/lib_math.c ****     Math_RandSeedCur = seed;
  82              	 .loc 1 180 0
  83 0004 FFF7FEFF 	 bl CPU_SR_Save
  84              	.LVL4:
 181:../Dave/Generated/UCPROBE/lib_math.c ****     CPU_CRITICAL_EXIT();
  85              	 .loc 1 181 0
  86 0008 024B     	 ldr r3,.L5
 183:../Dave/Generated/UCPROBE/lib_math.c **** }
  87              	 .loc 1 183 0
  88              	 
 181:../Dave/Generated/UCPROBE/lib_math.c ****     CPU_CRITICAL_EXIT();
  89              	 .loc 1 181 0
  90 000a 1C60     	 str r4,[r3]
 182:../Dave/Generated/UCPROBE/lib_math.c **** }
  91              	 .loc 1 182 0
  92 000c FFF7FEFF 	 bl CPU_SR_Restore
  93              	.LVL5:
  94              	.LVL6:
  95              	 .loc 1 183 0
  96 0010 10BD     	 pop {r4,pc}
  97              	.L6:
  98 0012 C046     	 .align 2
  99              	.L5:
 100 0014 00000000 	 .word Math_RandSeedCur
 101              	 .cfi_endproc
 102              	.LFE1:
 104              	 .section .text.Math_Rand,"ax",%progbits
 105              	 .align 2
 106              	 .global Math_Rand
 107              	 .code 16
 108              	 .thumb_func
 110              	Math_Rand:
 111              	.LFB2:
 184:../Dave/Generated/UCPROBE/lib_math.c **** 
 185:../Dave/Generated/UCPROBE/lib_math.c **** 
 186:../Dave/Generated/UCPROBE/lib_math.c **** /*
 187:../Dave/Generated/UCPROBE/lib_math.c **** ***************************************************************************************************
 188:../Dave/Generated/UCPROBE/lib_math.c **** *                                             Math_Rand()
 189:../Dave/Generated/UCPROBE/lib_math.c **** *
 190:../Dave/Generated/UCPROBE/lib_math.c **** * Description : Calculate the next pseudo-random number.
 191:../Dave/Generated/UCPROBE/lib_math.c **** *
 192:../Dave/Generated/UCPROBE/lib_math.c **** * Argument(s) : none.
 193:../Dave/Generated/UCPROBE/lib_math.c **** *
 194:../Dave/Generated/UCPROBE/lib_math.c **** * Return(s)   : Next pseudo-random number in the sequence after 'Math_RandSeedCur'.
 195:../Dave/Generated/UCPROBE/lib_math.c **** *
 196:../Dave/Generated/UCPROBE/lib_math.c **** * Caller(s)   : Application.
 197:../Dave/Generated/UCPROBE/lib_math.c **** *
 198:../Dave/Generated/UCPROBE/lib_math.c **** * Note(s)     : (1) (a) The pseudo-random number generator is implemented as a Linear Congruential
 199:../Dave/Generated/UCPROBE/lib_math.c **** *                       Generator (LCG).
 200:../Dave/Generated/UCPROBE/lib_math.c **** *
 201:../Dave/Generated/UCPROBE/lib_math.c **** *                   (b) The pseudo-random number generated is in the range [0, RAND_LCG_PARAM_M].
 202:../Dave/Generated/UCPROBE/lib_math.c **** *
 203:../Dave/Generated/UCPROBE/lib_math.c **** *                   See also 'Math_RandSeed()  Note #1'.
 204:../Dave/Generated/UCPROBE/lib_math.c **** *
 205:../Dave/Generated/UCPROBE/lib_math.c **** *               (2) (a) IEEE Std 1003.1, 2004 Edition, Section 'rand() : DESCRIPTION' states that "
 206:../Dave/Generated/UCPROBE/lib_math.c **** *                       ... need not be reentrant ... [and] is not required to be thread-safe".
 207:../Dave/Generated/UCPROBE/lib_math.c **** *
 208:../Dave/Generated/UCPROBE/lib_math.c **** *                   (b) However, in order to implement Math_Rand() as re-entrant; 'Math_RandSeedCur
 209:../Dave/Generated/UCPROBE/lib_math.c **** *                       always be accessed & updated exclusively in critical sections.
 210:../Dave/Generated/UCPROBE/lib_math.c **** *
 211:../Dave/Generated/UCPROBE/lib_math.c **** *                   See also 'Math_RandSeed()  Note #2'.
 212:../Dave/Generated/UCPROBE/lib_math.c **** ***************************************************************************************************
 213:../Dave/Generated/UCPROBE/lib_math.c **** */
 214:../Dave/Generated/UCPROBE/lib_math.c **** 
 215:../Dave/Generated/UCPROBE/lib_math.c **** RAND_NBR  Math_Rand (void)
 216:../Dave/Generated/UCPROBE/lib_math.c **** {
 112              	 .loc 1 216 0
 113              	 .cfi_startproc
 114              	.LVL7:
 115 0000 10B5     	 push {r4,lr}
 116              	.LCFI2:
 117              	 .cfi_def_cfa_offset 8
 118              	 .cfi_offset 4,-8
 119              	 .cfi_offset 14,-4
 217:../Dave/Generated/UCPROBE/lib_math.c ****     RAND_NBR  seed;
 218:../Dave/Generated/UCPROBE/lib_math.c ****     RAND_NBR  rand_nbr;
 219:../Dave/Generated/UCPROBE/lib_math.c ****     CPU_SR_ALLOC();
 220:../Dave/Generated/UCPROBE/lib_math.c **** 
 221:../Dave/Generated/UCPROBE/lib_math.c **** 
 222:../Dave/Generated/UCPROBE/lib_math.c ****     CPU_CRITICAL_ENTER();
 120              	 .loc 1 222 0
 121 0002 FFF7FEFF 	 bl CPU_SR_Save
 122              	.LVL8:
 223:../Dave/Generated/UCPROBE/lib_math.c ****     seed             = Math_RandSeedCur;
 123              	 .loc 1 223 0
 124 0006 074B     	 ldr r3,.L8
 125              	.LBB10:
 126              	.LBB11:
 224:../Dave/Generated/UCPROBE/lib_math.c ****     rand_nbr         = Math_RandSeed(seed);
 225:../Dave/Generated/UCPROBE/lib_math.c ****     Math_RandSeedCur = rand_nbr;
 226:../Dave/Generated/UCPROBE/lib_math.c ****     CPU_CRITICAL_EXIT();
 227:../Dave/Generated/UCPROBE/lib_math.c **** 
 228:../Dave/Generated/UCPROBE/lib_math.c ****     return (rand_nbr);
 229:../Dave/Generated/UCPROBE/lib_math.c **** }
 230:../Dave/Generated/UCPROBE/lib_math.c **** 
 231:../Dave/Generated/UCPROBE/lib_math.c **** 
 232:../Dave/Generated/UCPROBE/lib_math.c **** /*
 233:../Dave/Generated/UCPROBE/lib_math.c **** ***************************************************************************************************
 234:../Dave/Generated/UCPROBE/lib_math.c **** *                                           Math_RandSeed()
 235:../Dave/Generated/UCPROBE/lib_math.c **** *
 236:../Dave/Generated/UCPROBE/lib_math.c **** * Description : Calculate the next pseudo-random number.
 237:../Dave/Generated/UCPROBE/lib_math.c **** *
 238:../Dave/Generated/UCPROBE/lib_math.c **** * Argument(s) : seed        Initial (or current) value for the pseudo-random number sequence.
 239:../Dave/Generated/UCPROBE/lib_math.c **** *
 240:../Dave/Generated/UCPROBE/lib_math.c **** * Return(s)   : Next pseudo-random number in the sequence after 'seed'.
 241:../Dave/Generated/UCPROBE/lib_math.c **** *
 242:../Dave/Generated/UCPROBE/lib_math.c **** * Caller(s)   : Math_Rand(),
 243:../Dave/Generated/UCPROBE/lib_math.c **** *               Application.
 244:../Dave/Generated/UCPROBE/lib_math.c **** *
 245:../Dave/Generated/UCPROBE/lib_math.c **** * Note(s)     : (1) (a) BSD/ANSI-C implements rand() as a Linear Congruential Generator (LCG) :
 246:../Dave/Generated/UCPROBE/lib_math.c **** *
 247:../Dave/Generated/UCPROBE/lib_math.c **** *                       (A) random_number       =  [(a * random_number ) + b]  modulo m
 248:../Dave/Generated/UCPROBE/lib_math.c **** *                                        n + 1                        n
 249:../Dave/Generated/UCPROBE/lib_math.c **** *
 250:../Dave/Generated/UCPROBE/lib_math.c **** *                               where
 251:../Dave/Generated/UCPROBE/lib_math.c **** *                                       (1) (a) random_number           Next     random number to g
 252:../Dave/Generated/UCPROBE/lib_math.c **** *                                                            n+1
 253:../Dave/Generated/UCPROBE/lib_math.c **** *                                           (b) random_number           Previous random number    g
 254:../Dave/Generated/UCPROBE/lib_math.c **** *                                                            n
 255:../Dave/Generated/UCPROBE/lib_math.c **** *
 256:../Dave/Generated/UCPROBE/lib_math.c **** *                                       (2) a = RAND_LCG_PARAM_A        LCG multiplier
 257:../Dave/Generated/UCPROBE/lib_math.c **** *                                       (3) b = RAND_LCG_PARAM_B        LCG incrementor
 258:../Dave/Generated/UCPROBE/lib_math.c **** *                                       (4) m = RAND_LCG_PARAM_M + 1    LCG modulus
 259:../Dave/Generated/UCPROBE/lib_math.c **** *
 260:../Dave/Generated/UCPROBE/lib_math.c **** *                   (b) The pseudo-random number generated is in the range [0, RAND_LCG_PARAM_M].
 261:../Dave/Generated/UCPROBE/lib_math.c **** *
 262:../Dave/Generated/UCPROBE/lib_math.c ****                     See also 'lib_math.h  RANDOM NUMBER DEFINES  Note #1b'.
 263:../Dave/Generated/UCPROBE/lib_math.c **** *
 264:../Dave/Generated/UCPROBE/lib_math.c **** *               (2) (a) IEEE Std 1003.1, 2004 Edition, Section 'rand() : DESCRIPTION' states that "
 265:../Dave/Generated/UCPROBE/lib_math.c **** *                       ... need not be reentrant ... [and] is not required to be thread-safe".
 266:../Dave/Generated/UCPROBE/lib_math.c **** *
 267:../Dave/Generated/UCPROBE/lib_math.c **** *                   (b) However, Math_RandSeed() is re-entrant since it calculates the next random 
 268:../Dave/Generated/UCPROBE/lib_math.c **** *                       using ONLY local variables.
 269:../Dave/Generated/UCPROBE/lib_math.c **** ***************************************************************************************************
 270:../Dave/Generated/UCPROBE/lib_math.c **** */
 271:../Dave/Generated/UCPROBE/lib_math.c **** 
 272:../Dave/Generated/UCPROBE/lib_math.c **** RAND_NBR  Math_RandSeed (RAND_NBR  seed)
 273:../Dave/Generated/UCPROBE/lib_math.c **** {
 274:../Dave/Generated/UCPROBE/lib_math.c ****     RAND_NBR  rand_nbr;
 275:../Dave/Generated/UCPROBE/lib_math.c **** 
 276:../Dave/Generated/UCPROBE/lib_math.c **** 
 277:../Dave/Generated/UCPROBE/lib_math.c ****     rand_nbr = (((RAND_NBR)RAND_LCG_PARAM_A * seed) + (RAND_NBR)RAND_LCG_PARAM_B)  %  ((RAND_NBR)RA
 127              	 .loc 1 277 0
 128 0008 074C     	 ldr r4,.L8+4
 129 000a 1A68     	 ldr r2,[r3]
 130              	.LBE11:
 131              	.LBE10:
 229:../Dave/Generated/UCPROBE/lib_math.c **** 
 132              	 .loc 1 229 0
 133              	 
 134              	.LBB13:
 135              	.LBB12:
 136              	 .loc 1 277 0
 137 000c 5443     	 mul r4,r2
 138 000e 074A     	 ldr r2,.L8+8
 139 0010 9446     	 mov ip,r2
 140 0012 6444     	 add r4,r4,ip
 141 0014 6400     	 lsl r4,r4,#1
 142 0016 6408     	 lsr r4,r4,#1
 143              	.LVL9:
 144              	.LBE12:
 145              	.LBE13:
 225:../Dave/Generated/UCPROBE/lib_math.c ****     CPU_CRITICAL_EXIT();
 146              	 .loc 1 225 0
 147 0018 1C60     	 str r4,[r3]
 148              	.LVL10:
 226:../Dave/Generated/UCPROBE/lib_math.c **** 
 149              	 .loc 1 226 0
 150 001a FFF7FEFF 	 bl CPU_SR_Restore
 151              	.LVL11:
 229:../Dave/Generated/UCPROBE/lib_math.c **** 
 152              	 .loc 1 229 0
 153 001e 201C     	 mov r0,r4
 154              	.LVL12:
 155 0020 10BD     	 pop {r4,pc}
 156              	.L9:
 157 0022 C046     	 .align 2
 158              	.L8:
 159 0024 00000000 	 .word Math_RandSeedCur
 160 0028 6D4EC641 	 .word 1103515245
 161 002c 39300000 	 .word 12345
 162              	 .cfi_endproc
 163              	.LFE2:
 165              	 .section .text.Math_RandSeed,"ax",%progbits
 166              	 .align 2
 167              	 .global Math_RandSeed
 168              	 .code 16
 169              	 .thumb_func
 171              	Math_RandSeed:
 172              	.LFB3:
 273:../Dave/Generated/UCPROBE/lib_math.c ****     RAND_NBR  rand_nbr;
 173              	 .loc 1 273 0
 174              	 .cfi_startproc
 175              	.LVL13:
 176              	 .loc 1 277 0
 177 0000 034B     	 ldr r3,.L11
 278:../Dave/Generated/UCPROBE/lib_math.c **** 
 279:../Dave/Generated/UCPROBE/lib_math.c ****     return (rand_nbr);
 280:../Dave/Generated/UCPROBE/lib_math.c **** }
 178              	 .loc 1 280 0
 179              	 
 277:../Dave/Generated/UCPROBE/lib_math.c **** 
 180              	 .loc 1 277 0
 181 0002 5843     	 mul r0,r3
 182              	.LVL14:
 183 0004 034B     	 ldr r3,.L11+4
 184 0006 9C46     	 mov ip,r3
 185 0008 6044     	 add r0,r0,ip
 186 000a 4000     	 lsl r0,r0,#1
 187 000c 4008     	 lsr r0,r0,#1
 188              	 .loc 1 280 0
 189 000e 7047     	 bx lr
 190              	.L12:
 191              	 .align 2
 192              	.L11:
 193 0010 6D4EC641 	 .word 1103515245
 194 0014 39300000 	 .word 12345
 195              	 .cfi_endproc
 196              	.LFE3:
 198              	 .comm Math_RandSeedCur,4,4
 199              	 .text
 200              	.Letext0:
 201              	 .file 2 "../Dave/Generated/UCPROBE/cpu.h"
 202              	 .file 3 "../Dave/Generated/UCPROBE/lib_math.h"