   1              	 .cpu cortex-m0
   2              	 .fpu softvfp
   3              	 .eabi_attribute 20,1
   4              	 .eabi_attribute 21,1
   5              	 .eabi_attribute 23,3
   6              	 .eabi_attribute 24,1
   7              	 .eabi_attribute 25,1
   8              	 .eabi_attribute 26,1
   9              	 .eabi_attribute 30,2
  10              	 .eabi_attribute 34,0
  11              	 .eabi_attribute 18,4
  12              	 .code 16
  13              	 .file "probe_scope.c"
  14              	 .text
  15              	.Ltext0:
  16              	 .cfi_sections .debug_frame
  17              	 .section .text.ProbeScope_SampleCh.part.0,"ax",%progbits
  18              	 .align 2
  19              	 .code 16
  20              	 .thumb_func
  22              	ProbeScope_SampleCh.part.0:
  23              	.LFB9:
  24              	 .file 1 "../Dave/Generated/UCPROBE/probe_scope.c"
   1:../Dave/Generated/UCPROBE/probe_scope.c **** /*
   2:../Dave/Generated/UCPROBE/probe_scope.c **** ***************************************************************************************************
   3:../Dave/Generated/UCPROBE/probe_scope.c **** *                                                     Oscilloscope
   4:../Dave/Generated/UCPROBE/probe_scope.c **** *
   5:../Dave/Generated/UCPROBE/probe_scope.c **** *                                    (c) Copyright 2016; Micrium, Inc.; Weston, FL
   6:../Dave/Generated/UCPROBE/probe_scope.c **** *                           All rights reserved.  Protected by international copyright laws.
   7:../Dave/Generated/UCPROBE/probe_scope.c **** *
   8:../Dave/Generated/UCPROBE/probe_scope.c **** *
   9:../Dave/Generated/UCPROBE/probe_scope.c **** * File    : PROBE_SCOPE.C
  10:../Dave/Generated/UCPROBE/probe_scope.c **** * By      : JJL
  11:../Dave/Generated/UCPROBE/probe_scope.c **** * Version : V1.00.00
  12:../Dave/Generated/UCPROBE/probe_scope.c **** ***************************************************************************************************
  13:../Dave/Generated/UCPROBE/probe_scope.c **** */
  14:../Dave/Generated/UCPROBE/probe_scope.c **** 
  15:../Dave/Generated/UCPROBE/probe_scope.c **** /*
  16:../Dave/Generated/UCPROBE/probe_scope.c **** ***************************************************************************************************
  17:../Dave/Generated/UCPROBE/probe_scope.c **** *                                             INCLUDE FILES
  18:../Dave/Generated/UCPROBE/probe_scope.c **** ***************************************************************************************************
  19:../Dave/Generated/UCPROBE/probe_scope.c **** */
  20:../Dave/Generated/UCPROBE/probe_scope.c **** 
  21:../Dave/Generated/UCPROBE/probe_scope.c **** #include  "probe_scope_cfg.h"
  22:../Dave/Generated/UCPROBE/probe_scope.c **** #include  "probe_scope.h"
  23:../Dave/Generated/UCPROBE/probe_scope.c **** 
  24:../Dave/Generated/UCPROBE/probe_scope.c **** /*
  25:../Dave/Generated/UCPROBE/probe_scope.c **** ***************************************************************************************************
  26:../Dave/Generated/UCPROBE/probe_scope.c **** *                                             CONSTANTS
  27:../Dave/Generated/UCPROBE/probe_scope.c **** ***************************************************************************************************
  28:../Dave/Generated/UCPROBE/probe_scope.c **** */
  29:../Dave/Generated/UCPROBE/probe_scope.c **** 
  30:../Dave/Generated/UCPROBE/probe_scope.c **** 
  31:../Dave/Generated/UCPROBE/probe_scope.c **** #define  PROBE_SCOPE_TRIG_NEG                  0                           // Trigger on Negative g
  32:../Dave/Generated/UCPROBE/probe_scope.c **** #define  PROBE_SCOPE_TRIG_POS                  1                           // Trigger on Positive g
  33:../Dave/Generated/UCPROBE/probe_scope.c **** 
  34:../Dave/Generated/UCPROBE/probe_scope.c **** 
  35:../Dave/Generated/UCPROBE/probe_scope.c **** #define  PROBE_SCOPE_STATE_START               0
  36:../Dave/Generated/UCPROBE/probe_scope.c **** #define  PROBE_SCOPE_STATE_SAMPLING_PRE_TRIG   1
  37:../Dave/Generated/UCPROBE/probe_scope.c **** #define  PROBE_SCOPE_STATE_SAMPLING_POST_TRIG  2
  38:../Dave/Generated/UCPROBE/probe_scope.c **** #define  PROBE_SCOPE_STATE_DATA_RDY            3
  39:../Dave/Generated/UCPROBE/probe_scope.c **** 
  40:../Dave/Generated/UCPROBE/probe_scope.c **** 
  41:../Dave/Generated/UCPROBE/probe_scope.c **** #define  PROBE_SCOPE_MODE_OFF                  0
  42:../Dave/Generated/UCPROBE/probe_scope.c **** #define  PROBE_SCOPE_MODE_SINGLE               1
  43:../Dave/Generated/UCPROBE/probe_scope.c **** #define  PROBE_SCOPE_MODE_CONTINUOUS           2
  44:../Dave/Generated/UCPROBE/probe_scope.c **** #define  PROBE_SCOPE_MODE_TRIG                 3
  45:../Dave/Generated/UCPROBE/probe_scope.c **** 
  46:../Dave/Generated/UCPROBE/probe_scope.c **** 
  47:../Dave/Generated/UCPROBE/probe_scope.c **** #define  PROBE_SCOPE_INT08U                    0                           // Supported data types
  48:../Dave/Generated/UCPROBE/probe_scope.c **** #define  PROBE_SCOPE_INT08S                    1
  49:../Dave/Generated/UCPROBE/probe_scope.c **** #define  PROBE_SCOPE_INT16U                    2
  50:../Dave/Generated/UCPROBE/probe_scope.c **** #define  PROBE_SCOPE_INT16S                    3
  51:../Dave/Generated/UCPROBE/probe_scope.c **** #define  PROBE_SCOPE_INT32U                    4
  52:../Dave/Generated/UCPROBE/probe_scope.c **** #define  PROBE_SCOPE_INT32S                    5
  53:../Dave/Generated/UCPROBE/probe_scope.c **** #define  PROBE_SCOPE_FP32                      6
  54:../Dave/Generated/UCPROBE/probe_scope.c **** 
  55:../Dave/Generated/UCPROBE/probe_scope.c **** 
  56:../Dave/Generated/UCPROBE/probe_scope.c **** #define  PROBE_SCOPE_CH1                       1
  57:../Dave/Generated/UCPROBE/probe_scope.c **** #define  PROBE_SCOPE_CH2                       2
  58:../Dave/Generated/UCPROBE/probe_scope.c **** #define  PROBE_SCOPE_CH3                       3
  59:../Dave/Generated/UCPROBE/probe_scope.c **** #define  PROBE_SCOPE_CH4                       4
  60:../Dave/Generated/UCPROBE/probe_scope.c **** #define  PROBE_SCOPE_CH5                       5
  61:../Dave/Generated/UCPROBE/probe_scope.c **** #define  PROBE_SCOPE_CH6                       6
  62:../Dave/Generated/UCPROBE/probe_scope.c **** #define  PROBE_SCOPE_CH7                       7
  63:../Dave/Generated/UCPROBE/probe_scope.c **** #define  PROBE_SCOPE_CH8                       8
  64:../Dave/Generated/UCPROBE/probe_scope.c **** 
  65:../Dave/Generated/UCPROBE/probe_scope.c **** /*
  66:../Dave/Generated/UCPROBE/probe_scope.c **** ***************************************************************************************************
  67:../Dave/Generated/UCPROBE/probe_scope.c **** *                                             DATA TYPES
  68:../Dave/Generated/UCPROBE/probe_scope.c **** ***************************************************************************************************
  69:../Dave/Generated/UCPROBE/probe_scope.c **** */
  70:../Dave/Generated/UCPROBE/probe_scope.c **** 
  71:../Dave/Generated/UCPROBE/probe_scope.c **** typedef  uint32_t                  CPU_BOOLEAN;                               //  8-bit boolean or 
  72:../Dave/Generated/UCPROBE/probe_scope.c **** typedef  uint8_t                   CPU_INT08U;                                //  8-bit unsigned in
  73:../Dave/Generated/UCPROBE/probe_scope.c **** typedef  int8_t                    CPU_INT08S;                                //  8-bit   signed in
  74:../Dave/Generated/UCPROBE/probe_scope.c **** typedef  uint16_t                  CPU_INT16U;                                // 16-bit unsigned in
  75:../Dave/Generated/UCPROBE/probe_scope.c **** typedef  int16_t                   CPU_INT16S;                                // 16-bit   signed in
  76:../Dave/Generated/UCPROBE/probe_scope.c **** typedef  uint32_t                  CPU_INT32U;                                // 32-bit unsigned in
  77:../Dave/Generated/UCPROBE/probe_scope.c **** typedef  int32_t                   CPU_INT32S;                                // 32-bit   signed in
  78:../Dave/Generated/UCPROBE/probe_scope.c **** typedef  uint64_t                  CPU_INT64U;                                // 64-bit unsigned in
  79:../Dave/Generated/UCPROBE/probe_scope.c **** typedef  int64_t                   CPU_INT64S;                                // 64-bit   signed in
  80:../Dave/Generated/UCPROBE/probe_scope.c **** 
  81:../Dave/Generated/UCPROBE/probe_scope.c **** typedef  float                     CPU_FP32;                                  // 32-bit floating po
  82:../Dave/Generated/UCPROBE/probe_scope.c **** typedef  double                    CPU_FP64;                                  // 64-bit floating po
  83:../Dave/Generated/UCPROBE/probe_scope.c **** 
  84:../Dave/Generated/UCPROBE/probe_scope.c **** 
  85:../Dave/Generated/UCPROBE/probe_scope.c **** typedef  struct  scope_ch          PROBE_SCOPE_CH;
  86:../Dave/Generated/UCPROBE/probe_scope.c **** typedef  union   scope_ch_sample   PROBE_SCOPE_CH_SAMPLE;
  87:../Dave/Generated/UCPROBE/probe_scope.c **** 
  88:../Dave/Generated/UCPROBE/probe_scope.c **** 
  89:../Dave/Generated/UCPROBE/probe_scope.c **** union  scope_ch_sample {                                                      // A sample can be an
  90:../Dave/Generated/UCPROBE/probe_scope.c ****     CPU_INT08U    Val08U;
  91:../Dave/Generated/UCPROBE/probe_scope.c ****     CPU_INT08S    Val08S;
  92:../Dave/Generated/UCPROBE/probe_scope.c **** #if PROBE_SCOPE_16_BIT_EN > 0                                                 // ... 16-bits only i
  93:../Dave/Generated/UCPROBE/probe_scope.c ****     CPU_INT16U    Val16U;
  94:../Dave/Generated/UCPROBE/probe_scope.c ****     CPU_INT16S    Val16S;
  95:../Dave/Generated/UCPROBE/probe_scope.c **** #endif
  96:../Dave/Generated/UCPROBE/probe_scope.c **** #if PROBE_SCOPE_32_BIT_EN > 0                                                 // ... 32-bits only i
  97:../Dave/Generated/UCPROBE/probe_scope.c ****     CPU_INT32U    Val32U;
  98:../Dave/Generated/UCPROBE/probe_scope.c ****     CPU_INT32S    Val32S;
  99:../Dave/Generated/UCPROBE/probe_scope.c ****     CPU_FP32      ValFP32;
 100:../Dave/Generated/UCPROBE/probe_scope.c **** #endif
 101:../Dave/Generated/UCPROBE/probe_scope.c **** };
 102:../Dave/Generated/UCPROBE/probe_scope.c ****     
 103:../Dave/Generated/UCPROBE/probe_scope.c **** 
 104:../Dave/Generated/UCPROBE/probe_scope.c **** struct  scope_ch {
 105:../Dave/Generated/UCPROBE/probe_scope.c ****     CPU_BOOLEAN            En;                                                // Channel enabled (1
 106:../Dave/Generated/UCPROBE/probe_scope.c ****     CPU_INT08U             DataType;                                          // Source data type: 
 107:../Dave/Generated/UCPROBE/probe_scope.c ****                                                                               //    0 = CPU_INT08U
 108:../Dave/Generated/UCPROBE/probe_scope.c ****                                                                               //    1 = CPU_INT08S
 109:../Dave/Generated/UCPROBE/probe_scope.c ****                                                                               //    2 = CPU_INT16U 
 110:../Dave/Generated/UCPROBE/probe_scope.c ****                                                                               //    3 = CPU_INT16S 
 111:../Dave/Generated/UCPROBE/probe_scope.c ****                                                                               //    4 = CPU_INT32U 
 112:../Dave/Generated/UCPROBE/probe_scope.c ****                                                                               //    5 = CPU_INT32S 
 113:../Dave/Generated/UCPROBE/probe_scope.c ****                                                                               //    6 = CPU_FP32   
 114:../Dave/Generated/UCPROBE/probe_scope.c ****     CPU_BOOLEAN             BitEn;                                            // Bit mode enabled (
 115:../Dave/Generated/UCPROBE/probe_scope.c ****     CPU_INT08U              BitSel;                                           // Selected bit in bi
 116:../Dave/Generated/UCPROBE/probe_scope.c ****     CPU_INT08U             *DataAddr;                                         // Address of source 
 117:../Dave/Generated/UCPROBE/probe_scope.c ****     PROBE_SCOPE_CH_SAMPLE   TrigLevel;                                        // Trigger level of t
 118:../Dave/Generated/UCPROBE/probe_scope.c ****     PROBE_SCOPE_CH_SAMPLE   Samples[PROBE_SCOPE_MAX_SAMPLES];                 // Storage for sample
 119:../Dave/Generated/UCPROBE/probe_scope.c **** };
 120:../Dave/Generated/UCPROBE/probe_scope.c **** 
 121:../Dave/Generated/UCPROBE/probe_scope.c **** /*
 122:../Dave/Generated/UCPROBE/probe_scope.c **** ***************************************************************************************************
 123:../Dave/Generated/UCPROBE/probe_scope.c **** *                                             LOCAL VARIABLES
 124:../Dave/Generated/UCPROBE/probe_scope.c **** ***************************************************************************************************
 125:../Dave/Generated/UCPROBE/probe_scope.c **** */
 126:../Dave/Generated/UCPROBE/probe_scope.c **** 
 127:../Dave/Generated/UCPROBE/probe_scope.c **** static    PROBE_SCOPE_CH       ProbeScope_Ch1;                                // Up to 8 scope chan
 128:../Dave/Generated/UCPROBE/probe_scope.c **** 
 129:../Dave/Generated/UCPROBE/probe_scope.c **** #if PROBE_SCOPE_MAX_CH >= 2
 130:../Dave/Generated/UCPROBE/probe_scope.c **** static    PROBE_SCOPE_CH       ProbeScope_Ch2;
 131:../Dave/Generated/UCPROBE/probe_scope.c **** #endif
 132:../Dave/Generated/UCPROBE/probe_scope.c **** 
 133:../Dave/Generated/UCPROBE/probe_scope.c **** #if PROBE_SCOPE_MAX_CH >= 3
 134:../Dave/Generated/UCPROBE/probe_scope.c **** static    PROBE_SCOPE_CH       ProbeScope_Ch3;
 135:../Dave/Generated/UCPROBE/probe_scope.c **** #endif
 136:../Dave/Generated/UCPROBE/probe_scope.c **** 
 137:../Dave/Generated/UCPROBE/probe_scope.c **** #if PROBE_SCOPE_MAX_CH >= 4
 138:../Dave/Generated/UCPROBE/probe_scope.c **** static    PROBE_SCOPE_CH       ProbeScope_Ch4;
 139:../Dave/Generated/UCPROBE/probe_scope.c **** #endif
 140:../Dave/Generated/UCPROBE/probe_scope.c **** 
 141:../Dave/Generated/UCPROBE/probe_scope.c **** #if PROBE_SCOPE_MAX_CH >= 5
 142:../Dave/Generated/UCPROBE/probe_scope.c **** static    PROBE_SCOPE_CH       ProbeScope_Ch5;
 143:../Dave/Generated/UCPROBE/probe_scope.c **** #endif
 144:../Dave/Generated/UCPROBE/probe_scope.c **** 
 145:../Dave/Generated/UCPROBE/probe_scope.c **** #if PROBE_SCOPE_MAX_CH >= 6
 146:../Dave/Generated/UCPROBE/probe_scope.c **** static    PROBE_SCOPE_CH       ProbeScope_Ch6;
 147:../Dave/Generated/UCPROBE/probe_scope.c **** #endif
 148:../Dave/Generated/UCPROBE/probe_scope.c **** 
 149:../Dave/Generated/UCPROBE/probe_scope.c **** #if PROBE_SCOPE_MAX_CH >= 7
 150:../Dave/Generated/UCPROBE/probe_scope.c **** static    PROBE_SCOPE_CH       ProbeScope_Ch7;
 151:../Dave/Generated/UCPROBE/probe_scope.c **** #endif
 152:../Dave/Generated/UCPROBE/probe_scope.c **** 
 153:../Dave/Generated/UCPROBE/probe_scope.c **** #if PROBE_SCOPE_MAX_CH >= 8
 154:../Dave/Generated/UCPROBE/probe_scope.c **** static    PROBE_SCOPE_CH       ProbeScope_Ch8;
 155:../Dave/Generated/UCPROBE/probe_scope.c **** #endif
 156:../Dave/Generated/UCPROBE/probe_scope.c **** 
 157:../Dave/Generated/UCPROBE/probe_scope.c **** volatile  CPU_INT32U           ProbeScope_DataRdyFlag;                        // Data is ready to b
 158:../Dave/Generated/UCPROBE/probe_scope.c **** 
 159:../Dave/Generated/UCPROBE/probe_scope.c **** volatile  CPU_BOOLEAN          ProbeScope_InitFlag;                           // Flag indicating MC
 160:../Dave/Generated/UCPROBE/probe_scope.c **** 
 161:../Dave/Generated/UCPROBE/probe_scope.c **** static    CPU_INT08U           ProbeScope_Mode;                               // Scope Mode:
 162:../Dave/Generated/UCPROBE/probe_scope.c ****                                                                               //     0 = Stop
 163:../Dave/Generated/UCPROBE/probe_scope.c ****                                                                               //     1 = Single
 164:../Dave/Generated/UCPROBE/probe_scope.c ****                                                                               //     2 = Continuous
 165:../Dave/Generated/UCPROBE/probe_scope.c ****                                                                               //     3 = Triggered 
 166:../Dave/Generated/UCPROBE/probe_scope.c ****                                                                             
 167:../Dave/Generated/UCPROBE/probe_scope.c **** static    CPU_INT08U           ProbeScope_TrigChSel;                          // Channel that will 
 168:../Dave/Generated/UCPROBE/probe_scope.c ****                                                                               //     1 = Channel #1
 169:../Dave/Generated/UCPROBE/probe_scope.c ****                                                                               //     2 = Channel #2
 170:../Dave/Generated/UCPROBE/probe_scope.c ****                                                                               //     3 = Channel #3
 171:../Dave/Generated/UCPROBE/probe_scope.c ****                                                                               //     4 = Channel #4
 172:../Dave/Generated/UCPROBE/probe_scope.c ****                                                                               //     5 = Channel #5
 173:../Dave/Generated/UCPROBE/probe_scope.c ****                                                                               //     6 = Channel #6
 174:../Dave/Generated/UCPROBE/probe_scope.c ****                                                                               //     7 = Channel #7
 175:../Dave/Generated/UCPROBE/probe_scope.c ****                                                                               //     8 = Channel #8
 176:../Dave/Generated/UCPROBE/probe_scope.c ****                                                                             
 177:../Dave/Generated/UCPROBE/probe_scope.c **** 
 178:../Dave/Generated/UCPROBE/probe_scope.c **** volatile  CPU_INT32U           ProbeScope_TrigDispPos;                        // Position of the tr
 179:../Dave/Generated/UCPROBE/probe_scope.c ****                                                                               //     0             
 180:../Dave/Generated/UCPROBE/probe_scope.c ****                                                                               //     PROBE_SCOPE_MA
 181:../Dave/Generated/UCPROBE/probe_scope.c **** volatile  CPU_BOOLEAN          ProbeScope_TrigFlag;                           // Flag indicating th
 182:../Dave/Generated/UCPROBE/probe_scope.c **** volatile  CPU_INT32U           ProbeScope_TrigHoldOff;                        // Determines how man
 183:../Dave/Generated/UCPROBE/probe_scope.c **** static    CPU_INT32U           ProbeScope_TrigHoldOffCtr;
 184:../Dave/Generated/UCPROBE/probe_scope.c **** volatile  CPU_INT32U           ProbeScope_TrigIx;                             // Position in the sa
 185:../Dave/Generated/UCPROBE/probe_scope.c **** static    CPU_BOOLEAN          ProbeScope_TrigSlope;                          // Trigger Slope
 186:../Dave/Generated/UCPROBE/probe_scope.c ****                                                                               //     0 = Low  going
 187:../Dave/Generated/UCPROBE/probe_scope.c ****                                                                               //     1 = High going
 188:../Dave/Generated/UCPROBE/probe_scope.c **** 
 189:../Dave/Generated/UCPROBE/probe_scope.c **** static    CPU_INT32U           ProbeScope_SampleIxPrev;
 190:../Dave/Generated/UCPROBE/probe_scope.c **** static    CPU_INT32U           ProbeScope_SampleIxCur;
 191:../Dave/Generated/UCPROBE/probe_scope.c **** static    CPU_INT32U           ProbeScope_SamplesPreTrigCtr;                  // Minimum number of 
 192:../Dave/Generated/UCPROBE/probe_scope.c **** static    CPU_INT32U           ProbeScope_SamplesPostTrigCtr;                 // Determines how man
 193:../Dave/Generated/UCPROBE/probe_scope.c ****                                                                               //     In 100% post-t
 194:../Dave/Generated/UCPROBE/probe_scope.c ****                                                                               //     In 100% pre-tr
 195:../Dave/Generated/UCPROBE/probe_scope.c **** 
 196:../Dave/Generated/UCPROBE/probe_scope.c **** static    CPU_INT16U           ProbeScope_SamplingClkDiv;                     // Clk source divider
 197:../Dave/Generated/UCPROBE/probe_scope.c **** static    CPU_INT16U           ProbeScope_SamplingClkDivCtr; 
 198:../Dave/Generated/UCPROBE/probe_scope.c **** volatile  CPU_INT32U           ProbeScope_SamplingClkHz;                      // Sampling Clock Fre
 199:../Dave/Generated/UCPROBE/probe_scope.c **** 
 200:../Dave/Generated/UCPROBE/probe_scope.c **** static    CPU_INT08U           ProbeScope_State;                              // Scope State
 201:../Dave/Generated/UCPROBE/probe_scope.c **** 
 202:../Dave/Generated/UCPROBE/probe_scope.c **** /*
 203:../Dave/Generated/UCPROBE/probe_scope.c **** ***************************************************************************************************
 204:../Dave/Generated/UCPROBE/probe_scope.c **** *                                             CONSTANTS
 205:../Dave/Generated/UCPROBE/probe_scope.c **** ***************************************************************************************************
 206:../Dave/Generated/UCPROBE/probe_scope.c **** */
 207:../Dave/Generated/UCPROBE/probe_scope.c **** 
 208:../Dave/Generated/UCPROBE/probe_scope.c **** static  volatile  CPU_INT16U   ProbeScopeDbg_MaxSamples     = PROBE_SCOPE_MAX_SAMPLES;
 209:../Dave/Generated/UCPROBE/probe_scope.c **** static  volatile  CPU_INT08U   ProbeScopeDbg_MaxCh          = PROBE_SCOPE_MAX_CH;
 210:../Dave/Generated/UCPROBE/probe_scope.c **** static  volatile  CPU_BOOLEAN  ProbeScopeDbg_16BitEn        = PROBE_SCOPE_16_BIT_EN;
 211:../Dave/Generated/UCPROBE/probe_scope.c **** static  volatile  CPU_BOOLEAN  ProbeScopeDbg_32BitEn        = PROBE_SCOPE_32_BIT_EN;
 212:../Dave/Generated/UCPROBE/probe_scope.c **** 
 213:../Dave/Generated/UCPROBE/probe_scope.c **** /*
 214:../Dave/Generated/UCPROBE/probe_scope.c **** ***************************************************************************************************
 215:../Dave/Generated/UCPROBE/probe_scope.c **** *                                             PROTOTYPES
 216:../Dave/Generated/UCPROBE/probe_scope.c **** ***************************************************************************************************
 217:../Dave/Generated/UCPROBE/probe_scope.c **** */
 218:../Dave/Generated/UCPROBE/probe_scope.c **** 
 219:../Dave/Generated/UCPROBE/probe_scope.c **** static  void       ProbeScope_IsTrig          (void);
 220:../Dave/Generated/UCPROBE/probe_scope.c ****         
 221:../Dave/Generated/UCPROBE/probe_scope.c **** static  void       ProbeScope_ModeOff         (void);
 222:../Dave/Generated/UCPROBE/probe_scope.c **** static  void       ProbeScope_ModeContinuous  (void);
 223:../Dave/Generated/UCPROBE/probe_scope.c **** static  void       ProbeScope_ModeTrig        (void);
 224:../Dave/Generated/UCPROBE/probe_scope.c ****         
 225:../Dave/Generated/UCPROBE/probe_scope.c **** static  void       ProbeScope_SampleChAll     (void);
 226:../Dave/Generated/UCPROBE/probe_scope.c **** static  void       ProbeScope_SampleCh        (PROBE_SCOPE_CH  *p_ch);
 227:../Dave/Generated/UCPROBE/probe_scope.c **** static  void       ProbeScope_SamplePosNext   (void);
 228:../Dave/Generated/UCPROBE/probe_scope.c **** 
 229:../Dave/Generated/UCPROBE/probe_scope.c **** /*
 230:../Dave/Generated/UCPROBE/probe_scope.c **** ***************************************************************************************************
 231:../Dave/Generated/UCPROBE/probe_scope.c **** *                                                    INITIALIZATION
 232:../Dave/Generated/UCPROBE/probe_scope.c **** *
 233:../Dave/Generated/UCPROBE/probe_scope.c **** * Description: This function is used to initialize the internals of the Oscilloscope module
 234:../Dave/Generated/UCPROBE/probe_scope.c **** *
 235:../Dave/Generated/UCPROBE/probe_scope.c **** * Arguments  : sampling_clk_hz    The frequency of the sampling clock (Hz)
 236:../Dave/Generated/UCPROBE/probe_scope.c **** *
 237:../Dave/Generated/UCPROBE/probe_scope.c **** * Returns    : none
 238:../Dave/Generated/UCPROBE/probe_scope.c **** ***************************************************************************************************
 239:../Dave/Generated/UCPROBE/probe_scope.c **** */
 240:../Dave/Generated/UCPROBE/probe_scope.c **** 
 241:../Dave/Generated/UCPROBE/probe_scope.c **** void  ProbeScope_Init (uint32_t  sampling_clk_hz)
 242:../Dave/Generated/UCPROBE/probe_scope.c **** {
 243:../Dave/Generated/UCPROBE/probe_scope.c ****     static  CPU_INT32U  temp = 0;
 244:../Dave/Generated/UCPROBE/probe_scope.c **** 
 245:../Dave/Generated/UCPROBE/probe_scope.c **** 
 246:../Dave/Generated/UCPROBE/probe_scope.c ****     ProbeScope_Ch1.En             = 0;
 247:../Dave/Generated/UCPROBE/probe_scope.c **** #if PROBE_SCOPE_MAX_CH >= 2       
 248:../Dave/Generated/UCPROBE/probe_scope.c ****     ProbeScope_Ch2.En             = 0;
 249:../Dave/Generated/UCPROBE/probe_scope.c **** #endif                            
 250:../Dave/Generated/UCPROBE/probe_scope.c **** #if PROBE_SCOPE_MAX_CH >= 3       
 251:../Dave/Generated/UCPROBE/probe_scope.c ****     ProbeScope_Ch3.En             = 0;
 252:../Dave/Generated/UCPROBE/probe_scope.c **** #endif                            
 253:../Dave/Generated/UCPROBE/probe_scope.c **** #if PROBE_SCOPE_MAX_CH >= 4       
 254:../Dave/Generated/UCPROBE/probe_scope.c ****     ProbeScope_Ch4.En             = 0;
 255:../Dave/Generated/UCPROBE/probe_scope.c **** #endif                            
 256:../Dave/Generated/UCPROBE/probe_scope.c **** #if PROBE_SCOPE_MAX_CH >= 5       
 257:../Dave/Generated/UCPROBE/probe_scope.c ****     ProbeScope_Ch5.En             = 0;
 258:../Dave/Generated/UCPROBE/probe_scope.c **** #endif                            
 259:../Dave/Generated/UCPROBE/probe_scope.c **** #if PROBE_SCOPE_MAX_CH >= 6       
 260:../Dave/Generated/UCPROBE/probe_scope.c ****     ProbeScope_Ch6.En             = 0;
 261:../Dave/Generated/UCPROBE/probe_scope.c **** #endif                            
 262:../Dave/Generated/UCPROBE/probe_scope.c **** #if PROBE_SCOPE_MAX_CH >= 7       
 263:../Dave/Generated/UCPROBE/probe_scope.c ****     ProbeScope_Ch7.En             = 0;
 264:../Dave/Generated/UCPROBE/probe_scope.c **** #endif                            
 265:../Dave/Generated/UCPROBE/probe_scope.c **** #if PROBE_SCOPE_MAX_CH >= 8       
 266:../Dave/Generated/UCPROBE/probe_scope.c ****     ProbeScope_Ch8.En             = 0;
 267:../Dave/Generated/UCPROBE/probe_scope.c **** #endif
 268:../Dave/Generated/UCPROBE/probe_scope.c **** 
 269:../Dave/Generated/UCPROBE/probe_scope.c ****     ProbeScope_Mode               = PROBE_SCOPE_MODE_OFF;
 270:../Dave/Generated/UCPROBE/probe_scope.c ****     ProbeScope_State              = PROBE_SCOPE_STATE_START;
 271:../Dave/Generated/UCPROBE/probe_scope.c ****     ProbeScope_TrigChSel          = PROBE_SCOPE_CH1;                         // Default trigger cha
 272:../Dave/Generated/UCPROBE/probe_scope.c ****     ProbeScope_SampleIxPrev       = 0;
 273:../Dave/Generated/UCPROBE/probe_scope.c ****     ProbeScope_SampleIxCur        = 0;
 274:../Dave/Generated/UCPROBE/probe_scope.c ****     ProbeScope_TrigFlag           = 0;
 275:../Dave/Generated/UCPROBE/probe_scope.c ****     ProbeScope_TrigDispPos        = 0;
 276:../Dave/Generated/UCPROBE/probe_scope.c ****     ProbeScope_TrigHoldOff        = 0;
 277:../Dave/Generated/UCPROBE/probe_scope.c ****     ProbeScope_TrigHoldOffCtr     = 0;
 278:../Dave/Generated/UCPROBE/probe_scope.c ****     ProbeScope_DataRdyFlag        = 0;
 279:../Dave/Generated/UCPROBE/probe_scope.c ****     ProbeScope_SamplesPreTrigCtr  = ProbeScope_TrigDispPos;
 280:../Dave/Generated/UCPROBE/probe_scope.c ****     ProbeScope_SamplesPostTrigCtr = PROBE_SCOPE_MAX_SAMPLES;
 281:../Dave/Generated/UCPROBE/probe_scope.c ****     ProbeScope_TrigSlope          = PROBE_SCOPE_TRIG_POS;                    // We assume a positiv
 282:../Dave/Generated/UCPROBE/probe_scope.c ****     temp                          = ProbeScopeDbg_MaxSamples;
 283:../Dave/Generated/UCPROBE/probe_scope.c ****     temp                         += ProbeScopeDbg_MaxCh;
 284:../Dave/Generated/UCPROBE/probe_scope.c ****     temp                         += ProbeScopeDbg_16BitEn;
 285:../Dave/Generated/UCPROBE/probe_scope.c ****     temp                         += ProbeScopeDbg_32BitEn;
 286:../Dave/Generated/UCPROBE/probe_scope.c ****     ProbeScope_SamplingClkDiv     =    1;
 287:../Dave/Generated/UCPROBE/probe_scope.c ****     ProbeScope_SamplingClkDivCtr  =    0;
 288:../Dave/Generated/UCPROBE/probe_scope.c ****     ProbeScope_SamplingClkHz      = sampling_clk_hz;
 289:../Dave/Generated/UCPROBE/probe_scope.c ****     ProbeScope_InitFlag           =    1;
 290:../Dave/Generated/UCPROBE/probe_scope.c **** }
 291:../Dave/Generated/UCPROBE/probe_scope.c **** 
 292:../Dave/Generated/UCPROBE/probe_scope.c **** /*
 293:../Dave/Generated/UCPROBE/probe_scope.c **** ***************************************************************************************************
 294:../Dave/Generated/UCPROBE/probe_scope.c **** *                                                  Scope Sampling API
 295:../Dave/Generated/UCPROBE/probe_scope.c **** *
 296:../Dave/Generated/UCPROBE/probe_scope.c **** * Description: This function must be called when your code needs to take a sample of all enabled ch
 297:../Dave/Generated/UCPROBE/probe_scope.c **** *
 298:../Dave/Generated/UCPROBE/probe_scope.c **** * Arguments  : none
 299:../Dave/Generated/UCPROBE/probe_scope.c **** * Returns    : none
 300:../Dave/Generated/UCPROBE/probe_scope.c **** ***************************************************************************************************
 301:../Dave/Generated/UCPROBE/probe_scope.c **** */
 302:../Dave/Generated/UCPROBE/probe_scope.c **** 
 303:../Dave/Generated/UCPROBE/probe_scope.c **** PROBE_SCOPE_RAM_FUNC void  ProbeScope_Sampling (void);
 304:../Dave/Generated/UCPROBE/probe_scope.c **** void  ProbeScope_Sampling (void)
 305:../Dave/Generated/UCPROBE/probe_scope.c **** {
 306:../Dave/Generated/UCPROBE/probe_scope.c ****     switch (ProbeScope_Mode) {
 307:../Dave/Generated/UCPROBE/probe_scope.c ****         case PROBE_SCOPE_MODE_OFF:
 308:../Dave/Generated/UCPROBE/probe_scope.c ****              ProbeScope_ModeOff();
 309:../Dave/Generated/UCPROBE/probe_scope.c ****              break;
 310:../Dave/Generated/UCPROBE/probe_scope.c ****     
 311:../Dave/Generated/UCPROBE/probe_scope.c ****         case PROBE_SCOPE_MODE_SINGLE:
 312:../Dave/Generated/UCPROBE/probe_scope.c ****              ProbeScope_ModeTrig();
 313:../Dave/Generated/UCPROBE/probe_scope.c ****              break;
 314:../Dave/Generated/UCPROBE/probe_scope.c ****     
 315:../Dave/Generated/UCPROBE/probe_scope.c ****         case PROBE_SCOPE_MODE_CONTINUOUS:
 316:../Dave/Generated/UCPROBE/probe_scope.c ****              ProbeScope_ModeContinuous();
 317:../Dave/Generated/UCPROBE/probe_scope.c ****              break;
 318:../Dave/Generated/UCPROBE/probe_scope.c ****     
 319:../Dave/Generated/UCPROBE/probe_scope.c ****         case PROBE_SCOPE_MODE_TRIG:
 320:../Dave/Generated/UCPROBE/probe_scope.c ****              ProbeScope_ModeTrig(); 
 321:../Dave/Generated/UCPROBE/probe_scope.c ****              break;
 322:../Dave/Generated/UCPROBE/probe_scope.c ****     }
 323:../Dave/Generated/UCPROBE/probe_scope.c **** }
 324:../Dave/Generated/UCPROBE/probe_scope.c ****     
 325:../Dave/Generated/UCPROBE/probe_scope.c **** 
 326:../Dave/Generated/UCPROBE/probe_scope.c **** /*
 327:../Dave/Generated/UCPROBE/probe_scope.c **** ***************************************************************************************************
 328:../Dave/Generated/UCPROBE/probe_scope.c **** *                                                  OFF Sampling Mode
 329:../Dave/Generated/UCPROBE/probe_scope.c **** *
 330:../Dave/Generated/UCPROBE/probe_scope.c **** * Description: This is the state machine called when we are not reading samples
 331:../Dave/Generated/UCPROBE/probe_scope.c **** *
 332:../Dave/Generated/UCPROBE/probe_scope.c **** * Arguments  : none
 333:../Dave/Generated/UCPROBE/probe_scope.c **** * Returns    : none
 334:../Dave/Generated/UCPROBE/probe_scope.c **** ***************************************************************************************************
 335:../Dave/Generated/UCPROBE/probe_scope.c **** */
 336:../Dave/Generated/UCPROBE/probe_scope.c **** 
 337:../Dave/Generated/UCPROBE/probe_scope.c **** PROBE_SCOPE_RAM_FUNC static  void  ProbeScope_ModeOff (void);
 338:../Dave/Generated/UCPROBE/probe_scope.c **** static  void  ProbeScope_ModeOff (void)
 339:../Dave/Generated/UCPROBE/probe_scope.c **** {
 340:../Dave/Generated/UCPROBE/probe_scope.c ****     ProbeScope_State = PROBE_SCOPE_STATE_START;                                // Force Triggered m
 341:../Dave/Generated/UCPROBE/probe_scope.c ****     if (ProbeScope_SamplingClkDiv == 0) {
 342:../Dave/Generated/UCPROBE/probe_scope.c ****         ProbeScope_SamplingClkDiv =  1;
 343:../Dave/Generated/UCPROBE/probe_scope.c ****     }
 344:../Dave/Generated/UCPROBE/probe_scope.c **** }
 345:../Dave/Generated/UCPROBE/probe_scope.c ****          
 346:../Dave/Generated/UCPROBE/probe_scope.c **** /*
 347:../Dave/Generated/UCPROBE/probe_scope.c **** ***************************************************************************************************
 348:../Dave/Generated/UCPROBE/probe_scope.c **** *                                                Continuous Sampling Mode
 349:../Dave/Generated/UCPROBE/probe_scope.c **** *
 350:../Dave/Generated/UCPROBE/probe_scope.c **** * Description: This is the state machine called when continuous mode is selected
 351:../Dave/Generated/UCPROBE/probe_scope.c **** *
 352:../Dave/Generated/UCPROBE/probe_scope.c **** * Arguments  : none
 353:../Dave/Generated/UCPROBE/probe_scope.c **** * Returns    : none
 354:../Dave/Generated/UCPROBE/probe_scope.c **** ***************************************************************************************************
 355:../Dave/Generated/UCPROBE/probe_scope.c **** */
 356:../Dave/Generated/UCPROBE/probe_scope.c **** 
 357:../Dave/Generated/UCPROBE/probe_scope.c **** PROBE_SCOPE_RAM_FUNC static  void  ProbeScope_ModeContinuous (void);
 358:../Dave/Generated/UCPROBE/probe_scope.c **** static  void  ProbeScope_ModeContinuous (void)
 359:../Dave/Generated/UCPROBE/probe_scope.c **** {
 360:../Dave/Generated/UCPROBE/probe_scope.c ****     if (ProbeScope_DataRdyFlag == 0) {                                          // Read one buffer'
 361:../Dave/Generated/UCPROBE/probe_scope.c ****         ProbeScope_TrigFlag = 0;
 362:../Dave/Generated/UCPROBE/probe_scope.c ****         if (ProbeScope_SamplingClkDivCtr > 1) {
 363:../Dave/Generated/UCPROBE/probe_scope.c ****             ProbeScope_SamplingClkDivCtr--;
 364:../Dave/Generated/UCPROBE/probe_scope.c ****         } else {
 365:../Dave/Generated/UCPROBE/probe_scope.c ****             if (ProbeScope_SamplingClkDiv == 0) {                               // Make sure clock 
 366:../Dave/Generated/UCPROBE/probe_scope.c ****                 ProbeScope_SamplingClkDiv =  1;
 367:../Dave/Generated/UCPROBE/probe_scope.c ****             }
 368:../Dave/Generated/UCPROBE/probe_scope.c ****             ProbeScope_SamplingClkDivCtr  = ProbeScope_SamplingClkDiv;
 369:../Dave/Generated/UCPROBE/probe_scope.c ****             ProbeScope_SampleChAll();                                           // Get the first sa
 370:../Dave/Generated/UCPROBE/probe_scope.c ****             ProbeScope_SamplePosNext();                                         // Position to next
 371:../Dave/Generated/UCPROBE/probe_scope.c ****             if (ProbeScope_SampleIxCur == 0) {                                  // Read one buffer'
 372:../Dave/Generated/UCPROBE/probe_scope.c ****                 ProbeScope_DataRdyFlag = 1;   
 373:../Dave/Generated/UCPROBE/probe_scope.c ****                 ProbeScope_TrigFlag    = 1;
 374:../Dave/Generated/UCPROBE/probe_scope.c ****             }
 375:../Dave/Generated/UCPROBE/probe_scope.c ****         }
 376:../Dave/Generated/UCPROBE/probe_scope.c ****     }
 377:../Dave/Generated/UCPROBE/probe_scope.c ****     ProbeScope_State = PROBE_SCOPE_STATE_START;                                 // Force Triggered 
 378:../Dave/Generated/UCPROBE/probe_scope.c **** }
 379:../Dave/Generated/UCPROBE/probe_scope.c **** 
 380:../Dave/Generated/UCPROBE/probe_scope.c **** /*
 381:../Dave/Generated/UCPROBE/probe_scope.c **** ***************************************************************************************************
 382:../Dave/Generated/UCPROBE/probe_scope.c **** *                                                 Triggered Sampling
 383:../Dave/Generated/UCPROBE/probe_scope.c **** *
 384:../Dave/Generated/UCPROBE/probe_scope.c **** * Description: This is the state machine called when triggered mode is selected
 385:../Dave/Generated/UCPROBE/probe_scope.c **** *
 386:../Dave/Generated/UCPROBE/probe_scope.c **** * Arguments  : none
 387:../Dave/Generated/UCPROBE/probe_scope.c **** * Returns    : none
 388:../Dave/Generated/UCPROBE/probe_scope.c **** ***************************************************************************************************
 389:../Dave/Generated/UCPROBE/probe_scope.c **** */
 390:../Dave/Generated/UCPROBE/probe_scope.c **** 
 391:../Dave/Generated/UCPROBE/probe_scope.c **** PROBE_SCOPE_RAM_FUNC static  void  ProbeScope_ModeTrig (void);
 392:../Dave/Generated/UCPROBE/probe_scope.c **** static  void  ProbeScope_ModeTrig (void)
 393:../Dave/Generated/UCPROBE/probe_scope.c **** {
 394:../Dave/Generated/UCPROBE/probe_scope.c ****     if (ProbeScope_SamplingClkDivCtr > 1) {
 395:../Dave/Generated/UCPROBE/probe_scope.c ****         ProbeScope_SamplingClkDivCtr--;
 396:../Dave/Generated/UCPROBE/probe_scope.c ****     } else { 
 397:../Dave/Generated/UCPROBE/probe_scope.c ****         if (ProbeScope_SamplingClkDiv == 0) {                                        // Make sure c
 398:../Dave/Generated/UCPROBE/probe_scope.c ****             ProbeScope_SamplingClkDiv =  1;
 399:../Dave/Generated/UCPROBE/probe_scope.c ****         }
 400:../Dave/Generated/UCPROBE/probe_scope.c ****         ProbeScope_SamplingClkDivCtr = ProbeScope_SamplingClkDiv;
 401:../Dave/Generated/UCPROBE/probe_scope.c ****         switch (ProbeScope_State) {
 402:../Dave/Generated/UCPROBE/probe_scope.c ****             case PROBE_SCOPE_STATE_START:
 403:../Dave/Generated/UCPROBE/probe_scope.c ****                  ProbeScope_DataRdyFlag        = 0;
 404:../Dave/Generated/UCPROBE/probe_scope.c ****                  ProbeScope_TrigFlag           = 0;
 405:../Dave/Generated/UCPROBE/probe_scope.c ****                  ProbeScope_SampleIxPrev       = 0;
 406:../Dave/Generated/UCPROBE/probe_scope.c ****                  ProbeScope_SampleIxCur        = 0;
 407:../Dave/Generated/UCPROBE/probe_scope.c ****                  ProbeScope_TrigHoldOffCtr     = 0;
 408:../Dave/Generated/UCPROBE/probe_scope.c ****                  ProbeScope_SamplesPostTrigCtr = 0;
 409:../Dave/Generated/UCPROBE/probe_scope.c ****                  ProbeScope_SamplesPreTrigCtr  = ProbeScope_TrigDispPos;            // Minimum numb
 410:../Dave/Generated/UCPROBE/probe_scope.c ****                  ProbeScope_SampleChAll();                                          // Get the firs
 411:../Dave/Generated/UCPROBE/probe_scope.c ****                  ProbeScope_SamplePosNext();
 412:../Dave/Generated/UCPROBE/probe_scope.c ****                  ProbeScope_State              = PROBE_SCOPE_STATE_SAMPLING_PRE_TRIG;
 413:../Dave/Generated/UCPROBE/probe_scope.c ****                  break;
 414:../Dave/Generated/UCPROBE/probe_scope.c ****                  
 415:../Dave/Generated/UCPROBE/probe_scope.c ****             case PROBE_SCOPE_STATE_SAMPLING_PRE_TRIG:
 416:../Dave/Generated/UCPROBE/probe_scope.c ****                  ProbeScope_SampleChAll();                                          // Get the next
 417:../Dave/Generated/UCPROBE/probe_scope.c ****                  if (ProbeScope_SamplesPreTrigCtr > 0) {                            // We need a mi
 418:../Dave/Generated/UCPROBE/probe_scope.c ****                      ProbeScope_SamplesPreTrigCtr--;                               
 419:../Dave/Generated/UCPROBE/probe_scope.c ****                  } else {
 420:../Dave/Generated/UCPROBE/probe_scope.c ****                      ProbeScope_IsTrig();                                           // See if we de
 421:../Dave/Generated/UCPROBE/probe_scope.c ****                  }
 422:../Dave/Generated/UCPROBE/probe_scope.c ****                  ProbeScope_SamplePosNext();
 423:../Dave/Generated/UCPROBE/probe_scope.c ****                  if (ProbeScope_TrigFlag == 1) {                                    // Remaining nu
 424:../Dave/Generated/UCPROBE/probe_scope.c ****                      ProbeScope_SamplesPostTrigCtr = PROBE_SCOPE_MAX_SAMPLES - ProbeScope_TrigDispP
 425:../Dave/Generated/UCPROBE/probe_scope.c ****                      ProbeScope_State              = PROBE_SCOPE_STATE_SAMPLING_POST_TRIG;
 426:../Dave/Generated/UCPROBE/probe_scope.c ****                  }
 427:../Dave/Generated/UCPROBE/probe_scope.c ****                  break;
 428:../Dave/Generated/UCPROBE/probe_scope.c ****                  
 429:../Dave/Generated/UCPROBE/probe_scope.c ****             case PROBE_SCOPE_STATE_SAMPLING_POST_TRIG:
 430:../Dave/Generated/UCPROBE/probe_scope.c ****                  ProbeScope_SampleChAll();                                          // Get the next
 431:../Dave/Generated/UCPROBE/probe_scope.c ****                  ProbeScope_SamplePosNext();
 432:../Dave/Generated/UCPROBE/probe_scope.c ****                  if (ProbeScope_SamplesPostTrigCtr > 0) {
 433:../Dave/Generated/UCPROBE/probe_scope.c ****                      ProbeScope_SamplesPostTrigCtr--;
 434:../Dave/Generated/UCPROBE/probe_scope.c ****                  } else {
 435:../Dave/Generated/UCPROBE/probe_scope.c ****                      if (ProbeScope_Mode == PROBE_SCOPE_MODE_SINGLE) {
 436:../Dave/Generated/UCPROBE/probe_scope.c ****                          ProbeScope_Mode           = PROBE_SCOPE_MODE_OFF;
 437:../Dave/Generated/UCPROBE/probe_scope.c ****                          ProbeScope_State          = PROBE_SCOPE_STATE_START;
 438:../Dave/Generated/UCPROBE/probe_scope.c ****                      } else {
 439:../Dave/Generated/UCPROBE/probe_scope.c ****                          ProbeScope_TrigHoldOffCtr = ProbeScope_TrigHoldOff;        // Load hold-of
 440:../Dave/Generated/UCPROBE/probe_scope.c ****                          ProbeScope_State          = PROBE_SCOPE_STATE_DATA_RDY;    
 441:../Dave/Generated/UCPROBE/probe_scope.c ****                      }                                                              
 442:../Dave/Generated/UCPROBE/probe_scope.c ****                      ProbeScope_DataRdyFlag = 1;                                    // Trace is ava
 443:../Dave/Generated/UCPROBE/probe_scope.c ****                  }                                                                  
 444:../Dave/Generated/UCPROBE/probe_scope.c ****                  break;                                                             
 445:../Dave/Generated/UCPROBE/probe_scope.c ****                                                                                     
 446:../Dave/Generated/UCPROBE/probe_scope.c ****             case PROBE_SCOPE_STATE_DATA_RDY:                                        
 447:../Dave/Generated/UCPROBE/probe_scope.c ****                  if (ProbeScope_TrigHoldOffCtr > 0) {                               // Hold-off bef
 448:../Dave/Generated/UCPROBE/probe_scope.c ****                      ProbeScope_TrigHoldOffCtr--;                                   
 449:../Dave/Generated/UCPROBE/probe_scope.c ****                  } else {                                                           
 450:../Dave/Generated/UCPROBE/probe_scope.c ****                      if (ProbeScope_DataRdyFlag == 0) {                             // Give Probe t
 451:../Dave/Generated/UCPROBE/probe_scope.c ****                          ProbeScope_TrigFlag          = 0;
 452:../Dave/Generated/UCPROBE/probe_scope.c ****                          ProbeScope_SamplesPreTrigCtr = ProbeScope_TrigDispPos;     // Minimum numb
 453:../Dave/Generated/UCPROBE/probe_scope.c ****                          ProbeScope_State             = PROBE_SCOPE_STATE_SAMPLING_PRE_TRIG;
 454:../Dave/Generated/UCPROBE/probe_scope.c ****                          ProbeScope_SampleChAll();                                  // Get the firs
 455:../Dave/Generated/UCPROBE/probe_scope.c ****                          ProbeScope_SamplePosNext();
 456:../Dave/Generated/UCPROBE/probe_scope.c ****                      }
 457:../Dave/Generated/UCPROBE/probe_scope.c ****                  }
 458:../Dave/Generated/UCPROBE/probe_scope.c ****                  break;
 459:../Dave/Generated/UCPROBE/probe_scope.c ****                  
 460:../Dave/Generated/UCPROBE/probe_scope.c ****             default:
 461:../Dave/Generated/UCPROBE/probe_scope.c ****                  ProbeScope_State = PROBE_SCOPE_STATE_START;
 462:../Dave/Generated/UCPROBE/probe_scope.c ****                  break;
 463:../Dave/Generated/UCPROBE/probe_scope.c ****         }
 464:../Dave/Generated/UCPROBE/probe_scope.c ****     }
 465:../Dave/Generated/UCPROBE/probe_scope.c **** }
 466:../Dave/Generated/UCPROBE/probe_scope.c **** 
 467:../Dave/Generated/UCPROBE/probe_scope.c **** /*
 468:../Dave/Generated/UCPROBE/probe_scope.c **** ***************************************************************************************************
 469:../Dave/Generated/UCPROBE/probe_scope.c **** *                                              ProbeScope_SampleChAll()
 470:../Dave/Generated/UCPROBE/probe_scope.c **** *
 471:../Dave/Generated/UCPROBE/probe_scope.c **** * Description: This function is called to get a sample from all the enabled channels
 472:../Dave/Generated/UCPROBE/probe_scope.c **** *
 473:../Dave/Generated/UCPROBE/probe_scope.c **** * Arguments  : none
 474:../Dave/Generated/UCPROBE/probe_scope.c **** * Returns    : none
 475:../Dave/Generated/UCPROBE/probe_scope.c **** ***************************************************************************************************
 476:../Dave/Generated/UCPROBE/probe_scope.c **** */
 477:../Dave/Generated/UCPROBE/probe_scope.c **** 
 478:../Dave/Generated/UCPROBE/probe_scope.c **** PROBE_SCOPE_RAM_FUNC static  void  ProbeScope_SampleChAll (void);
 479:../Dave/Generated/UCPROBE/probe_scope.c **** static  void  ProbeScope_SampleChAll (void)
 480:../Dave/Generated/UCPROBE/probe_scope.c **** {
 481:../Dave/Generated/UCPROBE/probe_scope.c ****     ProbeScope_SampleCh(&ProbeScope_Ch1);
 482:../Dave/Generated/UCPROBE/probe_scope.c **** 
 483:../Dave/Generated/UCPROBE/probe_scope.c **** #if PROBE_SCOPE_MAX_CH >= 2
 484:../Dave/Generated/UCPROBE/probe_scope.c ****     ProbeScope_SampleCh(&ProbeScope_Ch2);
 485:../Dave/Generated/UCPROBE/probe_scope.c **** #endif
 486:../Dave/Generated/UCPROBE/probe_scope.c **** 
 487:../Dave/Generated/UCPROBE/probe_scope.c **** #if PROBE_SCOPE_MAX_CH >= 3                     
 488:../Dave/Generated/UCPROBE/probe_scope.c ****     ProbeScope_SampleCh(&ProbeScope_Ch3);
 489:../Dave/Generated/UCPROBE/probe_scope.c **** #endif
 490:../Dave/Generated/UCPROBE/probe_scope.c **** 
 491:../Dave/Generated/UCPROBE/probe_scope.c **** #if PROBE_SCOPE_MAX_CH >= 4                     
 492:../Dave/Generated/UCPROBE/probe_scope.c ****     ProbeScope_SampleCh(&ProbeScope_Ch4);
 493:../Dave/Generated/UCPROBE/probe_scope.c **** #endif                     
 494:../Dave/Generated/UCPROBE/probe_scope.c **** 
 495:../Dave/Generated/UCPROBE/probe_scope.c **** #if PROBE_SCOPE_MAX_CH >= 5
 496:../Dave/Generated/UCPROBE/probe_scope.c ****     ProbeScope_SampleCh(&ProbeScope_Ch5);
 497:../Dave/Generated/UCPROBE/probe_scope.c **** #endif
 498:../Dave/Generated/UCPROBE/probe_scope.c **** 
 499:../Dave/Generated/UCPROBE/probe_scope.c **** #if PROBE_SCOPE_MAX_CH >= 6                     
 500:../Dave/Generated/UCPROBE/probe_scope.c ****     ProbeScope_SampleCh(&ProbeScope_Ch6);
 501:../Dave/Generated/UCPROBE/probe_scope.c **** #endif
 502:../Dave/Generated/UCPROBE/probe_scope.c **** 
 503:../Dave/Generated/UCPROBE/probe_scope.c **** #if PROBE_SCOPE_MAX_CH >= 7                     
 504:../Dave/Generated/UCPROBE/probe_scope.c ****     ProbeScope_SampleCh(&ProbeScope_Ch7);
 505:../Dave/Generated/UCPROBE/probe_scope.c **** #endif                     
 506:../Dave/Generated/UCPROBE/probe_scope.c **** 
 507:../Dave/Generated/UCPROBE/probe_scope.c **** #if PROBE_SCOPE_MAX_CH >= 8                     
 508:../Dave/Generated/UCPROBE/probe_scope.c ****     ProbeScope_SampleCh(&ProbeScope_Ch8);
 509:../Dave/Generated/UCPROBE/probe_scope.c **** #endif                     
 510:../Dave/Generated/UCPROBE/probe_scope.c **** }
 511:../Dave/Generated/UCPROBE/probe_scope.c **** 
 512:../Dave/Generated/UCPROBE/probe_scope.c **** /*
 513:../Dave/Generated/UCPROBE/probe_scope.c **** ***************************************************************************************************
 514:../Dave/Generated/UCPROBE/probe_scope.c **** *                                                   ProbeScope_SampleCh()
 515:../Dave/Generated/UCPROBE/probe_scope.c **** *
 516:../Dave/Generated/UCPROBE/probe_scope.c **** * Description: This function is called to read a sample from the desired channel and store it in it
 517:../Dave/Generated/UCPROBE/probe_scope.c **** *
 518:../Dave/Generated/UCPROBE/probe_scope.c **** * Arguments  : p_ch      is a pointer to the desired channel to sample
 519:../Dave/Generated/UCPROBE/probe_scope.c **** * Returns    : none
 520:../Dave/Generated/UCPROBE/probe_scope.c **** ***************************************************************************************************
 521:../Dave/Generated/UCPROBE/probe_scope.c **** */
 522:../Dave/Generated/UCPROBE/probe_scope.c **** 
 523:../Dave/Generated/UCPROBE/probe_scope.c **** PROBE_SCOPE_RAM_FUNC static  void  ProbeScope_SampleCh (PROBE_SCOPE_CH  *p_ch);
 524:../Dave/Generated/UCPROBE/probe_scope.c **** static  void  ProbeScope_SampleCh (PROBE_SCOPE_CH  *p_ch)
  25              	 .loc 1 524 0
  26              	 .cfi_startproc
  27              	.LVL0:
 525:../Dave/Generated/UCPROBE/probe_scope.c **** {
 526:../Dave/Generated/UCPROBE/probe_scope.c ****     PROBE_SCOPE_CH_SAMPLE   msk;                                    // Mask used to select desired 
 527:../Dave/Generated/UCPROBE/probe_scope.c ****     PROBE_SCOPE_CH_SAMPLE  *p_sample;                               // Pointer to where the sample 
 528:../Dave/Generated/UCPROBE/probe_scope.c **** 
 529:../Dave/Generated/UCPROBE/probe_scope.c **** 
 530:../Dave/Generated/UCPROBE/probe_scope.c ****     if (p_ch->En == 1) {
 531:../Dave/Generated/UCPROBE/probe_scope.c ****         p_sample = &p_ch->Samples[ProbeScope_SampleIxCur];          // Point to current position in
  28              	 .loc 1 531 0
  29 0000 3B4B     	 ldr r3,.L34
 532:../Dave/Generated/UCPROBE/probe_scope.c ****         switch (p_ch->DataType) {
  30              	 .loc 1 532 0
  31 0002 0279     	 ldrb r2,[r0,#4]
 524:../Dave/Generated/UCPROBE/probe_scope.c **** {
  32              	 .loc 1 524 0
  33 0004 10B5     	 push {r4,lr}
  34              	.LCFI0:
  35              	 .cfi_def_cfa_offset 8
  36              	 .cfi_offset 4,-8
  37              	 .cfi_offset 14,-4
 531:../Dave/Generated/UCPROBE/probe_scope.c ****         switch (p_ch->DataType) {
  38              	 .loc 1 531 0
  39 0006 1B68     	 ldr r3,[r3]
  40              	.LVL1:
  41              	 .loc 1 532 0
  42 0008 062A     	 cmp r2,#6
  43 000a 12D8     	 bhi .L1
  44 000c 3949     	 ldr r1,.L34+4
  45 000e 9200     	 lsl r2,r2,#2
  46 0010 8A58     	 ldr r2,[r1,r2]
  47 0012 9746     	 mov pc,r2
  48              	 .section .rodata.ProbeScope_SampleCh.part.0,"a",%progbits
  49              	 .align 2
  50              	.L4:
  51 0000 40000000 	 .word .L3
  52 0004 60000000 	 .word .L5
  53 0008 84000000 	 .word .L6
  54 000c A4000000 	 .word .L7
  55 0010 14000000 	 .word .L9
  56 0014 14000000 	 .word .L9
  57 0018 34000000 	 .word .L10
  58              	 .section .text.ProbeScope_SampleCh.part.0
  59              	.L9:
 533:../Dave/Generated/UCPROBE/probe_scope.c ****             case PROBE_SCOPE_INT08U:
 534:../Dave/Generated/UCPROBE/probe_scope.c ****                  if (p_ch->BitEn == 0) {
 535:../Dave/Generated/UCPROBE/probe_scope.c ****                      p_sample->Val08U     = *(CPU_INT08U *)p_ch->DataAddr;
 536:../Dave/Generated/UCPROBE/probe_scope.c ****                  } else {
 537:../Dave/Generated/UCPROBE/probe_scope.c ****                      msk.Val08U           =  (CPU_INT08U)1 << p_ch->BitSel;
 538:../Dave/Generated/UCPROBE/probe_scope.c ****                      if (*(CPU_INT08U *)p_ch->DataAddr & msk.Val08U) {
 539:../Dave/Generated/UCPROBE/probe_scope.c ****                          p_sample->Val08U = 1;
 540:../Dave/Generated/UCPROBE/probe_scope.c ****                      } else {
 541:../Dave/Generated/UCPROBE/probe_scope.c ****                          p_sample->Val08U = 0;
 542:../Dave/Generated/UCPROBE/probe_scope.c ****                      }
 543:../Dave/Generated/UCPROBE/probe_scope.c ****                  }
 544:../Dave/Generated/UCPROBE/probe_scope.c ****                  break;
 545:../Dave/Generated/UCPROBE/probe_scope.c ****                                   
 546:../Dave/Generated/UCPROBE/probe_scope.c ****             case PROBE_SCOPE_INT08S:
 547:../Dave/Generated/UCPROBE/probe_scope.c ****                  if (p_ch->BitEn == 0) {
 548:../Dave/Generated/UCPROBE/probe_scope.c ****                      p_sample->Val08S     = *(CPU_INT08S *)p_ch->DataAddr;
 549:../Dave/Generated/UCPROBE/probe_scope.c ****                  } else {
 550:../Dave/Generated/UCPROBE/probe_scope.c ****                      msk.Val08S           =  (CPU_INT08S)1 << p_ch->BitSel;
 551:../Dave/Generated/UCPROBE/probe_scope.c ****                      if (*(CPU_INT08S *)p_ch->DataAddr & msk.Val08S) {
 552:../Dave/Generated/UCPROBE/probe_scope.c ****                          p_sample->Val08S = 1;
 553:../Dave/Generated/UCPROBE/probe_scope.c ****                      } else {
 554:../Dave/Generated/UCPROBE/probe_scope.c ****                          p_sample->Val08S = 0;
 555:../Dave/Generated/UCPROBE/probe_scope.c ****                      }
 556:../Dave/Generated/UCPROBE/probe_scope.c ****                  }
 557:../Dave/Generated/UCPROBE/probe_scope.c ****                  break;
 558:../Dave/Generated/UCPROBE/probe_scope.c ****                                   
 559:../Dave/Generated/UCPROBE/probe_scope.c **** #if PROBE_SCOPE_16_BIT_EN > 0                                   
 560:../Dave/Generated/UCPROBE/probe_scope.c ****             case PROBE_SCOPE_INT16U:
 561:../Dave/Generated/UCPROBE/probe_scope.c ****                  if (p_ch->BitEn == 0) {
 562:../Dave/Generated/UCPROBE/probe_scope.c ****                      p_sample->Val16U     = *(CPU_INT16U *)p_ch->DataAddr;
 563:../Dave/Generated/UCPROBE/probe_scope.c ****                  } else {
 564:../Dave/Generated/UCPROBE/probe_scope.c ****                      msk.Val16U           =  (CPU_INT16U)1 << p_ch->BitSel;
 565:../Dave/Generated/UCPROBE/probe_scope.c ****                      if (*(CPU_INT16U *)p_ch->DataAddr & msk.Val16U) {
 566:../Dave/Generated/UCPROBE/probe_scope.c ****                          p_sample->Val16U = 1;
 567:../Dave/Generated/UCPROBE/probe_scope.c ****                      } else {
 568:../Dave/Generated/UCPROBE/probe_scope.c ****                          p_sample->Val16U = 0;
 569:../Dave/Generated/UCPROBE/probe_scope.c ****                      }
 570:../Dave/Generated/UCPROBE/probe_scope.c ****                  }
 571:../Dave/Generated/UCPROBE/probe_scope.c ****                  break;
 572:../Dave/Generated/UCPROBE/probe_scope.c ****                                   
 573:../Dave/Generated/UCPROBE/probe_scope.c ****             case PROBE_SCOPE_INT16S:
 574:../Dave/Generated/UCPROBE/probe_scope.c ****                  if (p_ch->BitEn == 0) {
 575:../Dave/Generated/UCPROBE/probe_scope.c ****                      p_sample->Val16S     = *(CPU_INT16S *)p_ch->DataAddr;
 576:../Dave/Generated/UCPROBE/probe_scope.c ****                  } else {
 577:../Dave/Generated/UCPROBE/probe_scope.c ****                      msk.Val16S           =  (CPU_INT16S)1 << p_ch->BitSel;
 578:../Dave/Generated/UCPROBE/probe_scope.c ****                      if (*(CPU_INT16S *)p_ch->DataAddr & msk.Val16S) {
 579:../Dave/Generated/UCPROBE/probe_scope.c ****                          p_sample->Val16S = 1;
 580:../Dave/Generated/UCPROBE/probe_scope.c ****                      } else {
 581:../Dave/Generated/UCPROBE/probe_scope.c ****                          p_sample->Val16S = 0;
 582:../Dave/Generated/UCPROBE/probe_scope.c ****                      }
 583:../Dave/Generated/UCPROBE/probe_scope.c ****                  }
 584:../Dave/Generated/UCPROBE/probe_scope.c ****                  break;
 585:../Dave/Generated/UCPROBE/probe_scope.c **** #endif
 586:../Dave/Generated/UCPROBE/probe_scope.c **** 
 587:../Dave/Generated/UCPROBE/probe_scope.c **** #if PROBE_SCOPE_32_BIT_EN > 0                                   
 588:../Dave/Generated/UCPROBE/probe_scope.c ****             case PROBE_SCOPE_INT32U:
 589:../Dave/Generated/UCPROBE/probe_scope.c ****                  if (p_ch->BitEn == 0) {
 590:../Dave/Generated/UCPROBE/probe_scope.c ****                      p_sample->Val32U     = *(CPU_INT32U *)p_ch->DataAddr;
 591:../Dave/Generated/UCPROBE/probe_scope.c ****                  } else {
 592:../Dave/Generated/UCPROBE/probe_scope.c ****                      msk.Val32U           =  (CPU_INT32U)1 << p_ch->BitSel;
 593:../Dave/Generated/UCPROBE/probe_scope.c ****                      if (*(CPU_INT32U *)p_ch->DataAddr & msk.Val32U) {
 594:../Dave/Generated/UCPROBE/probe_scope.c ****                          p_sample->Val32U = 1;
 595:../Dave/Generated/UCPROBE/probe_scope.c ****                      } else {
 596:../Dave/Generated/UCPROBE/probe_scope.c ****                          p_sample->Val32U = 0;
 597:../Dave/Generated/UCPROBE/probe_scope.c ****                      }
 598:../Dave/Generated/UCPROBE/probe_scope.c ****                  }
 599:../Dave/Generated/UCPROBE/probe_scope.c ****                  break;
 600:../Dave/Generated/UCPROBE/probe_scope.c ****                                   
 601:../Dave/Generated/UCPROBE/probe_scope.c ****             case PROBE_SCOPE_INT32S:
 602:../Dave/Generated/UCPROBE/probe_scope.c ****                  if (p_ch->BitEn == 0) {
  60              	 .loc 1 602 0
  61 0014 8268     	 ldr r2,[r0,#8]
  62 0016 002A     	 cmp r2,#0
  63 0018 56D0     	 beq .L33
 603:../Dave/Generated/UCPROBE/probe_scope.c ****                      p_sample->Val32S     = *(CPU_INT32S *)p_ch->DataAddr;
 604:../Dave/Generated/UCPROBE/probe_scope.c ****                  } else {
 605:../Dave/Generated/UCPROBE/probe_scope.c ****                      msk.Val32S           =  (CPU_INT32S)1 << p_ch->BitSel;
  64              	 .loc 1 605 0
  65 001a 0121     	 mov r1,#1
  66 001c 0C1C     	 mov r4,r1
  67 001e 027B     	 ldrb r2,[r0,#12]
 606:../Dave/Generated/UCPROBE/probe_scope.c ****                      if (*(CPU_INT32S *)p_ch->DataAddr & msk.Val32S) {
 607:../Dave/Generated/UCPROBE/probe_scope.c ****                          p_sample->Val32S = 1;
  68              	 .loc 1 607 0
  69 0020 0633     	 add r3,r3,#6
  70              	.LVL2:
 605:../Dave/Generated/UCPROBE/probe_scope.c ****                      if (*(CPU_INT32S *)p_ch->DataAddr & msk.Val32S) {
  71              	 .loc 1 605 0
  72 0022 9440     	 lsl r4,r4,r2
  73 0024 221C     	 mov r2,r4
 606:../Dave/Generated/UCPROBE/probe_scope.c ****                      if (*(CPU_INT32S *)p_ch->DataAddr & msk.Val32S) {
  74              	 .loc 1 606 0
  75 0026 0469     	 ldr r4,[r0,#16]
  76              	 .loc 1 607 0
  77 0028 9B00     	 lsl r3,r3,#2
 606:../Dave/Generated/UCPROBE/probe_scope.c ****                      if (*(CPU_INT32S *)p_ch->DataAddr & msk.Val32S) {
  78              	 .loc 1 606 0
  79 002a 2468     	 ldr r4,[r4]
  80 002c 2240     	 and r2,r4
  81 002e 5DD0     	 beq .L22
  82              	 .loc 1 607 0
  83 0030 1950     	 str r1,[r3,r0]
  84              	.LVL3:
  85              	.L1:
 608:../Dave/Generated/UCPROBE/probe_scope.c ****                      } else {
 609:../Dave/Generated/UCPROBE/probe_scope.c ****                          p_sample->Val32S = 0;
 610:../Dave/Generated/UCPROBE/probe_scope.c ****                      }
 611:../Dave/Generated/UCPROBE/probe_scope.c ****                  }
 612:../Dave/Generated/UCPROBE/probe_scope.c ****                  break;
 613:../Dave/Generated/UCPROBE/probe_scope.c ****                                   
 614:../Dave/Generated/UCPROBE/probe_scope.c ****             case PROBE_SCOPE_FP32:
 615:../Dave/Generated/UCPROBE/probe_scope.c ****                  p_sample->ValFP32  = *(CPU_FP32   *)p_ch->DataAddr;
 616:../Dave/Generated/UCPROBE/probe_scope.c ****                  break;
 617:../Dave/Generated/UCPROBE/probe_scope.c **** #endif
 618:../Dave/Generated/UCPROBE/probe_scope.c ****         }                          
 619:../Dave/Generated/UCPROBE/probe_scope.c ****     }
 620:../Dave/Generated/UCPROBE/probe_scope.c **** }
  86              	 .loc 1 620 0
  87              	 
  88 0032 10BD     	 pop {r4,pc}
  89              	.LVL4:
  90              	.L10:
 615:../Dave/Generated/UCPROBE/probe_scope.c ****                  break;
  91              	 .loc 1 615 0
  92 0034 0269     	 ldr r2,[r0,#16]
  93 0036 0633     	 add r3,r3,#6
  94              	.LVL5:
  95 0038 1268     	 ldr r2,[r2]
  96 003a 9B00     	 lsl r3,r3,#2
  97 003c 1A50     	 str r2,[r3,r0]
  98 003e F8E7     	 b .L1
  99              	.LVL6:
 100              	.L3:
 534:../Dave/Generated/UCPROBE/probe_scope.c ****                      p_sample->Val08U     = *(CPU_INT08U *)p_ch->DataAddr;
 101              	 .loc 1 534 0
 102 0040 8268     	 ldr r2,[r0,#8]
 103 0042 002A     	 cmp r2,#0
 104 0044 4CD0     	 beq .L23
 537:../Dave/Generated/UCPROBE/probe_scope.c ****                      if (*(CPU_INT08U *)p_ch->DataAddr & msk.Val08U) {
 105              	 .loc 1 537 0
 106 0046 0121     	 mov r1,#1
 107 0048 0C1C     	 mov r4,r1
 108 004a 027B     	 ldrb r2,[r0,#12]
 539:../Dave/Generated/UCPROBE/probe_scope.c ****                      } else {
 109              	 .loc 1 539 0
 110 004c 0633     	 add r3,r3,#6
 111              	.LVL7:
 537:../Dave/Generated/UCPROBE/probe_scope.c ****                      if (*(CPU_INT08U *)p_ch->DataAddr & msk.Val08U) {
 112              	 .loc 1 537 0
 113 004e 9440     	 lsl r4,r4,r2
 114 0050 221C     	 mov r2,r4
 538:../Dave/Generated/UCPROBE/probe_scope.c ****                          p_sample->Val08U = 1;
 115              	 .loc 1 538 0
 116 0052 0469     	 ldr r4,[r0,#16]
 539:../Dave/Generated/UCPROBE/probe_scope.c ****                      } else {
 117              	 .loc 1 539 0
 118 0054 9B00     	 lsl r3,r3,#2
 538:../Dave/Generated/UCPROBE/probe_scope.c ****                          p_sample->Val08U = 1;
 119              	 .loc 1 538 0
 120 0056 2478     	 ldrb r4,[r4]
 121 0058 2240     	 and r2,r4
 122 005a 11D0     	 beq .L25
 123              	.L24:
 552:../Dave/Generated/UCPROBE/probe_scope.c ****                      } else {
 124              	 .loc 1 552 0
 125 005c 1954     	 strb r1,[r3,r0]
 126              	.LVL8:
 127 005e E8E7     	 b .L1
 128              	.LVL9:
 129              	.L5:
 547:../Dave/Generated/UCPROBE/probe_scope.c ****                      p_sample->Val08S     = *(CPU_INT08S *)p_ch->DataAddr;
 130              	 .loc 1 547 0
 131 0060 8268     	 ldr r2,[r0,#8]
 132 0062 002A     	 cmp r2,#0
 133 0064 3CD0     	 beq .L23
 550:../Dave/Generated/UCPROBE/probe_scope.c ****                      if (*(CPU_INT08S *)p_ch->DataAddr & msk.Val08S) {
 134              	 .loc 1 550 0
 135 0066 0121     	 mov r1,#1
 136 0068 0C1C     	 mov r4,r1
 137 006a 027B     	 ldrb r2,[r0,#12]
 552:../Dave/Generated/UCPROBE/probe_scope.c ****                      } else {
 138              	 .loc 1 552 0
 139 006c 0633     	 add r3,r3,#6
 140              	.LVL10:
 550:../Dave/Generated/UCPROBE/probe_scope.c ****                      if (*(CPU_INT08S *)p_ch->DataAddr & msk.Val08S) {
 141              	 .loc 1 550 0
 142 006e 9440     	 lsl r4,r4,r2
 143 0070 221C     	 mov r2,r4
 551:../Dave/Generated/UCPROBE/probe_scope.c ****                          p_sample->Val08S = 1;
 144              	 .loc 1 551 0
 145 0072 0469     	 ldr r4,[r0,#16]
 552:../Dave/Generated/UCPROBE/probe_scope.c ****                      } else {
 146              	 .loc 1 552 0
 147 0074 9B00     	 lsl r3,r3,#2
 551:../Dave/Generated/UCPROBE/probe_scope.c ****                          p_sample->Val08S = 1;
 148              	 .loc 1 551 0
 149 0076 2478     	 ldrb r4,[r4]
 150 0078 2240     	 and r2,r4
 151 007a 52B2     	 sxtb r2,r2
 152 007c 002A     	 cmp r2,#0
 153 007e EDD1     	 bne .L24
 154              	.L25:
 548:../Dave/Generated/UCPROBE/probe_scope.c ****                  } else {
 155              	 .loc 1 548 0
 156 0080 1A54     	 strb r2,[r3,r0]
 157              	.LVL11:
 158 0082 D6E7     	 b .L1
 159              	.LVL12:
 160              	.L6:
 561:../Dave/Generated/UCPROBE/probe_scope.c ****                      p_sample->Val16U     = *(CPU_INT16U *)p_ch->DataAddr;
 161              	 .loc 1 561 0
 162 0084 8268     	 ldr r2,[r0,#8]
 163 0086 002A     	 cmp r2,#0
 164 0088 24D0     	 beq .L28
 564:../Dave/Generated/UCPROBE/probe_scope.c ****                      if (*(CPU_INT16U *)p_ch->DataAddr & msk.Val16U) {
 165              	 .loc 1 564 0
 166 008a 0121     	 mov r1,#1
 167 008c 0C1C     	 mov r4,r1
 168 008e 027B     	 ldrb r2,[r0,#12]
 566:../Dave/Generated/UCPROBE/probe_scope.c ****                      } else {
 169              	 .loc 1 566 0
 170 0090 0633     	 add r3,r3,#6
 171              	.LVL13:
 564:../Dave/Generated/UCPROBE/probe_scope.c ****                      if (*(CPU_INT16U *)p_ch->DataAddr & msk.Val16U) {
 172              	 .loc 1 564 0
 173 0092 9440     	 lsl r4,r4,r2
 174 0094 221C     	 mov r2,r4
 565:../Dave/Generated/UCPROBE/probe_scope.c ****                          p_sample->Val16U = 1;
 175              	 .loc 1 565 0
 176 0096 0469     	 ldr r4,[r0,#16]
 566:../Dave/Generated/UCPROBE/probe_scope.c ****                      } else {
 177              	 .loc 1 566 0
 178 0098 9B00     	 lsl r3,r3,#2
 565:../Dave/Generated/UCPROBE/probe_scope.c ****                          p_sample->Val16U = 1;
 179              	 .loc 1 565 0
 180 009a 2488     	 ldrh r4,[r4]
 181 009c 2240     	 and r2,r4
 182 009e 11D0     	 beq .L18
 183              	.L29:
 579:../Dave/Generated/UCPROBE/probe_scope.c ****                      } else {
 184              	 .loc 1 579 0
 185 00a0 1952     	 strh r1,[r3,r0]
 186              	.LVL14:
 187 00a2 C6E7     	 b .L1
 188              	.LVL15:
 189              	.L7:
 574:../Dave/Generated/UCPROBE/probe_scope.c ****                      p_sample->Val16S     = *(CPU_INT16S *)p_ch->DataAddr;
 190              	 .loc 1 574 0
 191 00a4 8268     	 ldr r2,[r0,#8]
 192 00a6 002A     	 cmp r2,#0
 193 00a8 14D0     	 beq .L28
 577:../Dave/Generated/UCPROBE/probe_scope.c ****                      if (*(CPU_INT16S *)p_ch->DataAddr & msk.Val16S) {
 194              	 .loc 1 577 0
 195 00aa 0121     	 mov r1,#1
 196 00ac 0C1C     	 mov r4,r1
 197 00ae 027B     	 ldrb r2,[r0,#12]
 579:../Dave/Generated/UCPROBE/probe_scope.c ****                      } else {
 198              	 .loc 1 579 0
 199 00b0 0633     	 add r3,r3,#6
 200              	.LVL16:
 577:../Dave/Generated/UCPROBE/probe_scope.c ****                      if (*(CPU_INT16S *)p_ch->DataAddr & msk.Val16S) {
 201              	 .loc 1 577 0
 202 00b2 9440     	 lsl r4,r4,r2
 203 00b4 221C     	 mov r2,r4
 578:../Dave/Generated/UCPROBE/probe_scope.c ****                          p_sample->Val16S = 1;
 204              	 .loc 1 578 0
 205 00b6 0469     	 ldr r4,[r0,#16]
 579:../Dave/Generated/UCPROBE/probe_scope.c ****                      } else {
 206              	 .loc 1 579 0
 207 00b8 9B00     	 lsl r3,r3,#2
 578:../Dave/Generated/UCPROBE/probe_scope.c ****                          p_sample->Val16S = 1;
 208              	 .loc 1 578 0
 209 00ba 2488     	 ldrh r4,[r4]
 210 00bc 2240     	 and r2,r4
 211 00be 12B2     	 sxth r2,r2
 212 00c0 002A     	 cmp r2,#0
 213 00c2 EDD1     	 bne .L29
 214              	.L18:
 581:../Dave/Generated/UCPROBE/probe_scope.c ****                      }
 215              	 .loc 1 581 0
 216 00c4 1A52     	 strh r2,[r3,r0]
 217              	.LVL17:
 218 00c6 B4E7     	 b .L1
 219              	.LVL18:
 220              	.L33:
 603:../Dave/Generated/UCPROBE/probe_scope.c ****                  } else {
 221              	 .loc 1 603 0
 222 00c8 0269     	 ldr r2,[r0,#16]
 223 00ca 0633     	 add r3,r3,#6
 224              	.LVL19:
 225 00cc 1268     	 ldr r2,[r2]
 226 00ce 9B00     	 lsl r3,r3,#2
 227 00d0 1A50     	 str r2,[r3,r0]
 228              	.LVL20:
 229 00d2 AEE7     	 b .L1
 230              	.LVL21:
 231              	.L28:
 575:../Dave/Generated/UCPROBE/probe_scope.c ****                  } else {
 232              	 .loc 1 575 0
 233 00d4 0269     	 ldr r2,[r0,#16]
 234 00d6 0633     	 add r3,r3,#6
 235              	.LVL22:
 236 00d8 1288     	 ldrh r2,[r2]
 237 00da 9B00     	 lsl r3,r3,#2
 238 00dc 1A52     	 strh r2,[r3,r0]
 239              	.LVL23:
 240 00de A8E7     	 b .L1
 241              	.LVL24:
 242              	.L23:
 548:../Dave/Generated/UCPROBE/probe_scope.c ****                  } else {
 243              	 .loc 1 548 0
 244 00e0 0269     	 ldr r2,[r0,#16]
 245 00e2 0633     	 add r3,r3,#6
 246              	.LVL25:
 247 00e4 1278     	 ldrb r2,[r2]
 248 00e6 9B00     	 lsl r3,r3,#2
 249 00e8 1A54     	 strb r2,[r3,r0]
 250              	.LVL26:
 251 00ea A2E7     	 b .L1
 252              	.LVL27:
 253              	.L22:
 609:../Dave/Generated/UCPROBE/probe_scope.c ****                      }
 254              	 .loc 1 609 0
 255 00ec 1A50     	 str r2,[r3,r0]
 256              	.LVL28:
 257 00ee A0E7     	 b .L1
 258              	.L35:
 259              	 .align 2
 260              	.L34:
 261 00f0 00000000 	 .word .LANCHOR0
 262 00f4 00000000 	 .word .L4
 263              	 .cfi_endproc
 264              	.LFE9:
 266              	 .global __aeabi_fcmplt
 267              	 .global __aeabi_fcmple
 268              	 .global __aeabi_fcmpge
 269              	 .global __aeabi_fcmpgt
 270              	 .section .text.ProbeScope_ModeTrig.part.1,"ax",%progbits
 271              	 .align 2
 272              	 .code 16
 273              	 .thumb_func
 275              	ProbeScope_ModeTrig.part.1:
 276              	.LFB10:
 392:../Dave/Generated/UCPROBE/probe_scope.c **** {
 277              	 .loc 1 392 0
 278              	 .cfi_startproc
 279 0000 F8B5     	 push {r3,r4,r5,r6,r7,lr}
 280              	.LCFI1:
 281              	 .cfi_def_cfa_offset 24
 282              	 .cfi_offset 3,-24
 283              	 .cfi_offset 4,-20
 284              	 .cfi_offset 5,-16
 285              	 .cfi_offset 6,-12
 286              	 .cfi_offset 7,-8
 287              	 .cfi_offset 14,-4
 288 0002 5F46     	 mov r7,fp
 289 0004 5646     	 mov r6,r10
 290 0006 4D46     	 mov r5,r9
 291 0008 4446     	 mov r4,r8
 397:../Dave/Generated/UCPROBE/probe_scope.c ****             ProbeScope_SamplingClkDiv =  1;
 292              	 .loc 1 397 0
 293 000a BA4A     	 ldr r2,.L205
 392:../Dave/Generated/UCPROBE/probe_scope.c **** {
 294              	 .loc 1 392 0
 295 000c F0B4     	 push {r4,r5,r6,r7}
 296              	.LCFI2:
 297              	 .cfi_def_cfa_offset 40
 298              	 .cfi_offset 8,-40
 299              	 .cfi_offset 9,-36
 300              	 .cfi_offset 10,-32
 301              	 .cfi_offset 11,-28
 397:../Dave/Generated/UCPROBE/probe_scope.c ****             ProbeScope_SamplingClkDiv =  1;
 302              	 .loc 1 397 0
 303 000e 1388     	 ldrh r3,[r2]
 304 0010 002B     	 cmp r3,#0
 305 0012 01D1     	 bne .L37
 398:../Dave/Generated/UCPROBE/probe_scope.c ****         }
 306              	 .loc 1 398 0
 307 0014 0133     	 add r3,r3,#1
 308 0016 1380     	 strh r3,[r2]
 309              	.L37:
 400:../Dave/Generated/UCPROBE/probe_scope.c ****         switch (ProbeScope_State) {
 310              	 .loc 1 400 0
 311 0018 B74A     	 ldr r2,.L205+4
 401:../Dave/Generated/UCPROBE/probe_scope.c ****             case PROBE_SCOPE_STATE_START:
 312              	 .loc 1 401 0
 313 001a B84C     	 ldr r4,.L205+8
 400:../Dave/Generated/UCPROBE/probe_scope.c ****         switch (ProbeScope_State) {
 314              	 .loc 1 400 0
 315 001c 1380     	 strh r3,[r2]
 401:../Dave/Generated/UCPROBE/probe_scope.c ****             case PROBE_SCOPE_STATE_START:
 316              	 .loc 1 401 0
 317 001e 2378     	 ldrb r3,[r4]
 318 0020 012B     	 cmp r3,#1
 319 0022 00D1     	 bne .LCB282
 320 0024 92E0     	 b .L39
 321              	.LCB282:
 322 0026 002B     	 cmp r3,#0
 323 0028 6CD0     	 beq .L40
 324 002a 022B     	 cmp r3,#2
 325 002c 31D0     	 beq .L41
 326 002e 032B     	 cmp r3,#3
 327 0030 60D1     	 bne .L185
 447:../Dave/Generated/UCPROBE/probe_scope.c ****                      ProbeScope_TrigHoldOffCtr--;                                   
 328              	 .loc 1 447 0
 329 0032 B34A     	 ldr r2,.L205+12
 330 0034 1368     	 ldr r3,[r2]
 331 0036 002B     	 cmp r3,#0
 332 0038 00D0     	 beq .LCB292
 333 003a B7E0     	 b .L165
 334              	.LCB292:
 450:../Dave/Generated/UCPROBE/probe_scope.c ****                          ProbeScope_TrigFlag          = 0;
 335              	 .loc 1 450 0
 336 003c B14B     	 ldr r3,.L205+16
 337 003e 1B68     	 ldr r3,[r3]
 338 0040 002B     	 cmp r3,#0
 339 0042 59D1     	 bne .L36
 451:../Dave/Generated/UCPROBE/probe_scope.c ****                          ProbeScope_SamplesPreTrigCtr = ProbeScope_TrigDispPos;     // Minimum numb
 340              	 .loc 1 451 0
 341 0044 B04A     	 ldr r2,.L205+20
 342              	.LBB84:
 343              	.LBB85:
 344              	.LBB86:
 345              	.LBB87:
 530:../Dave/Generated/UCPROBE/probe_scope.c ****         p_sample = &p_ch->Samples[ProbeScope_SampleIxCur];          // Point to current position in
 346              	 .loc 1 530 0
 347 0046 B148     	 ldr r0,.L205+24
 348              	.LBE87:
 349              	.LBE86:
 350              	.LBE85:
 351              	.LBE84:
 451:../Dave/Generated/UCPROBE/probe_scope.c ****                          ProbeScope_SamplesPreTrigCtr = ProbeScope_TrigDispPos;     // Minimum numb
 352              	 .loc 1 451 0
 353 0048 1360     	 str r3,[r2]
 452:../Dave/Generated/UCPROBE/probe_scope.c ****                          ProbeScope_State             = PROBE_SCOPE_STATE_SAMPLING_PRE_TRIG;
 354              	 .loc 1 452 0
 355 004a B14B     	 ldr r3,.L205+28
 356 004c 1A68     	 ldr r2,[r3]
 357 004e B14B     	 ldr r3,.L205+32
 358 0050 1A60     	 str r2,[r3]
 453:../Dave/Generated/UCPROBE/probe_scope.c ****                          ProbeScope_SampleChAll();                                  // Get the firs
 359              	 .loc 1 453 0
 360 0052 0123     	 mov r3,#1
 361 0054 2370     	 strb r3,[r4]
 362              	.LVL29:
 363              	.LBB106:
 364              	.LBB104:
 365              	.LBB90:
 366              	.LBB88:
 530:../Dave/Generated/UCPROBE/probe_scope.c ****         p_sample = &p_ch->Samples[ProbeScope_SampleIxCur];          // Point to current position in
 367              	 .loc 1 530 0
 368 0056 0368     	 ldr r3,[r0]
 369 0058 012B     	 cmp r3,#1
 370 005a 00D1     	 bne .LCB322
 371 005c E8E1     	 b .L186
 372              	.LCB322:
 373              	.L110:
 374              	.LVL30:
 375              	.LBE88:
 376              	.LBE90:
 377              	.LBB91:
 378              	.LBB92:
 379 005e AE48     	 ldr r0,.L205+36
 380 0060 0368     	 ldr r3,[r0]
 381 0062 012B     	 cmp r3,#1
 382 0064 00D1     	 bne .LCB333
 383 0066 E0E1     	 b .L187
 384              	.LCB333:
 385              	.L111:
 386              	.LVL31:
 387              	.LBE92:
 388              	.LBE91:
 389              	.LBB94:
 390              	.LBB95:
 391 0068 AC48     	 ldr r0,.L205+40
 392 006a 0368     	 ldr r3,[r0]
 393 006c 012B     	 cmp r3,#1
 394 006e 00D1     	 bne .LCB344
 395 0070 D8E1     	 b .L188
 396              	.LCB344:
 397              	.L112:
 398              	.LVL32:
 399              	.LBE95:
 400              	.LBE94:
 401              	.LBB97:
 402              	.LBB98:
 403 0072 AB48     	 ldr r0,.L205+44
 404 0074 0368     	 ldr r3,[r0]
 405 0076 012B     	 cmp r3,#1
 406 0078 00D1     	 bne .LCB355
 407 007a D0E1     	 b .L189
 408              	.LCB355:
 409              	.L113:
 410              	.LBE98:
 411              	.LBE97:
 412              	.LBE104:
 413              	.LBE106:
 414              	.LBB107:
 415              	.LBB108:
 621:../Dave/Generated/UCPROBE/probe_scope.c **** 
 622:../Dave/Generated/UCPROBE/probe_scope.c **** 
 623:../Dave/Generated/UCPROBE/probe_scope.c **** /*
 624:../Dave/Generated/UCPROBE/probe_scope.c **** ***************************************************************************************************
 625:../Dave/Generated/UCPROBE/probe_scope.c **** *                                         Position Sample Index for next sample
 626:../Dave/Generated/UCPROBE/probe_scope.c **** *
 627:../Dave/Generated/UCPROBE/probe_scope.c **** * Description: 
 628:../Dave/Generated/UCPROBE/probe_scope.c **** *
 629:../Dave/Generated/UCPROBE/probe_scope.c **** * Arguments  : none
 630:../Dave/Generated/UCPROBE/probe_scope.c **** * Returns    : none
 631:../Dave/Generated/UCPROBE/probe_scope.c **** ***************************************************************************************************
 632:../Dave/Generated/UCPROBE/probe_scope.c **** */
 633:../Dave/Generated/UCPROBE/probe_scope.c **** 
 634:../Dave/Generated/UCPROBE/probe_scope.c **** PROBE_SCOPE_RAM_FUNC static  void  ProbeScope_SamplePosNext (void);
 635:../Dave/Generated/UCPROBE/probe_scope.c **** static  void  ProbeScope_SamplePosNext (void)
 636:../Dave/Generated/UCPROBE/probe_scope.c **** {
 637:../Dave/Generated/UCPROBE/probe_scope.c ****     ProbeScope_SampleIxPrev = ProbeScope_SampleIxCur;              // Update the position of the pr
 416              	 .loc 1 637 0
 417 007c A94A     	 ldr r2,.L205+48
 418 007e AA49     	 ldr r1,.L205+52
 419 0080 1368     	 ldr r3,[r2]
 420 0082 0B60     	 str r3,[r1]
 638:../Dave/Generated/UCPROBE/probe_scope.c ****     ProbeScope_SampleIxCur++;                                      // Position to where next sample
 639:../Dave/Generated/UCPROBE/probe_scope.c ****     if (ProbeScope_SampleIxCur >= PROBE_SCOPE_MAX_SAMPLES) {       // See if we need to wrap around
 421              	 .loc 1 639 0
 422 0084 A949     	 ldr r1,.L205+56
 638:../Dave/Generated/UCPROBE/probe_scope.c ****     ProbeScope_SampleIxCur++;                                      // Position to where next sample
 423              	 .loc 1 638 0
 424 0086 0133     	 add r3,r3,#1
 425              	 .loc 1 639 0
 426 0088 8B42     	 cmp r3,r1
 427 008a 00D9     	 bls .L164
 640:../Dave/Generated/UCPROBE/probe_scope.c ****         ProbeScope_SampleIxCur = 0;                                // yes
 428              	 .loc 1 640 0
 429 008c 0023     	 mov r3,#0
 430              	.L164:
 431 008e 1360     	 str r3,[r2]
 432 0090 32E0     	 b .L36
 433              	.LVL33:
 434              	.L41:
 435              	.LBE108:
 436              	.LBE107:
 437              	.LBB109:
 438              	.LBB110:
 439              	.LBB111:
 440              	.LBB112:
 530:../Dave/Generated/UCPROBE/probe_scope.c ****         p_sample = &p_ch->Samples[ProbeScope_SampleIxCur];          // Point to current position in
 441              	 .loc 1 530 0
 442 0092 9E48     	 ldr r0,.L205+24
 443 0094 0368     	 ldr r3,[r0]
 444 0096 012B     	 cmp r3,#1
 445 0098 00D1     	 bne .LCB394
 446 009a C1E0     	 b .L190
 447              	.LCB394:
 448              	.L99:
 449              	.LVL34:
 450              	.LBE112:
 451              	.LBE111:
 452              	.LBB114:
 453              	.LBB115:
 454 009c 9E48     	 ldr r0,.L205+36
 455 009e 0368     	 ldr r3,[r0]
 456 00a0 012B     	 cmp r3,#1
 457 00a2 00D1     	 bne .LCB405
 458 00a4 B6E0     	 b .L191
 459              	.LCB405:
 460              	.L100:
 461              	.LVL35:
 462              	.LBE115:
 463              	.LBE114:
 464              	.LBB117:
 465              	.LBB118:
 466 00a6 9D48     	 ldr r0,.L205+40
 467 00a8 0368     	 ldr r3,[r0]
 468 00aa 012B     	 cmp r3,#1
 469 00ac 00D1     	 bne .LCB416
 470 00ae B4E0     	 b .L192
 471              	.LCB416:
 472              	.L101:
 473              	.LVL36:
 474              	.LBE118:
 475              	.LBE117:
 476              	.LBB120:
 477              	.LBB121:
 478 00b0 9B48     	 ldr r0,.L205+44
 479 00b2 0368     	 ldr r3,[r0]
 480 00b4 012B     	 cmp r3,#1
 481 00b6 00D1     	 bne .LCB427
 482 00b8 9CE0     	 b .L193
 483              	.LCB427:
 484              	.L102:
 485              	.LBE121:
 486              	.LBE120:
 487              	.LBE110:
 488              	.LBE109:
 489              	.LBB129:
 490              	.LBB130:
 637:../Dave/Generated/UCPROBE/probe_scope.c ****     ProbeScope_SampleIxCur++;                                      // Position to where next sample
 491              	 .loc 1 637 0
 492 00ba 9A4A     	 ldr r2,.L205+48
 493 00bc 9A49     	 ldr r1,.L205+52
 494 00be 1368     	 ldr r3,[r2]
 495 00c0 0B60     	 str r3,[r1]
 639:../Dave/Generated/UCPROBE/probe_scope.c ****         ProbeScope_SampleIxCur = 0;                                // yes
 496              	 .loc 1 639 0
 497 00c2 9A49     	 ldr r1,.L205+56
 638:../Dave/Generated/UCPROBE/probe_scope.c ****     if (ProbeScope_SampleIxCur >= PROBE_SCOPE_MAX_SAMPLES) {       // See if we need to wrap around
 498              	 .loc 1 638 0
 499 00c4 0133     	 add r3,r3,#1
 639:../Dave/Generated/UCPROBE/probe_scope.c ****         ProbeScope_SampleIxCur = 0;                                // yes
 500              	 .loc 1 639 0
 501 00c6 8B42     	 cmp r3,r1
 502 00c8 00D9     	 bls .L163
 503              	 .loc 1 640 0
 504 00ca 0023     	 mov r3,#0
 505              	.L163:
 506 00cc 1360     	 str r3,[r2]
 507              	.LBE130:
 508              	.LBE129:
 432:../Dave/Generated/UCPROBE/probe_scope.c ****                      ProbeScope_SamplesPostTrigCtr--;
 509              	 .loc 1 432 0
 510 00ce 984A     	 ldr r2,.L205+60
 511 00d0 1368     	 ldr r3,[r2]
 512 00d2 002B     	 cmp r3,#0
 513 00d4 6AD1     	 bne .L165
 435:../Dave/Generated/UCPROBE/probe_scope.c ****                          ProbeScope_Mode           = PROBE_SCOPE_MODE_OFF;
 514              	 .loc 1 435 0
 515 00d6 974A     	 ldr r2,.L205+64
 516 00d8 1178     	 ldrb r1,[r2]
 517 00da 0129     	 cmp r1,#1
 518 00dc 00D1     	 bne .LCB456
 519 00de 96E1     	 b .L194
 520              	.LCB456:
 439:../Dave/Generated/UCPROBE/probe_scope.c ****                          ProbeScope_State          = PROBE_SCOPE_STATE_DATA_RDY;    
 521              	 .loc 1 439 0
 522 00e0 954B     	 ldr r3,.L205+68
 523 00e2 1A68     	 ldr r2,[r3]
 524 00e4 864B     	 ldr r3,.L205+12
 525 00e6 1A60     	 str r2,[r3]
 440:../Dave/Generated/UCPROBE/probe_scope.c ****                      }                                                              
 526              	 .loc 1 440 0
 527 00e8 0323     	 mov r3,#3
 528              	.L107:
 442:../Dave/Generated/UCPROBE/probe_scope.c ****                  }                                                                  
 529              	 .loc 1 442 0
 530 00ea 0122     	 mov r2,#1
 531 00ec 2370     	 strb r3,[r4]
 532 00ee 854B     	 ldr r3,.L205+16
 533 00f0 1A60     	 str r2,[r3]
 534 00f2 01E0     	 b .L36
 535              	.LVL37:
 536              	.L185:
 461:../Dave/Generated/UCPROBE/probe_scope.c ****                  break;
 537              	 .loc 1 461 0
 538 00f4 0023     	 mov r3,#0
 539 00f6 2370     	 strb r3,[r4]
 540              	.L36:
 465:../Dave/Generated/UCPROBE/probe_scope.c **** 
 541              	 .loc 1 465 0
 542              	 
 543 00f8 3CBC     	 pop {r2,r3,r4,r5}
 544 00fa 9046     	 mov r8,r2
 545 00fc 9946     	 mov r9,r3
 546 00fe A246     	 mov r10,r4
 547 0100 AB46     	 mov fp,r5
 548 0102 F8BD     	 pop {r3,r4,r5,r6,r7,pc}
 549              	.L40:
 403:../Dave/Generated/UCPROBE/probe_scope.c ****                  ProbeScope_TrigFlag           = 0;
 550              	 .loc 1 403 0
 551 0104 7F4A     	 ldr r2,.L205+16
 406:../Dave/Generated/UCPROBE/probe_scope.c ****                  ProbeScope_TrigHoldOffCtr     = 0;
 552              	 .loc 1 406 0
 553 0106 874D     	 ldr r5,.L205+48
 403:../Dave/Generated/UCPROBE/probe_scope.c ****                  ProbeScope_TrigFlag           = 0;
 554              	 .loc 1 403 0
 555 0108 1360     	 str r3,[r2]
 404:../Dave/Generated/UCPROBE/probe_scope.c ****                  ProbeScope_SampleIxPrev       = 0;
 556              	 .loc 1 404 0
 557 010a 7F4A     	 ldr r2,.L205+20
 406:../Dave/Generated/UCPROBE/probe_scope.c ****                  ProbeScope_TrigHoldOffCtr     = 0;
 558              	 .loc 1 406 0
 559 010c 2B60     	 str r3,[r5]
 404:../Dave/Generated/UCPROBE/probe_scope.c ****                  ProbeScope_SampleIxPrev       = 0;
 560              	 .loc 1 404 0
 561 010e 1360     	 str r3,[r2]
 405:../Dave/Generated/UCPROBE/probe_scope.c ****                  ProbeScope_SampleIxCur        = 0;
 562              	 .loc 1 405 0
 563 0110 854A     	 ldr r2,.L205+52
 564              	.LBB131:
 565              	.LBB132:
 566              	.LBB133:
 567              	.LBB134:
 530:../Dave/Generated/UCPROBE/probe_scope.c ****         p_sample = &p_ch->Samples[ProbeScope_SampleIxCur];          // Point to current position in
 568              	 .loc 1 530 0
 569 0112 7E48     	 ldr r0,.L205+24
 570              	.LBE134:
 571              	.LBE133:
 572              	.LBE132:
 573              	.LBE131:
 405:../Dave/Generated/UCPROBE/probe_scope.c ****                  ProbeScope_SampleIxCur        = 0;
 574              	 .loc 1 405 0
 575 0114 1360     	 str r3,[r2]
 407:../Dave/Generated/UCPROBE/probe_scope.c ****                  ProbeScope_SamplesPostTrigCtr = 0;
 576              	 .loc 1 407 0
 577 0116 7A4A     	 ldr r2,.L205+12
 578 0118 1360     	 str r3,[r2]
 408:../Dave/Generated/UCPROBE/probe_scope.c ****                  ProbeScope_SamplesPreTrigCtr  = ProbeScope_TrigDispPos;            // Minimum numb
 579              	 .loc 1 408 0
 580 011a 854A     	 ldr r2,.L205+60
 581 011c 1360     	 str r3,[r2]
 409:../Dave/Generated/UCPROBE/probe_scope.c ****                  ProbeScope_SampleChAll();                                          // Get the firs
 582              	 .loc 1 409 0
 583 011e 7C4B     	 ldr r3,.L205+28
 584 0120 1A68     	 ldr r2,[r3]
 585 0122 7C4B     	 ldr r3,.L205+32
 586 0124 1A60     	 str r2,[r3]
 587              	.LVL38:
 588              	.LBB154:
 589              	.LBB151:
 590              	.LBB137:
 591              	.LBB135:
 530:../Dave/Generated/UCPROBE/probe_scope.c ****         p_sample = &p_ch->Samples[ProbeScope_SampleIxCur];          // Point to current position in
 592              	 .loc 1 530 0
 593 0126 0368     	 ldr r3,[r0]
 594 0128 012B     	 cmp r3,#1
 595 012a 6AD0     	 beq .L195
 596              	.L43:
 597              	.LVL39:
 598              	.LBE135:
 599              	.LBE137:
 600              	.LBB138:
 601              	.LBB139:
 602 012c 7A48     	 ldr r0,.L205+36
 603 012e 0368     	 ldr r3,[r0]
 604 0130 012B     	 cmp r3,#1
 605 0132 69D0     	 beq .L196
 606              	.L44:
 607              	.LVL40:
 608              	.LBE139:
 609              	.LBE138:
 610              	.LBB141:
 611              	.LBB142:
 612 0134 7948     	 ldr r0,.L205+40
 613 0136 0368     	 ldr r3,[r0]
 614 0138 012B     	 cmp r3,#1
 615 013a 68D0     	 beq .L197
 616              	.L45:
 617              	.LVL41:
 618              	.LBE142:
 619              	.LBE141:
 620              	.LBB144:
 621              	.LBB145:
 622 013c 7848     	 ldr r0,.L205+44
 623 013e 0368     	 ldr r3,[r0]
 624 0140 012B     	 cmp r3,#1
 625 0142 54D0     	 beq .L198
 626              	.L46:
 627              	.LBE145:
 628              	.LBE144:
 629              	.LBE151:
 630              	.LBE154:
 631              	.LBB155:
 632              	.LBB156:
 638:../Dave/Generated/UCPROBE/probe_scope.c ****     if (ProbeScope_SampleIxCur >= PROBE_SCOPE_MAX_SAMPLES) {       // See if we need to wrap around
 633              	 .loc 1 638 0
 634 0144 0123     	 mov r3,#1
 635 0146 2B60     	 str r3,[r5]
 636              	.LBE156:
 637              	.LBE155:
 412:../Dave/Generated/UCPROBE/probe_scope.c ****                  break;
 638              	 .loc 1 412 0
 639 0148 2370     	 strb r3,[r4]
 640 014a D5E7     	 b .L36
 641              	.LVL42:
 642              	.L39:
 643              	.LBB157:
 644              	.LBB158:
 645              	.LBB159:
 646              	.LBB160:
 530:../Dave/Generated/UCPROBE/probe_scope.c ****         p_sample = &p_ch->Samples[ProbeScope_SampleIxCur];          // Point to current position in
 647              	 .loc 1 530 0
 648 014c 6F4F     	 ldr r7,.L205+24
 649 014e 3B68     	 ldr r3,[r7]
 650 0150 012B     	 cmp r3,#1
 651 0152 70D0     	 beq .L199
 652              	.L48:
 653              	.LVL43:
 654              	.LBE160:
 655              	.LBE159:
 656              	.LBB162:
 657              	.LBB163:
 658 0154 704B     	 ldr r3,.L205+36
 659 0156 9846     	 mov r8,r3
 660 0158 1B68     	 ldr r3,[r3]
 661 015a 012B     	 cmp r3,#1
 662 015c 63D0     	 beq .L200
 663              	.L49:
 664              	.LVL44:
 665              	.LBE163:
 666              	.LBE162:
 667              	.LBB165:
 668              	.LBB166:
 669 015e 6F4D     	 ldr r5,.L205+40
 670 0160 2B68     	 ldr r3,[r5]
 671 0162 012B     	 cmp r3,#1
 672 0164 63D0     	 beq .L201
 673              	.L50:
 674              	.LVL45:
 675              	.LBE166:
 676              	.LBE165:
 677              	.LBB168:
 678              	.LBB169:
 679 0166 6E4E     	 ldr r6,.L205+44
 680 0168 3368     	 ldr r3,[r6]
 681 016a 012B     	 cmp r3,#1
 682 016c 45D0     	 beq .L202
 683              	.L51:
 684              	.LBE169:
 685              	.LBE168:
 686              	.LBE158:
 687              	.LBE157:
 417:../Dave/Generated/UCPROBE/probe_scope.c ****                      ProbeScope_SamplesPreTrigCtr--;                               
 688              	 .loc 1 417 0
 689 016e 694A     	 ldr r2,.L205+32
 690 0170 1368     	 ldr r3,[r2]
 691 0172 002B     	 cmp r3,#0
 692 0174 1DD0     	 beq .L52
 418:../Dave/Generated/UCPROBE/probe_scope.c ****                  } else {
 693              	 .loc 1 418 0
 694 0176 013B     	 sub r3,r3,#1
 695 0178 1360     	 str r3,[r2]
 696 017a 6B4B     	 ldr r3,.L205+52
 697 017c 694D     	 ldr r5,.L205+48
 698 017e 9946     	 mov r9,r3
 699 0180 2E68     	 ldr r6,[r5]
 700 0182 614F     	 ldr r7,.L205+20
 701              	.L53:
 702              	.LBB177:
 703              	.LBB178:
 637:../Dave/Generated/UCPROBE/probe_scope.c ****     ProbeScope_SampleIxCur++;                                      // Position to where next sample
 704              	 .loc 1 637 0
 705 0184 4B46     	 mov r3,r9
 706 0186 1E60     	 str r6,[r3]
 639:../Dave/Generated/UCPROBE/probe_scope.c ****         ProbeScope_SampleIxCur = 0;                                // yes
 707              	 .loc 1 639 0
 708 0188 684B     	 ldr r3,.L205+56
 638:../Dave/Generated/UCPROBE/probe_scope.c ****     if (ProbeScope_SampleIxCur >= PROBE_SCOPE_MAX_SAMPLES) {       // See if we need to wrap around
 709              	 .loc 1 638 0
 710 018a 0136     	 add r6,r6,#1
 639:../Dave/Generated/UCPROBE/probe_scope.c ****         ProbeScope_SampleIxCur = 0;                                // yes
 711              	 .loc 1 639 0
 712 018c 9E42     	 cmp r6,r3
 713 018e 2BD8     	 bhi .L96
 638:../Dave/Generated/UCPROBE/probe_scope.c ****     if (ProbeScope_SampleIxCur >= PROBE_SCOPE_MAX_SAMPLES) {       // See if we need to wrap around
 714              	 .loc 1 638 0
 715 0190 2E60     	 str r6,[r5]
 716              	.L97:
 717              	.LBE178:
 718              	.LBE177:
 423:../Dave/Generated/UCPROBE/probe_scope.c ****                      ProbeScope_SamplesPostTrigCtr = PROBE_SCOPE_MAX_SAMPLES - ProbeScope_TrigDispP
 719              	 .loc 1 423 0
 720 0192 3B68     	 ldr r3,[r7]
 721 0194 012B     	 cmp r3,#1
 722 0196 AFD1     	 bne .L36
 424:../Dave/Generated/UCPROBE/probe_scope.c ****                      ProbeScope_State              = PROBE_SCOPE_STATE_SAMPLING_POST_TRIG;
 723              	 .loc 1 424 0
 724 0198 5D4B     	 ldr r3,.L205+28
 725 019a 1A68     	 ldr r2,[r3]
 726 019c FF23     	 mov r3,#255
 727 019e 5B00     	 lsl r3,r3,#1
 728 01a0 9B1A     	 sub r3,r3,r2
 729 01a2 634A     	 ldr r2,.L205+60
 730 01a4 1360     	 str r3,[r2]
 425:../Dave/Generated/UCPROBE/probe_scope.c ****                  }
 731              	 .loc 1 425 0
 732 01a6 0223     	 mov r3,#2
 733 01a8 2370     	 strb r3,[r4]
 734 01aa A5E7     	 b .L36
 735              	.LVL46:
 736              	.L165:
 448:../Dave/Generated/UCPROBE/probe_scope.c ****                  } else {                                                           
 737              	 .loc 1 448 0
 738 01ac 013B     	 sub r3,r3,#1
 739 01ae 1360     	 str r3,[r2]
 740 01b0 A2E7     	 b .L36
 741              	.LVL47:
 742              	.L52:
 743              	.LBB180:
 744              	.LBB181:
 641:../Dave/Generated/UCPROBE/probe_scope.c ****     }
 642:../Dave/Generated/UCPROBE/probe_scope.c **** }
 643:../Dave/Generated/UCPROBE/probe_scope.c **** 
 644:../Dave/Generated/UCPROBE/probe_scope.c **** /*
 645:../Dave/Generated/UCPROBE/probe_scope.c **** ***************************************************************************************************
 646:../Dave/Generated/UCPROBE/probe_scope.c **** *                                                    ProbeScope_IsTrig()
 647:../Dave/Generated/UCPROBE/probe_scope.c **** *
 648:../Dave/Generated/UCPROBE/probe_scope.c **** * Description: This function is called to detect whether the trigger channel sees the trigger condi
 649:../Dave/Generated/UCPROBE/probe_scope.c **** *              The channel needs to be enabled as well.
 650:../Dave/Generated/UCPROBE/probe_scope.c **** *              To trigger the sampling, we must see the proper slope and the trigger level must be 
 651:../Dave/Generated/UCPROBE/probe_scope.c **** *
 652:../Dave/Generated/UCPROBE/probe_scope.c **** * Arguments  : ch      is the channel number that will be used as the trigger channel.
 653:../Dave/Generated/UCPROBE/probe_scope.c **** * Returns    : Sets ProbeScope_TrigFlag to 1 when a  trigger is detected
 654:../Dave/Generated/UCPROBE/probe_scope.c **** *              Sets ProbeScope_TrigFlag to 0 when no trigger is detected
 655:../Dave/Generated/UCPROBE/probe_scope.c **** ***************************************************************************************************
 656:../Dave/Generated/UCPROBE/probe_scope.c **** */
 657:../Dave/Generated/UCPROBE/probe_scope.c **** 
 658:../Dave/Generated/UCPROBE/probe_scope.c **** PROBE_SCOPE_RAM_FUNC static  void  ProbeScope_IsTrig (void);
 659:../Dave/Generated/UCPROBE/probe_scope.c **** static  void  ProbeScope_IsTrig (void)
 660:../Dave/Generated/UCPROBE/probe_scope.c **** {
 661:../Dave/Generated/UCPROBE/probe_scope.c ****     PROBE_SCOPE_CH          *p_ch;
 662:../Dave/Generated/UCPROBE/probe_scope.c ****     PROBE_SCOPE_CH_SAMPLE   *p_sample_prev;
 663:../Dave/Generated/UCPROBE/probe_scope.c ****     PROBE_SCOPE_CH_SAMPLE   *p_sample_cur;
 664:../Dave/Generated/UCPROBE/probe_scope.c ****     
 665:../Dave/Generated/UCPROBE/probe_scope.c **** 
 666:../Dave/Generated/UCPROBE/probe_scope.c ****     switch (ProbeScope_TrigChSel) {
 745              	 .loc 1 666 0
 746 01b2 624A     	 ldr r2,.L205+72
 747 01b4 1378     	 ldrb r3,[r2]
 748 01b6 022B     	 cmp r3,#2
 749 01b8 0AD0     	 beq .L57
 750 01ba 00D8     	 bhi .LCB694
 751 01bc 2AE1     	 b .L203
 752              	.LCB694:
 667:../Dave/Generated/UCPROBE/probe_scope.c ****         case PROBE_SCOPE_CH1:
 668:../Dave/Generated/UCPROBE/probe_scope.c ****              p_ch = &ProbeScope_Ch1;
 669:../Dave/Generated/UCPROBE/probe_scope.c ****              break;
 670:../Dave/Generated/UCPROBE/probe_scope.c ****              
 671:../Dave/Generated/UCPROBE/probe_scope.c **** #if PROBE_SCOPE_MAX_CH >= 2
 672:../Dave/Generated/UCPROBE/probe_scope.c ****         case PROBE_SCOPE_CH2:
 673:../Dave/Generated/UCPROBE/probe_scope.c ****              p_ch = &ProbeScope_Ch2;
 674:../Dave/Generated/UCPROBE/probe_scope.c ****              break;
 675:../Dave/Generated/UCPROBE/probe_scope.c **** #endif
 676:../Dave/Generated/UCPROBE/probe_scope.c ****              
 677:../Dave/Generated/UCPROBE/probe_scope.c **** #if PROBE_SCOPE_MAX_CH >= 3
 678:../Dave/Generated/UCPROBE/probe_scope.c ****         case PROBE_SCOPE_CH3:
 679:../Dave/Generated/UCPROBE/probe_scope.c ****              p_ch = &ProbeScope_Ch3;
 753              	 .loc 1 679 0
 754 01be A846     	 mov r8,r5
 666:../Dave/Generated/UCPROBE/probe_scope.c ****         case PROBE_SCOPE_CH1:
 755              	 .loc 1 666 0
 756 01c0 032B     	 cmp r3,#3
 757 01c2 05D0     	 beq .L57
 680:../Dave/Generated/UCPROBE/probe_scope.c ****              break;
 681:../Dave/Generated/UCPROBE/probe_scope.c **** #endif             
 682:../Dave/Generated/UCPROBE/probe_scope.c ****              
 683:../Dave/Generated/UCPROBE/probe_scope.c **** #if PROBE_SCOPE_MAX_CH >= 4
 684:../Dave/Generated/UCPROBE/probe_scope.c ****         case PROBE_SCOPE_CH4:
 685:../Dave/Generated/UCPROBE/probe_scope.c ****              p_ch = &ProbeScope_Ch4;
 758              	 .loc 1 685 0
 759 01c4 B046     	 mov r8,r6
 666:../Dave/Generated/UCPROBE/probe_scope.c ****         case PROBE_SCOPE_CH1:
 760              	 .loc 1 666 0
 761 01c6 042B     	 cmp r3,#4
 762 01c8 02D0     	 beq .L57
 763              	.L54:
 764              	.LVL48:
 686:../Dave/Generated/UCPROBE/probe_scope.c ****              break;
 687:../Dave/Generated/UCPROBE/probe_scope.c **** #endif
 688:../Dave/Generated/UCPROBE/probe_scope.c ****              
 689:../Dave/Generated/UCPROBE/probe_scope.c **** #if PROBE_SCOPE_MAX_CH >= 5
 690:../Dave/Generated/UCPROBE/probe_scope.c ****         case PROBE_SCOPE_CH5:
 691:../Dave/Generated/UCPROBE/probe_scope.c ****              p_ch = &ProbeScope_Ch5;
 692:../Dave/Generated/UCPROBE/probe_scope.c ****              break;
 693:../Dave/Generated/UCPROBE/probe_scope.c **** #endif
 694:../Dave/Generated/UCPROBE/probe_scope.c ****              
 695:../Dave/Generated/UCPROBE/probe_scope.c **** #if PROBE_SCOPE_MAX_CH >= 6
 696:../Dave/Generated/UCPROBE/probe_scope.c ****         case PROBE_SCOPE_CH6:
 697:../Dave/Generated/UCPROBE/probe_scope.c ****              p_ch = &ProbeScope_Ch6;
 698:../Dave/Generated/UCPROBE/probe_scope.c ****              break;
 699:../Dave/Generated/UCPROBE/probe_scope.c **** #endif             
 700:../Dave/Generated/UCPROBE/probe_scope.c ****              
 701:../Dave/Generated/UCPROBE/probe_scope.c **** #if PROBE_SCOPE_MAX_CH >= 7
 702:../Dave/Generated/UCPROBE/probe_scope.c ****         case PROBE_SCOPE_CH7:
 703:../Dave/Generated/UCPROBE/probe_scope.c ****              p_ch = &ProbeScope_Ch7;
 704:../Dave/Generated/UCPROBE/probe_scope.c ****              break;
 705:../Dave/Generated/UCPROBE/probe_scope.c **** #endif
 706:../Dave/Generated/UCPROBE/probe_scope.c ****              
 707:../Dave/Generated/UCPROBE/probe_scope.c **** #if PROBE_SCOPE_MAX_CH >= 8
 708:../Dave/Generated/UCPROBE/probe_scope.c ****         case PROBE_SCOPE_CH8:
 709:../Dave/Generated/UCPROBE/probe_scope.c ****              p_ch = &ProbeScope_Ch8;
 710:../Dave/Generated/UCPROBE/probe_scope.c ****              break;
 711:../Dave/Generated/UCPROBE/probe_scope.c **** #endif
 712:../Dave/Generated/UCPROBE/probe_scope.c ****              
 713:../Dave/Generated/UCPROBE/probe_scope.c ****         default:
 714:../Dave/Generated/UCPROBE/probe_scope.c ****              p_ch                 = &ProbeScope_Ch1;
 715:../Dave/Generated/UCPROBE/probe_scope.c ****              ProbeScope_TrigChSel = PROBE_SCOPE_CH1;
 765              	 .loc 1 715 0
 766 01ca 0123     	 mov r3,#1
 714:../Dave/Generated/UCPROBE/probe_scope.c ****              ProbeScope_TrigChSel = PROBE_SCOPE_CH1;
 767              	 .loc 1 714 0
 768 01cc B846     	 mov r8,r7
 769              	 .loc 1 715 0
 770 01ce 1370     	 strb r3,[r2]
 771              	.LVL49:
 772              	.L57:
 716:../Dave/Generated/UCPROBE/probe_scope.c ****              break;
 717:../Dave/Generated/UCPROBE/probe_scope.c ****     }         
 718:../Dave/Generated/UCPROBE/probe_scope.c ****     ProbeScope_TrigFlag = 0;
 773              	 .loc 1 718 0
 774 01d0 0023     	 mov r3,#0
 775 01d2 4D4F     	 ldr r7,.L205+20
 776 01d4 3B60     	 str r3,[r7]
 719:../Dave/Generated/UCPROBE/probe_scope.c ****     if (p_ch->En == 1) {
 777              	 .loc 1 719 0
 778 01d6 4346     	 mov r3,r8
 779 01d8 1B68     	 ldr r3,[r3]
 780 01da 012B     	 cmp r3,#1
 781 01dc 2FD0     	 beq .L60
 782 01de 514D     	 ldr r5,.L205+48
 783 01e0 514B     	 ldr r3,.L205+52
 784 01e2 2E68     	 ldr r6,[r5]
 785 01e4 9946     	 mov r9,r3
 786 01e6 CDE7     	 b .L53
 787              	.LVL50:
 788              	.L96:
 789              	.LBE181:
 790              	.LBE180:
 791              	.LBB185:
 792              	.LBB179:
 640:../Dave/Generated/UCPROBE/probe_scope.c ****     }
 793              	 .loc 1 640 0
 794 01e8 0023     	 mov r3,#0
 795 01ea 2B60     	 str r3,[r5]
 796 01ec D1E7     	 b .L97
 797              	.LVL51:
 798              	.L198:
 799              	.LBE179:
 800              	.LBE185:
 801              	.LBB186:
 802              	.LBB152:
 803              	.LBB147:
 804              	.LBB146:
 805 01ee FFF7FEFF 	 bl ProbeScope_SampleCh.part.0
 806              	.LVL52:
 807 01f2 A7E7     	 b .L46
 808              	.LVL53:
 809              	.L193:
 810              	.LBE146:
 811              	.LBE147:
 812              	.LBE152:
 813              	.LBE186:
 814              	.LBB187:
 815              	.LBB127:
 816              	.LBB123:
 817              	.LBB122:
 818 01f4 FFF7FEFF 	 bl ProbeScope_SampleCh.part.0
 819              	.LVL54:
 820 01f8 5FE7     	 b .L102
 821              	.LVL55:
 822              	.L202:
 823              	.LBE122:
 824              	.LBE123:
 825              	.LBE127:
 826              	.LBE187:
 827              	.LBB188:
 828              	.LBB175:
 829              	.LBB171:
 830              	.LBB170:
 831 01fa 301C     	 mov r0,r6
 832 01fc FFF7FEFF 	 bl ProbeScope_SampleCh.part.0
 833              	.LVL56:
 834 0200 B5E7     	 b .L51
 835              	.LVL57:
 836              	.L195:
 837              	.LBE170:
 838              	.LBE171:
 839              	.LBE175:
 840              	.LBE188:
 841              	.LBB189:
 842              	.LBB153:
 843              	.LBB148:
 844              	.LBB136:
 845 0202 FFF7FEFF 	 bl ProbeScope_SampleCh.part.0
 846              	.LVL58:
 847 0206 91E7     	 b .L43
 848              	.LVL59:
 849              	.L196:
 850              	.LBE136:
 851              	.LBE148:
 852              	.LBB149:
 853              	.LBB140:
 854 0208 FFF7FEFF 	 bl ProbeScope_SampleCh.part.0
 855              	.LVL60:
 856 020c 92E7     	 b .L44
 857              	.LVL61:
 858              	.L197:
 859              	.LBE140:
 860              	.LBE149:
 861              	.LBB150:
 862              	.LBB143:
 863 020e FFF7FEFF 	 bl ProbeScope_SampleCh.part.0
 864              	.LVL62:
 865 0212 93E7     	 b .L45
 866              	.LVL63:
 867              	.L191:
 868              	.LBE143:
 869              	.LBE150:
 870              	.LBE153:
 871              	.LBE189:
 872              	.LBB190:
 873              	.LBB128:
 874              	.LBB124:
 875              	.LBB116:
 876 0214 FFF7FEFF 	 bl ProbeScope_SampleCh.part.0
 877              	.LVL64:
 878 0218 45E7     	 b .L100
 879              	.LVL65:
 880              	.L192:
 881              	.LBE116:
 882              	.LBE124:
 883              	.LBB125:
 884              	.LBB119:
 885 021a FFF7FEFF 	 bl ProbeScope_SampleCh.part.0
 886              	.LVL66:
 887 021e 47E7     	 b .L101
 888              	.LVL67:
 889              	.L190:
 890              	.LBE119:
 891              	.LBE125:
 892              	.LBB126:
 893              	.LBB113:
 894 0220 FFF7FEFF 	 bl ProbeScope_SampleCh.part.0
 895              	.LVL68:
 896 0224 3AE7     	 b .L99
 897              	.LVL69:
 898              	.L200:
 899              	.LBE113:
 900              	.LBE126:
 901              	.LBE128:
 902              	.LBE190:
 903              	.LBB191:
 904              	.LBB176:
 905              	.LBB172:
 906              	.LBB164:
 907 0226 4046     	 mov r0,r8
 908 0228 FFF7FEFF 	 bl ProbeScope_SampleCh.part.0
 909              	.LVL70:
 910 022c 97E7     	 b .L49
 911              	.LVL71:
 912              	.L201:
 913              	.LBE164:
 914              	.LBE172:
 915              	.LBB173:
 916              	.LBB167:
 917 022e 281C     	 mov r0,r5
 918 0230 FFF7FEFF 	 bl ProbeScope_SampleCh.part.0
 919              	.LVL72:
 920 0234 97E7     	 b .L50
 921              	.LVL73:
 922              	.L199:
 923              	.LBE167:
 924              	.LBE173:
 925              	.LBB174:
 926              	.LBB161:
 927 0236 381C     	 mov r0,r7
 928 0238 FFF7FEFF 	 bl ProbeScope_SampleCh.part.0
 929              	.LVL74:
 930 023c 8AE7     	 b .L48
 931              	.LVL75:
 932              	.L60:
 933              	.LBE161:
 934              	.LBE174:
 935              	.LBE176:
 936              	.LBE191:
 937              	.LBB192:
 938              	.LBB182:
 720:../Dave/Generated/UCPROBE/probe_scope.c ****         p_sample_prev = &p_ch->Samples[ProbeScope_SampleIxPrev];          // Point to previous posi
 721:../Dave/Generated/UCPROBE/probe_scope.c ****         p_sample_cur  = &p_ch->Samples[ProbeScope_SampleIxCur];           // Point to current  posi
 722:../Dave/Generated/UCPROBE/probe_scope.c ****         if (ProbeScope_TrigSlope == PROBE_SCOPE_TRIG_POS) {
 939              	 .loc 1 722 0
 940 023e 404A     	 ldr r2,.L205+76
 720:../Dave/Generated/UCPROBE/probe_scope.c ****         p_sample_prev = &p_ch->Samples[ProbeScope_SampleIxPrev];          // Point to previous posi
 941              	 .loc 1 720 0
 942 0240 394B     	 ldr r3,.L205+52
 721:../Dave/Generated/UCPROBE/probe_scope.c ****         if (ProbeScope_TrigSlope == PROBE_SCOPE_TRIG_POS) {
 943              	 .loc 1 721 0
 944 0242 384D     	 ldr r5,.L205+48
 945              	 .loc 1 722 0
 946 0244 1268     	 ldr r2,[r2]
 720:../Dave/Generated/UCPROBE/probe_scope.c ****         p_sample_prev = &p_ch->Samples[ProbeScope_SampleIxPrev];          // Point to previous posi
 947              	 .loc 1 720 0
 948 0246 9946     	 mov r9,r3
 721:../Dave/Generated/UCPROBE/probe_scope.c ****         if (ProbeScope_TrigSlope == PROBE_SCOPE_TRIG_POS) {
 949              	 .loc 1 721 0
 950 0248 2E68     	 ldr r6,[r5]
 720:../Dave/Generated/UCPROBE/probe_scope.c ****         p_sample_prev = &p_ch->Samples[ProbeScope_SampleIxPrev];          // Point to previous posi
 951              	 .loc 1 720 0
 952 024a 1B68     	 ldr r3,[r3]
 953              	.LVL76:
 954              	 .loc 1 722 0
 955 024c 012A     	 cmp r2,#1
 956 024e 00D1     	 bne .LCB948
 957 0250 F1E0     	 b .L204
 958              	.LCB948:
 723:../Dave/Generated/UCPROBE/probe_scope.c ****             switch (p_ch->DataType) {
 724:../Dave/Generated/UCPROBE/probe_scope.c ****                 case PROBE_SCOPE_INT08U:
 725:../Dave/Generated/UCPROBE/probe_scope.c ****                      if (p_ch->BitEn == 0) {
 726:../Dave/Generated/UCPROBE/probe_scope.c ****                          if (p_sample_prev->Val08U < p_sample_cur->Val08U) {
 727:../Dave/Generated/UCPROBE/probe_scope.c ****                              if (p_sample_prev->Val08U <= p_ch->TrigLevel.Val08U) {
 728:../Dave/Generated/UCPROBE/probe_scope.c ****                                  if (p_sample_cur->Val08U >= p_ch->TrigLevel.Val08U) {
 729:../Dave/Generated/UCPROBE/probe_scope.c ****                                      ProbeScope_TrigFlag = 1;
 730:../Dave/Generated/UCPROBE/probe_scope.c ****                                      ProbeScope_TrigIx   = ProbeScope_SampleIxCur; 
 731:../Dave/Generated/UCPROBE/probe_scope.c ****                                  }
 732:../Dave/Generated/UCPROBE/probe_scope.c ****                              }
 733:../Dave/Generated/UCPROBE/probe_scope.c ****                          }
 734:../Dave/Generated/UCPROBE/probe_scope.c ****                      } else {
 735:../Dave/Generated/UCPROBE/probe_scope.c ****                          if (p_sample_prev->Val08U == 0) {
 736:../Dave/Generated/UCPROBE/probe_scope.c ****                              if (p_sample_cur->Val08U != 0) { 
 737:../Dave/Generated/UCPROBE/probe_scope.c ****                                  ProbeScope_TrigFlag = 1;
 738:../Dave/Generated/UCPROBE/probe_scope.c ****                                  ProbeScope_TrigIx   = ProbeScope_SampleIxCur; 
 739:../Dave/Generated/UCPROBE/probe_scope.c ****                              }
 740:../Dave/Generated/UCPROBE/probe_scope.c ****                          }
 741:../Dave/Generated/UCPROBE/probe_scope.c ****                      }
 742:../Dave/Generated/UCPROBE/probe_scope.c ****                      break;
 743:../Dave/Generated/UCPROBE/probe_scope.c ****                      
 744:../Dave/Generated/UCPROBE/probe_scope.c ****                 case PROBE_SCOPE_INT08S:
 745:../Dave/Generated/UCPROBE/probe_scope.c ****                      if (p_ch->BitEn == 0) {
 746:../Dave/Generated/UCPROBE/probe_scope.c ****                          if (p_sample_prev->Val08S < p_sample_cur->Val08S) {
 747:../Dave/Generated/UCPROBE/probe_scope.c ****                              if (p_sample_prev->Val08S <= p_ch->TrigLevel.Val08S) {
 748:../Dave/Generated/UCPROBE/probe_scope.c ****                                  if (p_sample_cur->Val08S >= p_ch->TrigLevel.Val08S) {
 749:../Dave/Generated/UCPROBE/probe_scope.c ****                                      ProbeScope_TrigFlag = 1;
 750:../Dave/Generated/UCPROBE/probe_scope.c ****                                      ProbeScope_TrigIx   = ProbeScope_SampleIxCur; 
 751:../Dave/Generated/UCPROBE/probe_scope.c ****                                  }
 752:../Dave/Generated/UCPROBE/probe_scope.c ****                              }
 753:../Dave/Generated/UCPROBE/probe_scope.c ****                          }
 754:../Dave/Generated/UCPROBE/probe_scope.c ****                      } else {
 755:../Dave/Generated/UCPROBE/probe_scope.c ****                          if (p_sample_prev->Val08S == 0) {
 756:../Dave/Generated/UCPROBE/probe_scope.c ****                              if (p_sample_cur->Val08S != 0) { 
 757:../Dave/Generated/UCPROBE/probe_scope.c ****                                  ProbeScope_TrigFlag = 1;
 758:../Dave/Generated/UCPROBE/probe_scope.c ****                                  ProbeScope_TrigIx   = ProbeScope_SampleIxCur; 
 759:../Dave/Generated/UCPROBE/probe_scope.c ****                              }
 760:../Dave/Generated/UCPROBE/probe_scope.c ****                          }
 761:../Dave/Generated/UCPROBE/probe_scope.c ****                      }
 762:../Dave/Generated/UCPROBE/probe_scope.c ****                      break;
 763:../Dave/Generated/UCPROBE/probe_scope.c **** 
 764:../Dave/Generated/UCPROBE/probe_scope.c **** #if PROBE_SCOPE_16_BIT_EN > 0                                    
 765:../Dave/Generated/UCPROBE/probe_scope.c ****                 case PROBE_SCOPE_INT16U:
 766:../Dave/Generated/UCPROBE/probe_scope.c ****                      if (p_ch->BitEn == 0) {
 767:../Dave/Generated/UCPROBE/probe_scope.c ****                          if (p_sample_prev->Val16U < p_sample_cur->Val16U) {
 768:../Dave/Generated/UCPROBE/probe_scope.c ****                              if (p_sample_prev->Val16U <= p_ch->TrigLevel.Val16U) {
 769:../Dave/Generated/UCPROBE/probe_scope.c ****                                  if (p_sample_cur->Val16U >= p_ch->TrigLevel.Val16U) {
 770:../Dave/Generated/UCPROBE/probe_scope.c ****                                      ProbeScope_TrigFlag = 1;
 771:../Dave/Generated/UCPROBE/probe_scope.c ****                                      ProbeScope_TrigIx   = ProbeScope_SampleIxCur; 
 772:../Dave/Generated/UCPROBE/probe_scope.c ****                                  }
 773:../Dave/Generated/UCPROBE/probe_scope.c ****                              }
 774:../Dave/Generated/UCPROBE/probe_scope.c ****                          }
 775:../Dave/Generated/UCPROBE/probe_scope.c ****                      } else {
 776:../Dave/Generated/UCPROBE/probe_scope.c ****                          if (p_sample_prev->Val16U == 0) {
 777:../Dave/Generated/UCPROBE/probe_scope.c ****                              if (p_sample_cur->Val16U != 0) { 
 778:../Dave/Generated/UCPROBE/probe_scope.c ****                                  ProbeScope_TrigFlag = 1;
 779:../Dave/Generated/UCPROBE/probe_scope.c ****                                  ProbeScope_TrigIx   = ProbeScope_SampleIxCur; 
 780:../Dave/Generated/UCPROBE/probe_scope.c ****                              }
 781:../Dave/Generated/UCPROBE/probe_scope.c ****                          }
 782:../Dave/Generated/UCPROBE/probe_scope.c ****                      }
 783:../Dave/Generated/UCPROBE/probe_scope.c ****                      break;
 784:../Dave/Generated/UCPROBE/probe_scope.c ****                      
 785:../Dave/Generated/UCPROBE/probe_scope.c ****                 case PROBE_SCOPE_INT16S:
 786:../Dave/Generated/UCPROBE/probe_scope.c ****                      if (p_ch->BitEn == 0) {
 787:../Dave/Generated/UCPROBE/probe_scope.c ****                          if (p_sample_prev->Val16S < p_sample_cur->Val16S) {
 788:../Dave/Generated/UCPROBE/probe_scope.c ****                              if (p_sample_prev->Val16S <= p_ch->TrigLevel.Val16S) {
 789:../Dave/Generated/UCPROBE/probe_scope.c ****                                  if (p_sample_cur->Val16S >= p_ch->TrigLevel.Val16S) {
 790:../Dave/Generated/UCPROBE/probe_scope.c ****                                      ProbeScope_TrigFlag = 1;
 791:../Dave/Generated/UCPROBE/probe_scope.c ****                                      ProbeScope_TrigIx   = ProbeScope_SampleIxCur; 
 792:../Dave/Generated/UCPROBE/probe_scope.c ****                                  }
 793:../Dave/Generated/UCPROBE/probe_scope.c ****                              }
 794:../Dave/Generated/UCPROBE/probe_scope.c ****                          }
 795:../Dave/Generated/UCPROBE/probe_scope.c ****                      } else {
 796:../Dave/Generated/UCPROBE/probe_scope.c ****                          if (p_sample_prev->Val16S == 0) {
 797:../Dave/Generated/UCPROBE/probe_scope.c ****                              if (p_sample_cur->Val16S != 0) { 
 798:../Dave/Generated/UCPROBE/probe_scope.c ****                                  ProbeScope_TrigFlag = 1;
 799:../Dave/Generated/UCPROBE/probe_scope.c ****                                  ProbeScope_TrigIx   = ProbeScope_SampleIxCur; 
 800:../Dave/Generated/UCPROBE/probe_scope.c ****                              }
 801:../Dave/Generated/UCPROBE/probe_scope.c ****                          }
 802:../Dave/Generated/UCPROBE/probe_scope.c ****                      }
 803:../Dave/Generated/UCPROBE/probe_scope.c ****                      break;
 804:../Dave/Generated/UCPROBE/probe_scope.c **** #endif
 805:../Dave/Generated/UCPROBE/probe_scope.c **** 
 806:../Dave/Generated/UCPROBE/probe_scope.c **** #if PROBE_SCOPE_32_BIT_EN > 0                                   
 807:../Dave/Generated/UCPROBE/probe_scope.c ****                 case PROBE_SCOPE_INT32U:
 808:../Dave/Generated/UCPROBE/probe_scope.c ****                      if (p_ch->BitEn == 0) {
 809:../Dave/Generated/UCPROBE/probe_scope.c ****                          if (p_sample_prev->Val32U < p_sample_cur->Val32U) {
 810:../Dave/Generated/UCPROBE/probe_scope.c ****                              if (p_sample_prev->Val32U <= p_ch->TrigLevel.Val32U) {
 811:../Dave/Generated/UCPROBE/probe_scope.c ****                                  if (p_sample_cur->Val32U >= p_ch->TrigLevel.Val32U) {
 812:../Dave/Generated/UCPROBE/probe_scope.c ****                                      ProbeScope_TrigFlag = 1;
 813:../Dave/Generated/UCPROBE/probe_scope.c ****                                      ProbeScope_TrigIx   = ProbeScope_SampleIxCur; 
 814:../Dave/Generated/UCPROBE/probe_scope.c ****                                  }
 815:../Dave/Generated/UCPROBE/probe_scope.c ****                              }
 816:../Dave/Generated/UCPROBE/probe_scope.c ****                          }
 817:../Dave/Generated/UCPROBE/probe_scope.c ****                      } else {
 818:../Dave/Generated/UCPROBE/probe_scope.c ****                          if (p_sample_prev->Val32U == 0) {
 819:../Dave/Generated/UCPROBE/probe_scope.c ****                              if (p_sample_cur->Val32U != 0) {
 820:../Dave/Generated/UCPROBE/probe_scope.c ****                                  ProbeScope_TrigFlag = 1;
 821:../Dave/Generated/UCPROBE/probe_scope.c ****                                  ProbeScope_TrigIx   = ProbeScope_SampleIxCur; 
 822:../Dave/Generated/UCPROBE/probe_scope.c ****                              }
 823:../Dave/Generated/UCPROBE/probe_scope.c ****                          }
 824:../Dave/Generated/UCPROBE/probe_scope.c ****                      }
 825:../Dave/Generated/UCPROBE/probe_scope.c ****                      break;
 826:../Dave/Generated/UCPROBE/probe_scope.c ****                      
 827:../Dave/Generated/UCPROBE/probe_scope.c ****                 case PROBE_SCOPE_INT32S:
 828:../Dave/Generated/UCPROBE/probe_scope.c ****                      if (p_ch->BitEn == 0) {
 829:../Dave/Generated/UCPROBE/probe_scope.c ****                          if (p_sample_prev->Val32S < p_sample_cur->Val32S) {
 830:../Dave/Generated/UCPROBE/probe_scope.c ****                              if (p_sample_prev->Val32S <= p_ch->TrigLevel.Val32S) {
 831:../Dave/Generated/UCPROBE/probe_scope.c ****                                  if (p_sample_cur->Val32S >= p_ch->TrigLevel.Val32S) {
 832:../Dave/Generated/UCPROBE/probe_scope.c ****                                      ProbeScope_TrigFlag = 1;
 833:../Dave/Generated/UCPROBE/probe_scope.c ****                                      ProbeScope_TrigIx   = ProbeScope_SampleIxCur; 
 834:../Dave/Generated/UCPROBE/probe_scope.c ****                                  }
 835:../Dave/Generated/UCPROBE/probe_scope.c ****                              }
 836:../Dave/Generated/UCPROBE/probe_scope.c ****                          }
 837:../Dave/Generated/UCPROBE/probe_scope.c ****                      } else {
 838:../Dave/Generated/UCPROBE/probe_scope.c ****                          if (p_sample_prev->Val32S == 0) {
 839:../Dave/Generated/UCPROBE/probe_scope.c ****                              if (p_sample_cur->Val32S != 0) {
 840:../Dave/Generated/UCPROBE/probe_scope.c ****                                  ProbeScope_TrigFlag = 1;
 841:../Dave/Generated/UCPROBE/probe_scope.c ****                                  ProbeScope_TrigIx   = ProbeScope_SampleIxCur; 
 842:../Dave/Generated/UCPROBE/probe_scope.c ****                              }
 843:../Dave/Generated/UCPROBE/probe_scope.c ****                          }
 844:../Dave/Generated/UCPROBE/probe_scope.c ****                      }
 845:../Dave/Generated/UCPROBE/probe_scope.c ****                      break;
 846:../Dave/Generated/UCPROBE/probe_scope.c ****                                     
 847:../Dave/Generated/UCPROBE/probe_scope.c ****                 case PROBE_SCOPE_FP32:
 848:../Dave/Generated/UCPROBE/probe_scope.c ****                      if (p_sample_prev->ValFP32 < p_sample_cur->ValFP32) {
 849:../Dave/Generated/UCPROBE/probe_scope.c ****                          if (p_sample_prev->ValFP32 <= p_ch->TrigLevel.ValFP32) {
 850:../Dave/Generated/UCPROBE/probe_scope.c ****                              if (p_sample_cur->ValFP32 >= p_ch->TrigLevel.ValFP32) {
 851:../Dave/Generated/UCPROBE/probe_scope.c ****                                  ProbeScope_TrigFlag = 1;
 852:../Dave/Generated/UCPROBE/probe_scope.c ****                                  ProbeScope_TrigIx   = ProbeScope_SampleIxCur; 
 853:../Dave/Generated/UCPROBE/probe_scope.c ****                              }
 854:../Dave/Generated/UCPROBE/probe_scope.c ****                          }
 855:../Dave/Generated/UCPROBE/probe_scope.c ****                      }
 856:../Dave/Generated/UCPROBE/probe_scope.c ****                      break;
 857:../Dave/Generated/UCPROBE/probe_scope.c **** #endif
 858:../Dave/Generated/UCPROBE/probe_scope.c ****             }
 859:../Dave/Generated/UCPROBE/probe_scope.c ****         } else {
 860:../Dave/Generated/UCPROBE/probe_scope.c ****             switch (p_ch->DataType) {
 959              	 .loc 1 860 0
 960 0252 4246     	 mov r2,r8
 961 0254 1279     	 ldrb r2,[r2,#4]
 962 0256 062A     	 cmp r2,#6
 963 0258 94D8     	 bhi .L53
 964 025a 3A49     	 ldr r1,.L205+80
 965 025c 9200     	 lsl r2,r2,#2
 966 025e 8A58     	 ldr r2,[r1,r2]
 967 0260 9746     	 mov pc,r2
 968              	 .section .rodata.ProbeScope_ModeTrig.part.1,"a",%progbits
 969              	 .align 2
 970              	.L80:
 971 0000 A0030000 	 .word .L79
 972 0004 74030000 	 .word .L81
 973 0008 4C030000 	 .word .L82
 974 000c C8020000 	 .word .L83
 975 0010 98020000 	 .word .L84
 976 0014 62020000 	 .word .L85
 977 0018 CA030000 	 .word .L86
 978              	 .section .text.ProbeScope_ModeTrig.part.1
 979              	.L85:
 861:../Dave/Generated/UCPROBE/probe_scope.c ****                 case PROBE_SCOPE_INT08U:
 862:../Dave/Generated/UCPROBE/probe_scope.c ****                      if (p_ch->BitEn == 0) {
 863:../Dave/Generated/UCPROBE/probe_scope.c ****                          if (p_sample_prev->Val08U > p_sample_cur->Val08U) {
 864:../Dave/Generated/UCPROBE/probe_scope.c ****                              if (p_sample_prev->Val08U >= p_ch->TrigLevel.Val08U) {
 865:../Dave/Generated/UCPROBE/probe_scope.c ****                                  if (p_sample_cur->Val08U <= p_ch->TrigLevel.Val08U) {
 866:../Dave/Generated/UCPROBE/probe_scope.c ****                                      ProbeScope_TrigFlag = 1;
 867:../Dave/Generated/UCPROBE/probe_scope.c ****                                      ProbeScope_TrigIx   = ProbeScope_SampleIxCur; 
 868:../Dave/Generated/UCPROBE/probe_scope.c ****                                  }
 869:../Dave/Generated/UCPROBE/probe_scope.c ****                              }
 870:../Dave/Generated/UCPROBE/probe_scope.c ****                          }
 871:../Dave/Generated/UCPROBE/probe_scope.c ****                      } else {
 872:../Dave/Generated/UCPROBE/probe_scope.c ****                          if (p_sample_prev->Val08U != 0) {
 873:../Dave/Generated/UCPROBE/probe_scope.c ****                              if (p_sample_cur->Val08U == 0) {
 874:../Dave/Generated/UCPROBE/probe_scope.c ****                                  ProbeScope_TrigFlag = 1;
 875:../Dave/Generated/UCPROBE/probe_scope.c ****                                  ProbeScope_TrigIx   = ProbeScope_SampleIxCur; 
 876:../Dave/Generated/UCPROBE/probe_scope.c ****                              }
 877:../Dave/Generated/UCPROBE/probe_scope.c ****                          }
 878:../Dave/Generated/UCPROBE/probe_scope.c ****                      }
 879:../Dave/Generated/UCPROBE/probe_scope.c ****                      break;
 880:../Dave/Generated/UCPROBE/probe_scope.c ****                      
 881:../Dave/Generated/UCPROBE/probe_scope.c ****                 case PROBE_SCOPE_INT08S:
 882:../Dave/Generated/UCPROBE/probe_scope.c ****                      if (p_ch->BitEn == 0) {
 883:../Dave/Generated/UCPROBE/probe_scope.c ****                          if (p_sample_prev->Val08S > p_sample_cur->Val08S) {
 884:../Dave/Generated/UCPROBE/probe_scope.c ****                              if (p_sample_prev->Val08S >= p_ch->TrigLevel.Val08S) {
 885:../Dave/Generated/UCPROBE/probe_scope.c ****                                  if (p_sample_cur->Val08S <= p_ch->TrigLevel.Val08S) {
 886:../Dave/Generated/UCPROBE/probe_scope.c ****                                      ProbeScope_TrigFlag = 1;
 887:../Dave/Generated/UCPROBE/probe_scope.c ****                                      ProbeScope_TrigIx   = ProbeScope_SampleIxCur; 
 888:../Dave/Generated/UCPROBE/probe_scope.c ****                                  }
 889:../Dave/Generated/UCPROBE/probe_scope.c ****                              }
 890:../Dave/Generated/UCPROBE/probe_scope.c ****                          }
 891:../Dave/Generated/UCPROBE/probe_scope.c ****                      } else {
 892:../Dave/Generated/UCPROBE/probe_scope.c ****                          if (p_sample_prev->Val08S != 0) {
 893:../Dave/Generated/UCPROBE/probe_scope.c ****                              if (p_sample_cur->Val08S == 0) {
 894:../Dave/Generated/UCPROBE/probe_scope.c ****                                  ProbeScope_TrigFlag = 1;
 895:../Dave/Generated/UCPROBE/probe_scope.c ****                                  ProbeScope_TrigIx   = ProbeScope_SampleIxCur; 
 896:../Dave/Generated/UCPROBE/probe_scope.c ****                              }
 897:../Dave/Generated/UCPROBE/probe_scope.c ****                          }
 898:../Dave/Generated/UCPROBE/probe_scope.c ****                      }
 899:../Dave/Generated/UCPROBE/probe_scope.c ****                      break;
 900:../Dave/Generated/UCPROBE/probe_scope.c ****                                     
 901:../Dave/Generated/UCPROBE/probe_scope.c **** #if PROBE_SCOPE_16_BIT_EN > 0                                   
 902:../Dave/Generated/UCPROBE/probe_scope.c ****                 case PROBE_SCOPE_INT16U:
 903:../Dave/Generated/UCPROBE/probe_scope.c ****                      if (p_ch->BitEn == 0) {
 904:../Dave/Generated/UCPROBE/probe_scope.c ****                          if (p_sample_prev->Val16U > p_sample_cur->Val16U) {
 905:../Dave/Generated/UCPROBE/probe_scope.c ****                              if (p_sample_prev->Val16U >= p_ch->TrigLevel.Val16U) {
 906:../Dave/Generated/UCPROBE/probe_scope.c ****                                  if (p_sample_cur->Val16U <= p_ch->TrigLevel.Val16U) {
 907:../Dave/Generated/UCPROBE/probe_scope.c ****                                      ProbeScope_TrigFlag = 1;
 908:../Dave/Generated/UCPROBE/probe_scope.c ****                                      ProbeScope_TrigIx   = ProbeScope_SampleIxCur; 
 909:../Dave/Generated/UCPROBE/probe_scope.c ****                                  }
 910:../Dave/Generated/UCPROBE/probe_scope.c ****                              }
 911:../Dave/Generated/UCPROBE/probe_scope.c ****                          }
 912:../Dave/Generated/UCPROBE/probe_scope.c ****                      } else {
 913:../Dave/Generated/UCPROBE/probe_scope.c ****                          if (p_sample_prev->Val16U != 0) {
 914:../Dave/Generated/UCPROBE/probe_scope.c ****                              if (p_sample_cur->Val16U == 0) {
 915:../Dave/Generated/UCPROBE/probe_scope.c ****                                  ProbeScope_TrigFlag = 1;
 916:../Dave/Generated/UCPROBE/probe_scope.c ****                                  ProbeScope_TrigIx   = ProbeScope_SampleIxCur; 
 917:../Dave/Generated/UCPROBE/probe_scope.c ****                              }
 918:../Dave/Generated/UCPROBE/probe_scope.c ****                          }
 919:../Dave/Generated/UCPROBE/probe_scope.c ****                      }
 920:../Dave/Generated/UCPROBE/probe_scope.c ****                      break;
 921:../Dave/Generated/UCPROBE/probe_scope.c ****                      
 922:../Dave/Generated/UCPROBE/probe_scope.c ****                 case PROBE_SCOPE_INT16S:
 923:../Dave/Generated/UCPROBE/probe_scope.c ****                      if (p_ch->BitEn == 0) {
 924:../Dave/Generated/UCPROBE/probe_scope.c ****                          if (p_sample_prev->Val16S > p_sample_cur->Val16S) {
 925:../Dave/Generated/UCPROBE/probe_scope.c ****                              if (p_sample_prev->Val16S >= p_ch->TrigLevel.Val16S) {
 926:../Dave/Generated/UCPROBE/probe_scope.c ****                                  if (p_sample_cur->Val16S <= p_ch->TrigLevel.Val16S) {
 927:../Dave/Generated/UCPROBE/probe_scope.c ****                                      ProbeScope_TrigFlag = 1;
 928:../Dave/Generated/UCPROBE/probe_scope.c ****                                      ProbeScope_TrigIx   = ProbeScope_SampleIxCur; 
 929:../Dave/Generated/UCPROBE/probe_scope.c ****                                  }
 930:../Dave/Generated/UCPROBE/probe_scope.c ****                              }
 931:../Dave/Generated/UCPROBE/probe_scope.c ****                          }
 932:../Dave/Generated/UCPROBE/probe_scope.c ****                      } else {
 933:../Dave/Generated/UCPROBE/probe_scope.c ****                          if (p_sample_prev->Val16S != 0) {
 934:../Dave/Generated/UCPROBE/probe_scope.c ****                              if (p_sample_cur->Val16S == 0) {
 935:../Dave/Generated/UCPROBE/probe_scope.c ****                                  ProbeScope_TrigFlag = 1;
 936:../Dave/Generated/UCPROBE/probe_scope.c ****                                  ProbeScope_TrigIx   = ProbeScope_SampleIxCur; 
 937:../Dave/Generated/UCPROBE/probe_scope.c ****                              }
 938:../Dave/Generated/UCPROBE/probe_scope.c ****                          }
 939:../Dave/Generated/UCPROBE/probe_scope.c ****                      }
 940:../Dave/Generated/UCPROBE/probe_scope.c ****                      break;
 941:../Dave/Generated/UCPROBE/probe_scope.c **** #endif
 942:../Dave/Generated/UCPROBE/probe_scope.c **** 
 943:../Dave/Generated/UCPROBE/probe_scope.c **** #if PROBE_SCOPE_32_BIT_EN > 0                                                                     
 944:../Dave/Generated/UCPROBE/probe_scope.c ****                 case PROBE_SCOPE_INT32U:
 945:../Dave/Generated/UCPROBE/probe_scope.c ****                      if (p_ch->BitEn == 0) {
 946:../Dave/Generated/UCPROBE/probe_scope.c ****                          if (p_sample_prev->Val32U > p_sample_cur->Val32U) {                  
 947:../Dave/Generated/UCPROBE/probe_scope.c ****                              if (p_sample_prev->Val32U >= p_ch->TrigLevel.Val32U) {
 948:../Dave/Generated/UCPROBE/probe_scope.c ****                                  if (p_sample_cur->Val32U <= p_ch->TrigLevel.Val32U) {
 949:../Dave/Generated/UCPROBE/probe_scope.c ****                                      ProbeScope_TrigFlag = 1;
 950:../Dave/Generated/UCPROBE/probe_scope.c ****                                      ProbeScope_TrigIx   = ProbeScope_SampleIxCur; 
 951:../Dave/Generated/UCPROBE/probe_scope.c ****                                  }
 952:../Dave/Generated/UCPROBE/probe_scope.c ****                              }
 953:../Dave/Generated/UCPROBE/probe_scope.c ****                          }
 954:../Dave/Generated/UCPROBE/probe_scope.c ****                      } else {
 955:../Dave/Generated/UCPROBE/probe_scope.c ****                          if (p_sample_prev->Val32U != 0) {
 956:../Dave/Generated/UCPROBE/probe_scope.c ****                              if (p_sample_cur->Val32U == 0) {
 957:../Dave/Generated/UCPROBE/probe_scope.c ****                                  ProbeScope_TrigFlag = 1;
 958:../Dave/Generated/UCPROBE/probe_scope.c ****                                  ProbeScope_TrigIx   = ProbeScope_SampleIxCur; 
 959:../Dave/Generated/UCPROBE/probe_scope.c ****                              }
 960:../Dave/Generated/UCPROBE/probe_scope.c ****                          }
 961:../Dave/Generated/UCPROBE/probe_scope.c ****                      }
 962:../Dave/Generated/UCPROBE/probe_scope.c ****                      break;
 963:../Dave/Generated/UCPROBE/probe_scope.c ****                      
 964:../Dave/Generated/UCPROBE/probe_scope.c ****                 case PROBE_SCOPE_INT32S:
 965:../Dave/Generated/UCPROBE/probe_scope.c ****                      if (p_ch->BitEn == 0) {
 980              	 .loc 1 965 0
 981 0262 4246     	 mov r2,r8
 982 0264 9268     	 ldr r2,[r2,#8]
 966:../Dave/Generated/UCPROBE/probe_scope.c ****                          if (p_sample_prev->Val32S > p_sample_cur->Val32S) {
 983              	 .loc 1 966 0
 984 0266 0633     	 add r3,r3,#6
 985              	.LVL77:
 986 0268 9B00     	 lsl r3,r3,#2
 965:../Dave/Generated/UCPROBE/probe_scope.c ****                          if (p_sample_prev->Val32S > p_sample_cur->Val32S) {
 987              	 .loc 1 965 0
 988 026a 002A     	 cmp r2,#0
 989 026c 00D0     	 beq .LCB971
 990 026e 8FE1     	 b .L92
 991              	.LCB971:
 992              	 .loc 1 966 0
 993 0270 4246     	 mov r2,r8
 994 0272 9958     	 ldr r1,[r3,r2]
 995 0274 B31D     	 add r3,r6,#6
 996 0276 9B00     	 lsl r3,r3,#2
 997 0278 9A58     	 ldr r2,[r3,r2]
 998 027a 9142     	 cmp r1,r2
 999 027c 82DD     	 ble .L53
 967:../Dave/Generated/UCPROBE/probe_scope.c ****                              if (p_sample_prev->Val32S >= p_ch->TrigLevel.Val32S) {
 1000              	 .loc 1 967 0
 1001 027e 4346     	 mov r3,r8
 1002 0280 5B69     	 ldr r3,[r3,#20]
 1003 0282 9942     	 cmp r1,r3
 1004 0284 00DA     	 bge .LCB982
 1005 0286 7DE7     	 b .L53
 1006              	.LCB982:
 1007              	.L171:
 968:../Dave/Generated/UCPROBE/probe_scope.c ****                                  if (p_sample_cur->Val32S <= p_ch->TrigLevel.Val32S) {
 1008              	 .loc 1 968 0
 1009 0288 9A42     	 cmp r2,r3
 1010 028a 00DD     	 ble .LCB988
 1011 028c 7AE7     	 b .L53
 1012              	.LCB988:
 1013              	.LVL78:
 1014              	.L162:
 969:../Dave/Generated/UCPROBE/probe_scope.c ****                                      ProbeScope_TrigFlag = 1;
 970:../Dave/Generated/UCPROBE/probe_scope.c ****                                      ProbeScope_TrigIx   = ProbeScope_SampleIxCur; 
 971:../Dave/Generated/UCPROBE/probe_scope.c ****                                  }
 972:../Dave/Generated/UCPROBE/probe_scope.c ****                              }
 973:../Dave/Generated/UCPROBE/probe_scope.c ****                          }
 974:../Dave/Generated/UCPROBE/probe_scope.c ****                      } else {
 975:../Dave/Generated/UCPROBE/probe_scope.c ****                          if (p_sample_prev->Val32S != 0) {
 976:../Dave/Generated/UCPROBE/probe_scope.c ****                              if (p_sample_cur->Val32S == 0) {
 977:../Dave/Generated/UCPROBE/probe_scope.c ****                                  ProbeScope_TrigFlag = 1;
 978:../Dave/Generated/UCPROBE/probe_scope.c ****                                  ProbeScope_TrigIx   = ProbeScope_SampleIxCur; 
 979:../Dave/Generated/UCPROBE/probe_scope.c ****                              }
 980:../Dave/Generated/UCPROBE/probe_scope.c ****                          }
 981:../Dave/Generated/UCPROBE/probe_scope.c ****                      }
 982:../Dave/Generated/UCPROBE/probe_scope.c ****                      break;
 983:../Dave/Generated/UCPROBE/probe_scope.c ****                                     
 984:../Dave/Generated/UCPROBE/probe_scope.c ****                 case PROBE_SCOPE_FP32:
 985:../Dave/Generated/UCPROBE/probe_scope.c ****                      if (p_sample_prev->ValFP32 > p_sample_cur->ValFP32) {
 986:../Dave/Generated/UCPROBE/probe_scope.c ****                          if (p_sample_prev->ValFP32 >= p_ch->TrigLevel.ValFP32) {
 987:../Dave/Generated/UCPROBE/probe_scope.c ****                              if (p_sample_cur->ValFP32 <= p_ch->TrigLevel.ValFP32) {
 988:../Dave/Generated/UCPROBE/probe_scope.c ****                                  ProbeScope_TrigFlag = 1;
 1015              	 .loc 1 988 0
 1016 028e 0123     	 mov r3,#1
 1017 0290 3B60     	 str r3,[r7]
 989:../Dave/Generated/UCPROBE/probe_scope.c ****                                  ProbeScope_TrigIx   = ProbeScope_SampleIxCur; 
 1018              	 .loc 1 989 0
 1019 0292 2D4B     	 ldr r3,.L205+84
 1020 0294 1E60     	 str r6,[r3]
 1021 0296 75E7     	 b .L53
 1022              	.LVL79:
 1023              	.L84:
 945:../Dave/Generated/UCPROBE/probe_scope.c ****                          if (p_sample_prev->Val32U > p_sample_cur->Val32U) {                  
 1024              	 .loc 1 945 0
 1025 0298 4246     	 mov r2,r8
 1026 029a 9268     	 ldr r2,[r2,#8]
 946:../Dave/Generated/UCPROBE/probe_scope.c ****                              if (p_sample_prev->Val32U >= p_ch->TrigLevel.Val32U) {
 1027              	 .loc 1 946 0
 1028 029c 0633     	 add r3,r3,#6
 1029              	.LVL80:
 1030 029e 9B00     	 lsl r3,r3,#2
 945:../Dave/Generated/UCPROBE/probe_scope.c ****                          if (p_sample_prev->Val32U > p_sample_cur->Val32U) {                  
 1031              	 .loc 1 945 0
 1032 02a0 002A     	 cmp r2,#0
 1033 02a2 00D0     	 beq .LCB1011
 1034 02a4 74E1     	 b .L92
 1035              	.LCB1011:
 946:../Dave/Generated/UCPROBE/probe_scope.c ****                              if (p_sample_prev->Val32U >= p_ch->TrigLevel.Val32U) {
 1036              	 .loc 1 946 0
 1037 02a6 4246     	 mov r2,r8
 1038 02a8 9958     	 ldr r1,[r3,r2]
 1039 02aa B31D     	 add r3,r6,#6
 1040 02ac 9B00     	 lsl r3,r3,#2
 1041 02ae 9A58     	 ldr r2,[r3,r2]
 1042 02b0 9142     	 cmp r1,r2
 1043 02b2 00D8     	 bhi .LCB1018
 1044 02b4 66E7     	 b .L53
 1045              	.LCB1018:
 947:../Dave/Generated/UCPROBE/probe_scope.c ****                                  if (p_sample_cur->Val32U <= p_ch->TrigLevel.Val32U) {
 1046              	 .loc 1 947 0
 1047 02b6 4346     	 mov r3,r8
 1048 02b8 5B69     	 ldr r3,[r3,#20]
 1049 02ba 9942     	 cmp r1,r3
 1050 02bc 00D2     	 bcs .LCB1022
 1051 02be 61E7     	 b .L53
 1052              	.LCB1022:
 1053              	.L173:
 948:../Dave/Generated/UCPROBE/probe_scope.c ****                                      ProbeScope_TrigFlag = 1;
 1054              	 .loc 1 948 0
 1055 02c0 9A42     	 cmp r2,r3
 1056 02c2 00D9     	 bls .LCB1028
 1057 02c4 5EE7     	 b .L53
 1058              	.LCB1028:
 1059 02c6 E2E7     	 b .L162
 1060              	.LVL81:
 1061              	.L83:
 923:../Dave/Generated/UCPROBE/probe_scope.c ****                          if (p_sample_prev->Val16S > p_sample_cur->Val16S) {
 1062              	 .loc 1 923 0
 1063 02c8 4246     	 mov r2,r8
 1064 02ca 9268     	 ldr r2,[r2,#8]
 924:../Dave/Generated/UCPROBE/probe_scope.c ****                              if (p_sample_prev->Val16S >= p_ch->TrigLevel.Val16S) {
 1065              	 .loc 1 924 0
 1066 02cc 0633     	 add r3,r3,#6
 1067              	.LVL82:
 1068 02ce 9B00     	 lsl r3,r3,#2
 923:../Dave/Generated/UCPROBE/probe_scope.c ****                          if (p_sample_prev->Val16S > p_sample_cur->Val16S) {
 1069              	 .loc 1 923 0
 1070 02d0 002A     	 cmp r2,#0
 1071 02d2 00D0     	 beq .LCB1041
 1072 02d4 8CE1     	 b .L90
 1073              	.LCB1041:
 924:../Dave/Generated/UCPROBE/probe_scope.c ****                              if (p_sample_prev->Val16S >= p_ch->TrigLevel.Val16S) {
 1074              	 .loc 1 924 0
 1075 02d6 4146     	 mov r1,r8
 1076 02d8 C95E     	 ldrsh r1,[r1,r3]
 1077 02da 4346     	 mov r3,r8
 1078 02dc B21D     	 add r2,r6,#6
 1079 02de 9200     	 lsl r2,r2,#2
 1080 02e0 9A5E     	 ldrsh r2,[r3,r2]
 1081 02e2 9142     	 cmp r1,r2
 1082 02e4 00DC     	 bgt .LCB1051
 1083 02e6 4DE7     	 b .L53
 1084              	.LCB1051:
 925:../Dave/Generated/UCPROBE/probe_scope.c ****                                  if (p_sample_cur->Val16S <= p_ch->TrigLevel.Val16S) {
 1085              	 .loc 1 925 0
 1086 02e8 4346     	 mov r3,r8
 1087 02ea 1420     	 mov r0,#20
 1088 02ec 1B5E     	 ldrsh r3,[r3,r0]
 1089 02ee 9942     	 cmp r1,r3
 1090 02f0 CADA     	 bge .L171
 1091 02f2 47E7     	 b .L53
 1092              	.L206:
 1093              	 .align 2
 1094              	.L205:
 1095 02f4 00000000 	 .word .LANCHOR5
 1096 02f8 00000000 	 .word .LANCHOR6
 1097 02fc 00000000 	 .word .LANCHOR7
 1098 0300 00000000 	 .word .LANCHOR9
 1099 0304 00000000 	 .word ProbeScope_DataRdyFlag
 1100 0308 00000000 	 .word ProbeScope_TrigFlag
 1101 030c 00000000 	 .word .LANCHOR1
 1102 0310 00000000 	 .word ProbeScope_TrigDispPos
 1103 0314 00000000 	 .word .LANCHOR11
 1104 0318 00000000 	 .word .LANCHOR2
 1105 031c 00000000 	 .word .LANCHOR3
 1106 0320 00000000 	 .word .LANCHOR4
 1107 0324 00000000 	 .word .LANCHOR0
 1108 0328 00000000 	 .word .LANCHOR8
 1109 032c FF010000 	 .word 511
 1110 0330 00000000 	 .word .LANCHOR10
 1111 0334 00000000 	 .word .LANCHOR14
 1112 0338 00000000 	 .word ProbeScope_TrigHoldOff
 1113 033c 00000000 	 .word .LANCHOR12
 1114 0340 00000000 	 .word .LANCHOR13
 1115 0344 00000000 	 .word .L80
 1116 0348 00000000 	 .word ProbeScope_TrigIx
 1117              	.LVL83:
 1118              	.L82:
 903:../Dave/Generated/UCPROBE/probe_scope.c ****                          if (p_sample_prev->Val16U > p_sample_cur->Val16U) {
 1119              	 .loc 1 903 0
 1120 034c 4246     	 mov r2,r8
 1121 034e 9268     	 ldr r2,[r2,#8]
 904:../Dave/Generated/UCPROBE/probe_scope.c ****                              if (p_sample_prev->Val16U >= p_ch->TrigLevel.Val16U) {
 1122              	 .loc 1 904 0
 1123 0350 0633     	 add r3,r3,#6
 1124              	.LVL84:
 1125 0352 9B00     	 lsl r3,r3,#2
 903:../Dave/Generated/UCPROBE/probe_scope.c ****                          if (p_sample_prev->Val16U > p_sample_cur->Val16U) {
 1126              	 .loc 1 903 0
 1127 0354 002A     	 cmp r2,#0
 1128 0356 00D0     	 beq .LCB1098
 1129 0358 32E1     	 b .L89
 1130              	.LCB1098:
 904:../Dave/Generated/UCPROBE/probe_scope.c ****                              if (p_sample_prev->Val16U >= p_ch->TrigLevel.Val16U) {
 1131              	 .loc 1 904 0
 1132 035a 4246     	 mov r2,r8
 1133 035c 995A     	 ldrh r1,[r3,r2]
 1134 035e B31D     	 add r3,r6,#6
 1135 0360 9B00     	 lsl r3,r3,#2
 1136 0362 9A5A     	 ldrh r2,[r3,r2]
 1137 0364 9142     	 cmp r1,r2
 1138 0366 00D8     	 bhi .LCB1105
 1139 0368 0CE7     	 b .L53
 1140              	.LCB1105:
 905:../Dave/Generated/UCPROBE/probe_scope.c ****                                  if (p_sample_cur->Val16U <= p_ch->TrigLevel.Val16U) {
 1141              	 .loc 1 905 0
 1142 036a 4346     	 mov r3,r8
 1143 036c 9B8A     	 ldrh r3,[r3,#20]
 1144 036e 9942     	 cmp r1,r3
 1145 0370 A6D2     	 bcs .L173
 1146 0372 07E7     	 b .L53
 1147              	.LVL85:
 1148              	.L81:
 882:../Dave/Generated/UCPROBE/probe_scope.c ****                          if (p_sample_prev->Val08S > p_sample_cur->Val08S) {
 1149              	 .loc 1 882 0
 1150 0374 4246     	 mov r2,r8
 1151 0376 9268     	 ldr r2,[r2,#8]
 883:../Dave/Generated/UCPROBE/probe_scope.c ****                              if (p_sample_prev->Val08S >= p_ch->TrigLevel.Val08S) {
 1152              	 .loc 1 883 0
 1153 0378 0633     	 add r3,r3,#6
 1154              	.LVL86:
 1155 037a 9B00     	 lsl r3,r3,#2
 882:../Dave/Generated/UCPROBE/probe_scope.c ****                          if (p_sample_prev->Val08S > p_sample_cur->Val08S) {
 1156              	 .loc 1 882 0
 1157 037c 002A     	 cmp r2,#0
 1158 037e 00D0     	 beq .LCB1124
 1159 0380 2AE1     	 b .L88
 1160              	.LCB1124:
 883:../Dave/Generated/UCPROBE/probe_scope.c ****                              if (p_sample_prev->Val08S >= p_ch->TrigLevel.Val08S) {
 1161              	 .loc 1 883 0
 1162 0382 4146     	 mov r1,r8
 1163 0384 C956     	 ldrsb r1,[r1,r3]
 1164 0386 4346     	 mov r3,r8
 1165 0388 B21D     	 add r2,r6,#6
 1166 038a 9200     	 lsl r2,r2,#2
 1167 038c 9A56     	 ldrsb r2,[r3,r2]
 1168 038e 9142     	 cmp r1,r2
 1169 0390 00DC     	 bgt .LCB1134
 1170 0392 F7E6     	 b .L53
 1171              	.LCB1134:
 1172              	.LVL87:
 884:../Dave/Generated/UCPROBE/probe_scope.c ****                                  if (p_sample_cur->Val08S <= p_ch->TrigLevel.Val08S) {
 1173              	 .loc 1 884 0
 1174 0394 1B7D     	 ldrb r3,[r3,#20]
 1175              	.LVL88:
 1176 0396 5BB2     	 sxtb r3,r3
 1177 0398 9942     	 cmp r1,r3
 1178 039a 00DB     	 blt .LCB1145
 1179 039c 74E7     	 b .L171
 1180              	.LCB1145:
 1181 039e F1E6     	 b .L53
 1182              	.LVL89:
 1183              	.L79:
 862:../Dave/Generated/UCPROBE/probe_scope.c ****                          if (p_sample_prev->Val08U > p_sample_cur->Val08U) {
 1184              	 .loc 1 862 0
 1185 03a0 4246     	 mov r2,r8
 1186 03a2 9268     	 ldr r2,[r2,#8]
 863:../Dave/Generated/UCPROBE/probe_scope.c ****                              if (p_sample_prev->Val08U >= p_ch->TrigLevel.Val08U) {
 1187              	 .loc 1 863 0
 1188 03a4 0633     	 add r3,r3,#6
 1189              	.LVL90:
 1190 03a6 9B00     	 lsl r3,r3,#2
 862:../Dave/Generated/UCPROBE/probe_scope.c ****                          if (p_sample_prev->Val08U > p_sample_cur->Val08U) {
 1191              	 .loc 1 862 0
 1192 03a8 002A     	 cmp r2,#0
 1193 03aa 00D0     	 beq .LCB1160
 1194 03ac FCE0     	 b .L87
 1195              	.LCB1160:
 863:../Dave/Generated/UCPROBE/probe_scope.c ****                              if (p_sample_prev->Val08U >= p_ch->TrigLevel.Val08U) {
 1196              	 .loc 1 863 0
 1197 03ae 4246     	 mov r2,r8
 1198 03b0 995C     	 ldrb r1,[r3,r2]
 1199 03b2 B31D     	 add r3,r6,#6
 1200 03b4 9B00     	 lsl r3,r3,#2
 1201 03b6 9A5C     	 ldrb r2,[r3,r2]
 1202 03b8 9142     	 cmp r1,r2
 1203 03ba 00D8     	 bhi .LCB1167
 1204 03bc E2E6     	 b .L53
 1205              	.LCB1167:
 864:../Dave/Generated/UCPROBE/probe_scope.c ****                                  if (p_sample_cur->Val08U <= p_ch->TrigLevel.Val08U) {
 1206              	 .loc 1 864 0
 1207 03be 4346     	 mov r3,r8
 1208 03c0 1B7D     	 ldrb r3,[r3,#20]
 1209 03c2 9942     	 cmp r1,r3
 1210 03c4 00D3     	 bcc .LCB1171
 1211 03c6 7BE7     	 b .L173
 1212              	.LCB1171:
 1213 03c8 DCE6     	 b .L53
 1214              	.LVL91:
 1215              	.L86:
 985:../Dave/Generated/UCPROBE/probe_scope.c ****                          if (p_sample_prev->ValFP32 >= p_ch->TrigLevel.ValFP32) {
 1216              	 .loc 1 985 0
 1217 03ca 4246     	 mov r2,r8
 1218 03cc 0633     	 add r3,r3,#6
 1219              	.LVL92:
 1220 03ce 9B00     	 lsl r3,r3,#2
 1221 03d0 9B58     	 ldr r3,[r3,r2]
 1222 03d2 9A46     	 mov r10,r3
 1223 03d4 B31D     	 add r3,r6,#6
 1224 03d6 9B00     	 lsl r3,r3,#2
 1225 03d8 9B58     	 ldr r3,[r3,r2]
 1226 03da 5046     	 mov r0,r10
 1227 03dc 191C     	 add r1,r3,#0
 1228 03de 9B46     	 mov fp,r3
 1229 03e0 FFF7FEFF 	 bl __aeabi_fcmpgt
 1230              	.LVL93:
 1231 03e4 0028     	 cmp r0,#0
 1232 03e6 00D1     	 bne .LCB1195
 1233 03e8 CCE6     	 b .L53
 1234              	.LCB1195:
 986:../Dave/Generated/UCPROBE/probe_scope.c ****                              if (p_sample_cur->ValFP32 <= p_ch->TrigLevel.ValFP32) {
 1235              	 .loc 1 986 0
 1236 03ea 4346     	 mov r3,r8
 1237 03ec 5B69     	 ldr r3,[r3,#20]
 1238 03ee 5046     	 mov r0,r10
 1239 03f0 191C     	 add r1,r3,#0
 1240 03f2 9846     	 mov r8,r3
 1241              	.LVL94:
 1242 03f4 FFF7FEFF 	 bl __aeabi_fcmpge
 1243              	.LVL95:
 1244 03f8 0028     	 cmp r0,#0
 1245 03fa 00D1     	 bne .LCB1206
 1246 03fc C2E6     	 b .L53
 1247              	.LCB1206:
 987:../Dave/Generated/UCPROBE/probe_scope.c ****                                  ProbeScope_TrigFlag = 1;
 1248              	 .loc 1 987 0
 1249 03fe 5846     	 mov r0,fp
 1250 0400 4146     	 mov r1,r8
 1251 0402 FFF7FEFF 	 bl __aeabi_fcmple
 1252              	.LVL96:
 1253 0406 0028     	 cmp r0,#0
 1254 0408 00D0     	 beq .LCB1212
 1255 040a 40E7     	 b .L162
 1256              	.LCB1212:
 1257 040c BAE6     	 b .L53
 1258              	.LVL97:
 1259              	.L194:
 1260              	.LBE182:
 1261              	.LBE192:
 436:../Dave/Generated/UCPROBE/probe_scope.c ****                          ProbeScope_State          = PROBE_SCOPE_STATE_START;
 1262              	 .loc 1 436 0
 1263 040e 1370     	 strb r3,[r2]
 437:../Dave/Generated/UCPROBE/probe_scope.c ****                      } else {
 1264              	 .loc 1 437 0
 1265 0410 0023     	 mov r3,#0
 1266 0412 6AE6     	 b .L107
 1267              	.LVL98:
 1268              	.L203:
 1269              	.LBB193:
 1270              	.LBB183:
 668:../Dave/Generated/UCPROBE/probe_scope.c ****              break;
 1271              	 .loc 1 668 0
 1272 0414 B846     	 mov r8,r7
 666:../Dave/Generated/UCPROBE/probe_scope.c ****         case PROBE_SCOPE_CH1:
 1273              	 .loc 1 666 0
 1274 0416 012B     	 cmp r3,#1
 1275 0418 00D1     	 bne .LCB1248
 1276 041a D9E6     	 b .L57
 1277              	.LCB1248:
 1278 041c D5E6     	 b .L54
 1279              	.LVL99:
 1280              	.L189:
 1281              	.LBE183:
 1282              	.LBE193:
 1283              	.LBB194:
 1284              	.LBB105:
 1285              	.LBB100:
 1286              	.LBB99:
 1287 041e FFF7FEFF 	 bl ProbeScope_SampleCh.part.0
 1288              	.LVL100:
 1289 0422 2BE6     	 b .L113
 1290              	.LVL101:
 1291              	.L188:
 1292              	.LBE99:
 1293              	.LBE100:
 1294              	.LBB101:
 1295              	.LBB96:
 1296 0424 FFF7FEFF 	 bl ProbeScope_SampleCh.part.0
 1297              	.LVL102:
 1298 0428 23E6     	 b .L112
 1299              	.LVL103:
 1300              	.L187:
 1301              	.LBE96:
 1302              	.LBE101:
 1303              	.LBB102:
 1304              	.LBB93:
 1305 042a FFF7FEFF 	 bl ProbeScope_SampleCh.part.0
 1306              	.LVL104:
 1307 042e 1BE6     	 b .L111
 1308              	.LVL105:
 1309              	.L186:
 1310              	.LBE93:
 1311              	.LBE102:
 1312              	.LBB103:
 1313              	.LBB89:
 1314 0430 FFF7FEFF 	 bl ProbeScope_SampleCh.part.0
 1315              	.LVL106:
 1316 0434 13E6     	 b .L110
 1317              	.LVL107:
 1318              	.L204:
 1319              	.LBE89:
 1320              	.LBE103:
 1321              	.LBE105:
 1322              	.LBE194:
 1323              	.LBB195:
 1324              	.LBB184:
 723:../Dave/Generated/UCPROBE/probe_scope.c ****                 case PROBE_SCOPE_INT08U:
 1325              	 .loc 1 723 0
 1326 0436 4246     	 mov r2,r8
 1327 0438 1279     	 ldrb r2,[r2,#4]
 1328 043a 062A     	 cmp r2,#6
 1329 043c 00D9     	 bls .LCB1323
 1330 043e A1E6     	 b .L53
 1331              	.LCB1323:
 1332 0440 9049     	 ldr r1,.L207
 1333 0442 9200     	 lsl r2,r2,#2
 1334 0444 8A58     	 ldr r2,[r1,r2]
 1335 0446 9746     	 mov pc,r2
 1336              	 .section .rodata.ProbeScope_ModeTrig.part.1
 1337              	 .align 2
 1338              	.L63:
 1339 001c 6A050000 	 .word .L62
 1340 0020 FC040000 	 .word .L64
 1341 0024 D4040000 	 .word .L65
 1342 0028 A8040000 	 .word .L66
 1343 002c 78040000 	 .word .L67
 1344 0030 48040000 	 .word .L68
 1345 0034 26050000 	 .word .L69
 1346              	 .section .text.ProbeScope_ModeTrig.part.1
 1347              	.L68:
 828:../Dave/Generated/UCPROBE/probe_scope.c ****                          if (p_sample_prev->Val32S < p_sample_cur->Val32S) {
 1348              	 .loc 1 828 0
 1349 0448 4246     	 mov r2,r8
 1350 044a 9268     	 ldr r2,[r2,#8]
 829:../Dave/Generated/UCPROBE/probe_scope.c ****                              if (p_sample_prev->Val32S <= p_ch->TrigLevel.Val32S) {
 1351              	 .loc 1 829 0
 1352 044c 0633     	 add r3,r3,#6
 1353              	.LVL108:
 1354 044e 9B00     	 lsl r3,r3,#2
 828:../Dave/Generated/UCPROBE/probe_scope.c ****                          if (p_sample_prev->Val32S < p_sample_cur->Val32S) {
 1355              	 .loc 1 828 0
 1356 0450 002A     	 cmp r2,#0
 1357 0452 00D0     	 beq .LCB1342
 1358 0454 D9E0     	 b .L75
 1359              	.LCB1342:
 829:../Dave/Generated/UCPROBE/probe_scope.c ****                              if (p_sample_prev->Val32S <= p_ch->TrigLevel.Val32S) {
 1360              	 .loc 1 829 0
 1361 0456 4246     	 mov r2,r8
 1362 0458 9958     	 ldr r1,[r3,r2]
 1363 045a B31D     	 add r3,r6,#6
 1364 045c 9B00     	 lsl r3,r3,#2
 1365 045e 9A58     	 ldr r2,[r3,r2]
 1366 0460 9142     	 cmp r1,r2
 1367 0462 00DB     	 blt .LCB1349
 1368 0464 8EE6     	 b .L53
 1369              	.LCB1349:
 830:../Dave/Generated/UCPROBE/probe_scope.c ****                                  if (p_sample_cur->Val32S >= p_ch->TrigLevel.Val32S) {
 1370              	 .loc 1 830 0
 1371 0466 4346     	 mov r3,r8
 1372 0468 5B69     	 ldr r3,[r3,#20]
 1373 046a 9942     	 cmp r1,r3
 1374 046c 00DD     	 ble .LCB1353
 1375 046e 89E6     	 b .L53
 1376              	.LCB1353:
 1377              	.L177:
 831:../Dave/Generated/UCPROBE/probe_scope.c ****                                      ProbeScope_TrigFlag = 1;
 1378              	 .loc 1 831 0
 1379 0470 9A42     	 cmp r2,r3
 1380 0472 00DA     	 bge .LCB1359
 1381 0474 86E6     	 b .L53
 1382              	.LCB1359:
 1383 0476 0AE7     	 b .L162
 1384              	.LVL109:
 1385              	.L67:
 808:../Dave/Generated/UCPROBE/probe_scope.c ****                          if (p_sample_prev->Val32U < p_sample_cur->Val32U) {
 1386              	 .loc 1 808 0
 1387 0478 4246     	 mov r2,r8
 1388 047a 9268     	 ldr r2,[r2,#8]
 809:../Dave/Generated/UCPROBE/probe_scope.c ****                              if (p_sample_prev->Val32U <= p_ch->TrigLevel.Val32U) {
 1389              	 .loc 1 809 0
 1390 047c 0633     	 add r3,r3,#6
 1391              	.LVL110:
 1392 047e 9B00     	 lsl r3,r3,#2
 808:../Dave/Generated/UCPROBE/probe_scope.c ****                          if (p_sample_prev->Val32U < p_sample_cur->Val32U) {
 1393              	 .loc 1 808 0
 1394 0480 002A     	 cmp r2,#0
 1395 0482 00D0     	 beq .LCB1372
 1396 0484 C1E0     	 b .L75
 1397              	.LCB1372:
 809:../Dave/Generated/UCPROBE/probe_scope.c ****                              if (p_sample_prev->Val32U <= p_ch->TrigLevel.Val32U) {
 1398              	 .loc 1 809 0
 1399 0486 4246     	 mov r2,r8
 1400 0488 9958     	 ldr r1,[r3,r2]
 1401 048a B31D     	 add r3,r6,#6
 1402 048c 9B00     	 lsl r3,r3,#2
 1403 048e 9A58     	 ldr r2,[r3,r2]
 1404 0490 9142     	 cmp r1,r2
 1405 0492 00D3     	 bcc .LCB1379
 1406 0494 76E6     	 b .L53
 1407              	.LCB1379:
 810:../Dave/Generated/UCPROBE/probe_scope.c ****                                  if (p_sample_cur->Val32U >= p_ch->TrigLevel.Val32U) {
 1408              	 .loc 1 810 0
 1409 0496 4346     	 mov r3,r8
 1410 0498 5B69     	 ldr r3,[r3,#20]
 1411 049a 9942     	 cmp r1,r3
 1412 049c 00D9     	 bls .LCB1383
 1413 049e 71E6     	 b .L53
 1414              	.LCB1383:
 1415              	.L167:
 811:../Dave/Generated/UCPROBE/probe_scope.c ****                                      ProbeScope_TrigFlag = 1;
 1416              	 .loc 1 811 0
 1417 04a0 9A42     	 cmp r2,r3
 1418 04a2 00D2     	 bcs .LCB1389
 1419 04a4 6EE6     	 b .L53
 1420              	.LCB1389:
 1421 04a6 F2E6     	 b .L162
 1422              	.LVL111:
 1423              	.L66:
 786:../Dave/Generated/UCPROBE/probe_scope.c ****                          if (p_sample_prev->Val16S < p_sample_cur->Val16S) {
 1424              	 .loc 1 786 0
 1425 04a8 4246     	 mov r2,r8
 1426 04aa 9268     	 ldr r2,[r2,#8]
 787:../Dave/Generated/UCPROBE/probe_scope.c ****                              if (p_sample_prev->Val16S <= p_ch->TrigLevel.Val16S) {
 1427              	 .loc 1 787 0
 1428 04ac 0633     	 add r3,r3,#6
 1429              	.LVL112:
 1430 04ae 9B00     	 lsl r3,r3,#2
 786:../Dave/Generated/UCPROBE/probe_scope.c ****                          if (p_sample_prev->Val16S < p_sample_cur->Val16S) {
 1431              	 .loc 1 786 0
 1432 04b0 002A     	 cmp r2,#0
 1433 04b2 00D0     	 beq .LCB1402
 1434 04b4 C1E0     	 b .L73
 1435              	.LCB1402:
 787:../Dave/Generated/UCPROBE/probe_scope.c ****                              if (p_sample_prev->Val16S <= p_ch->TrigLevel.Val16S) {
 1436              	 .loc 1 787 0
 1437 04b6 4146     	 mov r1,r8
 1438 04b8 C95E     	 ldrsh r1,[r1,r3]
 1439 04ba 4346     	 mov r3,r8
 1440 04bc B21D     	 add r2,r6,#6
 1441 04be 9200     	 lsl r2,r2,#2
 1442 04c0 9A5E     	 ldrsh r2,[r3,r2]
 1443 04c2 9142     	 cmp r1,r2
 1444 04c4 00DB     	 blt .LCB1412
 1445 04c6 5DE6     	 b .L53
 1446              	.LCB1412:
 788:../Dave/Generated/UCPROBE/probe_scope.c ****                                  if (p_sample_cur->Val16S >= p_ch->TrigLevel.Val16S) {
 1447              	 .loc 1 788 0
 1448 04c8 4346     	 mov r3,r8
 1449 04ca 1420     	 mov r0,#20
 1450 04cc 1B5E     	 ldrsh r3,[r3,r0]
 1451 04ce 9942     	 cmp r1,r3
 1452 04d0 CEDD     	 ble .L177
 1453 04d2 57E6     	 b .L53
 1454              	.LVL113:
 1455              	.L65:
 766:../Dave/Generated/UCPROBE/probe_scope.c ****                          if (p_sample_prev->Val16U < p_sample_cur->Val16U) {
 1456              	 .loc 1 766 0
 1457 04d4 4246     	 mov r2,r8
 1458 04d6 9268     	 ldr r2,[r2,#8]
 767:../Dave/Generated/UCPROBE/probe_scope.c ****                              if (p_sample_prev->Val16U <= p_ch->TrigLevel.Val16U) {
 1459              	 .loc 1 767 0
 1460 04d8 0633     	 add r3,r3,#6
 1461              	.LVL114:
 1462 04da 9B00     	 lsl r3,r3,#2
 766:../Dave/Generated/UCPROBE/probe_scope.c ****                          if (p_sample_prev->Val16U < p_sample_cur->Val16U) {
 1463              	 .loc 1 766 0
 1464 04dc 002A     	 cmp r2,#0
 1465 04de 00D0     	 beq .LCB1432
 1466 04e0 B8E0     	 b .L72
 1467              	.LCB1432:
 767:../Dave/Generated/UCPROBE/probe_scope.c ****                              if (p_sample_prev->Val16U <= p_ch->TrigLevel.Val16U) {
 1468              	 .loc 1 767 0
 1469 04e2 4246     	 mov r2,r8
 1470 04e4 995A     	 ldrh r1,[r3,r2]
 1471 04e6 B31D     	 add r3,r6,#6
 1472 04e8 9B00     	 lsl r3,r3,#2
 1473 04ea 9A5A     	 ldrh r2,[r3,r2]
 1474 04ec 9142     	 cmp r1,r2
 1475 04ee 00D3     	 bcc .LCB1439
 1476 04f0 48E6     	 b .L53
 1477              	.LCB1439:
 768:../Dave/Generated/UCPROBE/probe_scope.c ****                                  if (p_sample_cur->Val16U >= p_ch->TrigLevel.Val16U) {
 1478              	 .loc 1 768 0
 1479 04f2 4346     	 mov r3,r8
 1480 04f4 9B8A     	 ldrh r3,[r3,#20]
 1481 04f6 9942     	 cmp r1,r3
 1482 04f8 D2D9     	 bls .L167
 1483 04fa 43E6     	 b .L53
 1484              	.LVL115:
 1485              	.L64:
 745:../Dave/Generated/UCPROBE/probe_scope.c ****                          if (p_sample_prev->Val08S < p_sample_cur->Val08S) {
 1486              	 .loc 1 745 0
 1487 04fc 4246     	 mov r2,r8
 1488 04fe 9268     	 ldr r2,[r2,#8]
 746:../Dave/Generated/UCPROBE/probe_scope.c ****                              if (p_sample_prev->Val08S <= p_ch->TrigLevel.Val08S) {
 1489              	 .loc 1 746 0
 1490 0500 0633     	 add r3,r3,#6
 1491              	.LVL116:
 1492 0502 9B00     	 lsl r3,r3,#2
 745:../Dave/Generated/UCPROBE/probe_scope.c ****                          if (p_sample_prev->Val08S < p_sample_cur->Val08S) {
 1493              	 .loc 1 745 0
 1494 0504 002A     	 cmp r2,#0
 1495 0506 00D0     	 beq .LCB1458
 1496 0508 B0E0     	 b .L71
 1497              	.LCB1458:
 746:../Dave/Generated/UCPROBE/probe_scope.c ****                              if (p_sample_prev->Val08S <= p_ch->TrigLevel.Val08S) {
 1498              	 .loc 1 746 0
 1499 050a 4146     	 mov r1,r8
 1500 050c C956     	 ldrsb r1,[r1,r3]
 1501 050e 4346     	 mov r3,r8
 1502 0510 B21D     	 add r2,r6,#6
 1503 0512 9200     	 lsl r2,r2,#2
 1504 0514 9A56     	 ldrsb r2,[r3,r2]
 1505 0516 9142     	 cmp r1,r2
 1506 0518 00DB     	 blt .LCB1468
 1507 051a 33E6     	 b .L53
 1508              	.LCB1468:
 1509              	.LVL117:
 747:../Dave/Generated/UCPROBE/probe_scope.c ****                                  if (p_sample_cur->Val08S >= p_ch->TrigLevel.Val08S) {
 1510              	 .loc 1 747 0
 1511 051c 1B7D     	 ldrb r3,[r3,#20]
 1512              	.LVL118:
 1513 051e 5BB2     	 sxtb r3,r3
 1514 0520 9942     	 cmp r1,r3
 1515 0522 A5DD     	 ble .L177
 1516 0524 2EE6     	 b .L53
 1517              	.LVL119:
 1518              	.L69:
 848:../Dave/Generated/UCPROBE/probe_scope.c ****                          if (p_sample_prev->ValFP32 <= p_ch->TrigLevel.ValFP32) {
 1519              	 .loc 1 848 0
 1520 0526 4246     	 mov r2,r8
 1521 0528 0633     	 add r3,r3,#6
 1522              	.LVL120:
 1523 052a 9B00     	 lsl r3,r3,#2
 1524 052c 9B58     	 ldr r3,[r3,r2]
 1525 052e 9A46     	 mov r10,r3
 1526 0530 B31D     	 add r3,r6,#6
 1527 0532 9B00     	 lsl r3,r3,#2
 1528 0534 9B58     	 ldr r3,[r3,r2]
 1529 0536 5046     	 mov r0,r10
 1530 0538 191C     	 add r1,r3,#0
 1531 053a 9B46     	 mov fp,r3
 1532 053c FFF7FEFF 	 bl __aeabi_fcmplt
 1533              	.LVL121:
 1534 0540 0028     	 cmp r0,#0
 1535 0542 00D1     	 bne .LCB1503
 1536 0544 1EE6     	 b .L53
 1537              	.LCB1503:
 849:../Dave/Generated/UCPROBE/probe_scope.c ****                              if (p_sample_cur->ValFP32 >= p_ch->TrigLevel.ValFP32) {
 1538              	 .loc 1 849 0
 1539 0546 4346     	 mov r3,r8
 1540 0548 5B69     	 ldr r3,[r3,#20]
 1541 054a 5046     	 mov r0,r10
 1542 054c 191C     	 add r1,r3,#0
 1543 054e 9846     	 mov r8,r3
 1544              	.LVL122:
 1545 0550 FFF7FEFF 	 bl __aeabi_fcmple
 1546              	.LVL123:
 1547 0554 0028     	 cmp r0,#0
 1548 0556 00D1     	 bne .LCB1514
 1549 0558 14E6     	 b .L53
 1550              	.LCB1514:
 850:../Dave/Generated/UCPROBE/probe_scope.c ****                                  ProbeScope_TrigFlag = 1;
 1551              	 .loc 1 850 0
 1552 055a 5846     	 mov r0,fp
 1553 055c 4146     	 mov r1,r8
 1554 055e FFF7FEFF 	 bl __aeabi_fcmpge
 1555              	.LVL124:
 1556 0562 0028     	 cmp r0,#0
 1557 0564 00D1     	 bne .LCB1520
 1558 0566 0DE6     	 b .L53
 1559              	.LCB1520:
 1560 0568 91E6     	 b .L162
 1561              	.LVL125:
 1562              	.L62:
 725:../Dave/Generated/UCPROBE/probe_scope.c ****                          if (p_sample_prev->Val08U < p_sample_cur->Val08U) {
 1563              	 .loc 1 725 0
 1564 056a 4246     	 mov r2,r8
 1565 056c 9268     	 ldr r2,[r2,#8]
 726:../Dave/Generated/UCPROBE/probe_scope.c ****                              if (p_sample_prev->Val08U <= p_ch->TrigLevel.Val08U) {
 1566              	 .loc 1 726 0
 1567 056e 0633     	 add r3,r3,#6
 1568              	.LVL126:
 1569 0570 9B00     	 lsl r3,r3,#2
 725:../Dave/Generated/UCPROBE/probe_scope.c ****                          if (p_sample_prev->Val08U < p_sample_cur->Val08U) {
 1570              	 .loc 1 725 0
 1571 0572 002A     	 cmp r2,#0
 1572 0574 55D1     	 bne .L70
 726:../Dave/Generated/UCPROBE/probe_scope.c ****                              if (p_sample_prev->Val08U <= p_ch->TrigLevel.Val08U) {
 1573              	 .loc 1 726 0
 1574 0576 4246     	 mov r2,r8
 1575 0578 995C     	 ldrb r1,[r3,r2]
 1576 057a B31D     	 add r3,r6,#6
 1577 057c 9B00     	 lsl r3,r3,#2
 1578 057e 9A5C     	 ldrb r2,[r3,r2]
 1579 0580 9142     	 cmp r1,r2
 1580 0582 00D3     	 bcc .LCB1542
 1581 0584 FEE5     	 b .L53
 1582              	.LCB1542:
 727:../Dave/Generated/UCPROBE/probe_scope.c ****                                  if (p_sample_cur->Val08U >= p_ch->TrigLevel.Val08U) {
 1583              	 .loc 1 727 0
 1584 0586 4346     	 mov r3,r8
 1585 0588 1B7D     	 ldrb r3,[r3,#20]
 1586 058a 9942     	 cmp r1,r3
 1587 058c 88D9     	 bls .L167
 1588 058e F9E5     	 b .L53
 1589              	.L92:
 975:../Dave/Generated/UCPROBE/probe_scope.c ****                              if (p_sample_cur->Val32S == 0) {
 1590              	 .loc 1 975 0
 1591 0590 4246     	 mov r2,r8
 1592 0592 9B58     	 ldr r3,[r3,r2]
 1593 0594 002B     	 cmp r3,#0
 1594 0596 00D1     	 bne .LCB1557
 1595 0598 F4E5     	 b .L53
 1596              	.LCB1557:
 1597              	.LVL127:
 976:../Dave/Generated/UCPROBE/probe_scope.c ****                                  ProbeScope_TrigFlag = 1;
 1598              	 .loc 1 976 0
 1599 059a B31D     	 add r3,r6,#6
 1600 059c 9B00     	 lsl r3,r3,#2
 1601 059e 9B58     	 ldr r3,[r3,r2]
 1602 05a0 002B     	 cmp r3,#0
 1603 05a2 00D0     	 beq .LCB1565
 1604 05a4 EEE5     	 b .L53
 1605              	.LCB1565:
 1606 05a6 72E6     	 b .L162
 1607              	.LVL128:
 1608              	.L87:
 872:../Dave/Generated/UCPROBE/probe_scope.c ****                              if (p_sample_cur->Val08U == 0) {
 1609              	 .loc 1 872 0
 1610 05a8 4246     	 mov r2,r8
 1611 05aa 9B5C     	 ldrb r3,[r3,r2]
 1612 05ac 002B     	 cmp r3,#0
 1613 05ae 00D1     	 bne .LCB1576
 1614 05b0 E8E5     	 b .L53
 1615              	.LCB1576:
 1616              	.LVL129:
 873:../Dave/Generated/UCPROBE/probe_scope.c ****                                  ProbeScope_TrigFlag = 1;
 1617              	 .loc 1 873 0
 1618 05b2 B31D     	 add r3,r6,#6
 1619 05b4 9B00     	 lsl r3,r3,#2
 1620 05b6 9B5C     	 ldrb r3,[r3,r2]
 1621 05b8 002B     	 cmp r3,#0
 1622 05ba 00D0     	 beq .LCB1584
 1623 05bc E2E5     	 b .L53
 1624              	.LCB1584:
 1625 05be 66E6     	 b .L162
 1626              	.LVL130:
 1627              	.L89:
 913:../Dave/Generated/UCPROBE/probe_scope.c ****                              if (p_sample_cur->Val16U == 0) {
 1628              	 .loc 1 913 0
 1629 05c0 4246     	 mov r2,r8
 1630 05c2 9B5A     	 ldrh r3,[r3,r2]
 1631 05c4 002B     	 cmp r3,#0
 1632 05c6 00D1     	 bne .LCB1595
 1633 05c8 DCE5     	 b .L53
 1634              	.LCB1595:
 1635              	.LVL131:
 914:../Dave/Generated/UCPROBE/probe_scope.c ****                                  ProbeScope_TrigFlag = 1;
 1636              	 .loc 1 914 0
 1637 05ca B31D     	 add r3,r6,#6
 1638 05cc 9B00     	 lsl r3,r3,#2
 1639 05ce 9B5A     	 ldrh r3,[r3,r2]
 1640 05d0 002B     	 cmp r3,#0
 1641 05d2 00D0     	 beq .LCB1603
 1642 05d4 D6E5     	 b .L53
 1643              	.LCB1603:
 1644 05d6 5AE6     	 b .L162
 1645              	.LVL132:
 1646              	.L88:
 892:../Dave/Generated/UCPROBE/probe_scope.c ****                              if (p_sample_cur->Val08S == 0) {
 1647              	 .loc 1 892 0
 1648 05d8 4246     	 mov r2,r8
 1649 05da 9B56     	 ldrsb r3,[r3,r2]
 1650 05dc 002B     	 cmp r3,#0
 1651 05de 00D1     	 bne .LCB1614
 1652 05e0 D0E5     	 b .L53
 1653              	.LCB1614:
 1654              	.LVL133:
 893:../Dave/Generated/UCPROBE/probe_scope.c ****                                  ProbeScope_TrigFlag = 1;
 1655              	 .loc 1 893 0
 1656 05e2 B31D     	 add r3,r6,#6
 1657 05e4 9B00     	 lsl r3,r3,#2
 1658 05e6 9B56     	 ldrsb r3,[r3,r2]
 1659 05e8 002B     	 cmp r3,#0
 1660 05ea 00D0     	 beq .LCB1622
 1661 05ec CAE5     	 b .L53
 1662              	.LCB1622:
 1663 05ee 4EE6     	 b .L162
 1664              	.LVL134:
 1665              	.L90:
 933:../Dave/Generated/UCPROBE/probe_scope.c ****                              if (p_sample_cur->Val16S == 0) {
 1666              	 .loc 1 933 0
 1667 05f0 4246     	 mov r2,r8
 1668 05f2 9B5E     	 ldrsh r3,[r3,r2]
 1669 05f4 002B     	 cmp r3,#0
 1670 05f6 00D1     	 bne .LCB1633
 1671 05f8 C4E5     	 b .L53
 1672              	.LCB1633:
 934:../Dave/Generated/UCPROBE/probe_scope.c ****                                  ProbeScope_TrigFlag = 1;
 1673              	 .loc 1 934 0
 1674 05fa 4246     	 mov r2,r8
 1675 05fc B31D     	 add r3,r6,#6
 1676 05fe 9B00     	 lsl r3,r3,#2
 1677 0600 9B5E     	 ldrsh r3,[r3,r2]
 1678 0602 002B     	 cmp r3,#0
 1679 0604 00D0     	 beq .LCB1639
 1680 0606 BDE5     	 b .L53
 1681              	.LCB1639:
 1682 0608 41E6     	 b .L162
 1683              	.L75:
 838:../Dave/Generated/UCPROBE/probe_scope.c ****                              if (p_sample_cur->Val32S != 0) {
 1684              	 .loc 1 838 0
 1685 060a 4246     	 mov r2,r8
 1686 060c 9B58     	 ldr r3,[r3,r2]
 1687 060e 002B     	 cmp r3,#0
 1688 0610 00D0     	 beq .LCB1650
 1689 0612 B7E5     	 b .L53
 1690              	.LCB1650:
 1691              	.LVL135:
 839:../Dave/Generated/UCPROBE/probe_scope.c ****                                  ProbeScope_TrigFlag = 1;
 1692              	 .loc 1 839 0
 1693 0614 B31D     	 add r3,r6,#6
 1694 0616 9B00     	 lsl r3,r3,#2
 1695 0618 9B58     	 ldr r3,[r3,r2]
 1696 061a 002B     	 cmp r3,#0
 1697 061c 00D1     	 bne .LCB1658
 1698 061e B1E5     	 b .L53
 1699              	.LCB1658:
 1700 0620 35E6     	 b .L162
 1701              	.LVL136:
 1702              	.L70:
 735:../Dave/Generated/UCPROBE/probe_scope.c ****                              if (p_sample_cur->Val08U != 0) { 
 1703              	 .loc 1 735 0
 1704 0622 4246     	 mov r2,r8
 1705 0624 9B5C     	 ldrb r3,[r3,r2]
 1706 0626 002B     	 cmp r3,#0
 1707 0628 00D0     	 beq .LCB1669
 1708 062a ABE5     	 b .L53
 1709              	.LCB1669:
 1710              	.LVL137:
 736:../Dave/Generated/UCPROBE/probe_scope.c ****                                  ProbeScope_TrigFlag = 1;
 1711              	 .loc 1 736 0
 1712 062c B31D     	 add r3,r6,#6
 1713 062e 9B00     	 lsl r3,r3,#2
 1714 0630 9B5C     	 ldrb r3,[r3,r2]
 1715 0632 002B     	 cmp r3,#0
 1716 0634 00D1     	 bne .LCB1677
 1717 0636 A5E5     	 b .L53
 1718              	.LCB1677:
 1719 0638 29E6     	 b .L162
 1720              	.LVL138:
 1721              	.L73:
 796:../Dave/Generated/UCPROBE/probe_scope.c ****                              if (p_sample_cur->Val16S != 0) { 
 1722              	 .loc 1 796 0
 1723 063a 4246     	 mov r2,r8
 1724 063c 9B5E     	 ldrsh r3,[r3,r2]
 1725 063e 002B     	 cmp r3,#0
 1726 0640 00D0     	 beq .LCB1688
 1727 0642 9FE5     	 b .L53
 1728              	.LCB1688:
 797:../Dave/Generated/UCPROBE/probe_scope.c ****                                  ProbeScope_TrigFlag = 1;
 1729              	 .loc 1 797 0
 1730 0644 4246     	 mov r2,r8
 1731 0646 B31D     	 add r3,r6,#6
 1732 0648 9B00     	 lsl r3,r3,#2
 1733 064a 9B5E     	 ldrsh r3,[r3,r2]
 1734 064c 002B     	 cmp r3,#0
 1735 064e 00D1     	 bne .LCB1694
 1736 0650 98E5     	 b .L53
 1737              	.LCB1694:
 1738 0652 1CE6     	 b .L162
 1739              	.L72:
 776:../Dave/Generated/UCPROBE/probe_scope.c ****                              if (p_sample_cur->Val16U != 0) { 
 1740              	 .loc 1 776 0
 1741 0654 4246     	 mov r2,r8
 1742 0656 9B5A     	 ldrh r3,[r3,r2]
 1743 0658 002B     	 cmp r3,#0
 1744 065a 00D0     	 beq .LCB1705
 1745 065c 92E5     	 b .L53
 1746              	.LCB1705:
 1747              	.LVL139:
 777:../Dave/Generated/UCPROBE/probe_scope.c ****                                  ProbeScope_TrigFlag = 1;
 1748              	 .loc 1 777 0
 1749 065e B31D     	 add r3,r6,#6
 1750 0660 9B00     	 lsl r3,r3,#2
 1751 0662 9B5A     	 ldrh r3,[r3,r2]
 1752 0664 002B     	 cmp r3,#0
 1753 0666 00D1     	 bne .LCB1713
 1754 0668 8CE5     	 b .L53
 1755              	.LCB1713:
 1756 066a 10E6     	 b .L162
 1757              	.LVL140:
 1758              	.L71:
 755:../Dave/Generated/UCPROBE/probe_scope.c ****                              if (p_sample_cur->Val08S != 0) { 
 1759              	 .loc 1 755 0
 1760 066c 4246     	 mov r2,r8
 1761 066e 9B56     	 ldrsb r3,[r3,r2]
 1762 0670 002B     	 cmp r3,#0
 1763 0672 00D0     	 beq .LCB1724
 1764 0674 86E5     	 b .L53
 1765              	.LCB1724:
 1766              	.LVL141:
 756:../Dave/Generated/UCPROBE/probe_scope.c ****                                  ProbeScope_TrigFlag = 1;
 1767              	 .loc 1 756 0
 1768 0676 B31D     	 add r3,r6,#6
 1769 0678 9B00     	 lsl r3,r3,#2
 1770 067a 9B56     	 ldrsb r3,[r3,r2]
 1771 067c 002B     	 cmp r3,#0
 1772 067e 00D1     	 bne .LCB1732
 1773 0680 80E5     	 b .L53
 1774              	.LCB1732:
 1775 0682 04E6     	 b .L162
 1776              	.L208:
 1777              	 .align 2
 1778              	.L207:
 1779 0684 1C000000 	 .word .L63
 1780              	.LBE184:
 1781              	.LBE195:
 1782              	 .cfi_endproc
 1783              	.LFE10:
 1785              	 .section .text.ProbeScope_Init,"ax",%progbits
 1786              	 .align 2
 1787              	 .global ProbeScope_Init
 1788              	 .code 16
 1789              	 .thumb_func
 1791              	ProbeScope_Init:
 1792              	.LFB0:
 242:../Dave/Generated/UCPROBE/probe_scope.c ****     static  CPU_INT32U  temp = 0;
 1793              	 .loc 1 242 0
 1794              	 .cfi_startproc
 1795              	.LVL142:
 246:../Dave/Generated/UCPROBE/probe_scope.c **** #if PROBE_SCOPE_MAX_CH >= 2       
 1796              	 .loc 1 246 0
 1797 0000 0023     	 mov r3,#0
 1798 0002 1E4A     	 ldr r2,.L210
 242:../Dave/Generated/UCPROBE/probe_scope.c ****     static  CPU_INT32U  temp = 0;
 1799              	 .loc 1 242 0
 1800 0004 70B5     	 push {r4,r5,r6,lr}
 1801              	.LCFI3:
 1802              	 .cfi_def_cfa_offset 16
 1803              	 .cfi_offset 4,-16
 1804              	 .cfi_offset 5,-12
 1805              	 .cfi_offset 6,-8
 1806              	 .cfi_offset 14,-4
 246:../Dave/Generated/UCPROBE/probe_scope.c **** #if PROBE_SCOPE_MAX_CH >= 2       
 1807              	 .loc 1 246 0
 1808 0006 1360     	 str r3,[r2]
 248:../Dave/Generated/UCPROBE/probe_scope.c **** #endif                            
 1809              	 .loc 1 248 0
 1810 0008 1D4A     	 ldr r2,.L210+4
 271:../Dave/Generated/UCPROBE/probe_scope.c ****     ProbeScope_SampleIxPrev       = 0;
 1811              	 .loc 1 271 0
 1812 000a 1E49     	 ldr r1,.L210+8
 248:../Dave/Generated/UCPROBE/probe_scope.c **** #endif                            
 1813              	 .loc 1 248 0
 1814 000c 1360     	 str r3,[r2]
 251:../Dave/Generated/UCPROBE/probe_scope.c **** #endif                            
 1815              	 .loc 1 251 0
 1816 000e 1E4A     	 ldr r2,.L210+12
 276:../Dave/Generated/UCPROBE/probe_scope.c ****     ProbeScope_TrigHoldOffCtr     = 0;
 1817              	 .loc 1 276 0
 1818 0010 1E4C     	 ldr r4,.L210+16
 251:../Dave/Generated/UCPROBE/probe_scope.c **** #endif                            
 1819              	 .loc 1 251 0
 1820 0012 1360     	 str r3,[r2]
 254:../Dave/Generated/UCPROBE/probe_scope.c **** #endif                            
 1821              	 .loc 1 254 0
 1822 0014 1E4A     	 ldr r2,.L210+20
 290:../Dave/Generated/UCPROBE/probe_scope.c **** 
 1823              	 .loc 1 290 0
 1824              	 
 254:../Dave/Generated/UCPROBE/probe_scope.c **** #endif                            
 1825              	 .loc 1 254 0
 1826 0016 1360     	 str r3,[r2]
 269:../Dave/Generated/UCPROBE/probe_scope.c ****     ProbeScope_State              = PROBE_SCOPE_STATE_START;
 1827              	 .loc 1 269 0
 1828 0018 1E4A     	 ldr r2,.L210+24
 1829 001a 1370     	 strb r3,[r2]
 270:../Dave/Generated/UCPROBE/probe_scope.c ****     ProbeScope_TrigChSel          = PROBE_SCOPE_CH1;                         // Default trigger cha
 1830              	 .loc 1 270 0
 1831 001c 1E4A     	 ldr r2,.L210+28
 1832 001e 1370     	 strb r3,[r2]
 271:../Dave/Generated/UCPROBE/probe_scope.c ****     ProbeScope_SampleIxPrev       = 0;
 1833              	 .loc 1 271 0
 1834 0020 0122     	 mov r2,#1
 1835 0022 0A70     	 strb r2,[r1]
 272:../Dave/Generated/UCPROBE/probe_scope.c ****     ProbeScope_SampleIxCur        = 0;
 1836              	 .loc 1 272 0
 1837 0024 1D49     	 ldr r1,.L210+32
 1838 0026 0B60     	 str r3,[r1]
 273:../Dave/Generated/UCPROBE/probe_scope.c ****     ProbeScope_TrigFlag           = 0;
 1839              	 .loc 1 273 0
 1840 0028 1D49     	 ldr r1,.L210+36
 1841 002a 0B60     	 str r3,[r1]
 274:../Dave/Generated/UCPROBE/probe_scope.c ****     ProbeScope_TrigDispPos        = 0;
 1842              	 .loc 1 274 0
 1843 002c 1D49     	 ldr r1,.L210+40
 1844 002e 0B60     	 str r3,[r1]
 275:../Dave/Generated/UCPROBE/probe_scope.c ****     ProbeScope_TrigHoldOff        = 0;
 1845              	 .loc 1 275 0
 1846 0030 1D49     	 ldr r1,.L210+44
 1847 0032 0B60     	 str r3,[r1]
 276:../Dave/Generated/UCPROBE/probe_scope.c ****     ProbeScope_TrigHoldOffCtr     = 0;
 1848              	 .loc 1 276 0
 1849 0034 2360     	 str r3,[r4]
 277:../Dave/Generated/UCPROBE/probe_scope.c ****     ProbeScope_DataRdyFlag        = 0;
 1850              	 .loc 1 277 0
 1851 0036 1D4C     	 ldr r4,.L210+48
 1852 0038 2360     	 str r3,[r4]
 278:../Dave/Generated/UCPROBE/probe_scope.c ****     ProbeScope_SamplesPreTrigCtr  = ProbeScope_TrigDispPos;
 1853              	 .loc 1 278 0
 1854 003a 1D4C     	 ldr r4,.L210+52
 1855 003c 2360     	 str r3,[r4]
 279:../Dave/Generated/UCPROBE/probe_scope.c ****     ProbeScope_SamplesPostTrigCtr = PROBE_SCOPE_MAX_SAMPLES;
 1856              	 .loc 1 279 0
 1857 003e 0C68     	 ldr r4,[r1]
 1858 0040 1C49     	 ldr r1,.L210+56
 1859 0042 0C60     	 str r4,[r1]
 280:../Dave/Generated/UCPROBE/probe_scope.c ****     ProbeScope_TrigSlope          = PROBE_SCOPE_TRIG_POS;                    // We assume a positiv
 1860              	 .loc 1 280 0
 1861 0044 8024     	 mov r4,#128
 1862 0046 1C49     	 ldr r1,.L210+60
 1863 0048 A400     	 lsl r4,r4,#2
 1864 004a 0C60     	 str r4,[r1]
 281:../Dave/Generated/UCPROBE/probe_scope.c ****     temp                          = ProbeScopeDbg_MaxSamples;
 1865              	 .loc 1 281 0
 1866 004c 1B49     	 ldr r1,.L210+64
 285:../Dave/Generated/UCPROBE/probe_scope.c ****     ProbeScope_SamplingClkDiv     =    1;
 1867              	 .loc 1 285 0
 1868 004e 1C4E     	 ldr r6,.L210+68
 281:../Dave/Generated/UCPROBE/probe_scope.c ****     temp                          = ProbeScopeDbg_MaxSamples;
 1869              	 .loc 1 281 0
 1870 0050 0A60     	 str r2,[r1]
 282:../Dave/Generated/UCPROBE/probe_scope.c ****     temp                         += ProbeScopeDbg_MaxCh;
 1871              	 .loc 1 282 0
 1872 0052 1C49     	 ldr r1,.L210+72
 1873 0054 0D88     	 ldrh r5,[r1]
 283:../Dave/Generated/UCPROBE/probe_scope.c ****     temp                         += ProbeScopeDbg_16BitEn;
 1874              	 .loc 1 283 0
 1875 0056 1C49     	 ldr r1,.L210+76
 1876 0058 0C78     	 ldrb r4,[r1]
 284:../Dave/Generated/UCPROBE/probe_scope.c ****     temp                         += ProbeScopeDbg_32BitEn;
 1877              	 .loc 1 284 0
 1878 005a 1C49     	 ldr r1,.L210+80
 1879 005c 0968     	 ldr r1,[r1]
 285:../Dave/Generated/UCPROBE/probe_scope.c ****     ProbeScope_SamplingClkDiv     =    1;
 1880              	 .loc 1 285 0
 1881 005e 3668     	 ldr r6,[r6]
 1882 0060 7118     	 add r1,r6,r1
 1883 0062 4919     	 add r1,r1,r5
 1884 0064 0919     	 add r1,r1,r4
 1885 0066 1A4C     	 ldr r4,.L210+84
 1886 0068 2160     	 str r1,[r4]
 286:../Dave/Generated/UCPROBE/probe_scope.c ****     ProbeScope_SamplingClkDivCtr  =    0;
 1887              	 .loc 1 286 0
 1888 006a 1A49     	 ldr r1,.L210+88
 1889 006c 0A80     	 strh r2,[r1]
 287:../Dave/Generated/UCPROBE/probe_scope.c ****     ProbeScope_SamplingClkHz      = sampling_clk_hz;
 1890              	 .loc 1 287 0
 1891 006e 1A49     	 ldr r1,.L210+92
 1892 0070 0B80     	 strh r3,[r1]
 288:../Dave/Generated/UCPROBE/probe_scope.c ****     ProbeScope_InitFlag           =    1;
 1893              	 .loc 1 288 0
 1894 0072 1A4B     	 ldr r3,.L210+96
 1895 0074 1860     	 str r0,[r3]
 289:../Dave/Generated/UCPROBE/probe_scope.c **** }
 1896              	 .loc 1 289 0
 1897 0076 1A4B     	 ldr r3,.L210+100
 1898 0078 1A60     	 str r2,[r3]
 290:../Dave/Generated/UCPROBE/probe_scope.c **** 
 1899              	 .loc 1 290 0
 1900 007a 70BD     	 pop {r4,r5,r6,pc}
 1901              	.L211:
 1902              	 .align 2
 1903              	.L210:
 1904 007c 00000000 	 .word .LANCHOR1
 1905 0080 00000000 	 .word .LANCHOR2
 1906 0084 00000000 	 .word .LANCHOR12
 1907 0088 00000000 	 .word .LANCHOR3
 1908 008c 00000000 	 .word ProbeScope_TrigHoldOff
 1909 0090 00000000 	 .word .LANCHOR4
 1910 0094 00000000 	 .word .LANCHOR14
 1911 0098 00000000 	 .word .LANCHOR7
 1912 009c 00000000 	 .word .LANCHOR8
 1913 00a0 00000000 	 .word .LANCHOR0
 1914 00a4 00000000 	 .word ProbeScope_TrigFlag
 1915 00a8 00000000 	 .word ProbeScope_TrigDispPos
 1916 00ac 00000000 	 .word .LANCHOR9
 1917 00b0 00000000 	 .word ProbeScope_DataRdyFlag
 1918 00b4 00000000 	 .word .LANCHOR11
 1919 00b8 00000000 	 .word .LANCHOR10
 1920 00bc 00000000 	 .word .LANCHOR13
 1921 00c0 00000000 	 .word .LANCHOR18
 1922 00c4 00000000 	 .word .LANCHOR15
 1923 00c8 00000000 	 .word .LANCHOR16
 1924 00cc 00000000 	 .word .LANCHOR17
 1925 00d0 00000000 	 .word .LANCHOR19
 1926 00d4 00000000 	 .word .LANCHOR5
 1927 00d8 00000000 	 .word .LANCHOR6
 1928 00dc 00000000 	 .word ProbeScope_SamplingClkHz
 1929 00e0 00000000 	 .word ProbeScope_InitFlag
 1930              	 .cfi_endproc
 1931              	.LFE0:
 1933              	 .section .text.ProbeScope_Sampling,"ax",%progbits
 1934              	 .align 2
 1935              	 .global ProbeScope_Sampling
 1936              	 .code 16
 1937              	 .thumb_func
 1939              	ProbeScope_Sampling:
 1940              	.LFB1:
 305:../Dave/Generated/UCPROBE/probe_scope.c ****     switch (ProbeScope_Mode) {
 1941              	 .loc 1 305 0
 1942              	 .cfi_startproc
 1943 0000 38B5     	 push {r3,r4,r5,lr}
 1944              	.LCFI4:
 1945              	 .cfi_def_cfa_offset 16
 1946              	 .cfi_offset 3,-16
 1947              	 .cfi_offset 4,-12
 1948              	 .cfi_offset 5,-8
 1949              	 .cfi_offset 14,-4
 306:../Dave/Generated/UCPROBE/probe_scope.c ****         case PROBE_SCOPE_MODE_OFF:
 1950              	 .loc 1 306 0
 1951 0002 314B     	 ldr r3,.L236
 1952 0004 1B78     	 ldrb r3,[r3]
 1953 0006 012B     	 cmp r3,#1
 1954 0008 05D0     	 beq .L217
 1955 000a 002B     	 cmp r3,#0
 1956 000c 1AD0     	 beq .L215
 1957 000e 022B     	 cmp r3,#2
 1958 0010 08D0     	 beq .L216
 1959 0012 032B     	 cmp r3,#3
 1960 0014 05D1     	 bne .L212
 1961              	.L217:
 1962              	.LBB216:
 1963              	.LBB217:
 394:../Dave/Generated/UCPROBE/probe_scope.c ****         ProbeScope_SamplingClkDivCtr--;
 1964              	 .loc 1 394 0
 1965 0016 2D4A     	 ldr r2,.L236+4
 1966 0018 1388     	 ldrh r3,[r2]
 1967 001a 012B     	 cmp r3,#1
 1968 001c 1BD9     	 bls .L218
 395:../Dave/Generated/UCPROBE/probe_scope.c ****     } else { 
 1969              	 .loc 1 395 0
 1970 001e 013B     	 sub r3,r3,#1
 1971 0020 1380     	 strh r3,[r2]
 1972              	.L212:
 1973              	.LBE217:
 1974              	.LBE216:
 323:../Dave/Generated/UCPROBE/probe_scope.c ****     
 1975              	 .loc 1 323 0
 1976              	 
 1977 0022 38BD     	 pop {r3,r4,r5,pc}
 1978              	.L216:
 1979              	.LBB218:
 1980              	.LBB219:
 360:../Dave/Generated/UCPROBE/probe_scope.c ****         ProbeScope_TrigFlag = 0;
 1981              	 .loc 1 360 0
 1982 0024 2A4C     	 ldr r4,.L236+8
 1983 0026 2368     	 ldr r3,[r4]
 1984 0028 002B     	 cmp r3,#0
 1985 002a 07D1     	 bne .L220
 361:../Dave/Generated/UCPROBE/probe_scope.c ****         if (ProbeScope_SamplingClkDivCtr > 1) {
 1986              	 .loc 1 361 0
 1987 002c 294D     	 ldr r5,.L236+12
 362:../Dave/Generated/UCPROBE/probe_scope.c ****             ProbeScope_SamplingClkDivCtr--;
 1988              	 .loc 1 362 0
 1989 002e 274A     	 ldr r2,.L236+4
 361:../Dave/Generated/UCPROBE/probe_scope.c ****         if (ProbeScope_SamplingClkDivCtr > 1) {
 1990              	 .loc 1 361 0
 1991 0030 2B60     	 str r3,[r5]
 362:../Dave/Generated/UCPROBE/probe_scope.c ****             ProbeScope_SamplingClkDivCtr--;
 1992              	 .loc 1 362 0
 1993 0032 1388     	 ldrh r3,[r2]
 1994 0034 012B     	 cmp r3,#1
 1995 0036 11D9     	 bls .L221
 363:../Dave/Generated/UCPROBE/probe_scope.c ****         } else {
 1996              	 .loc 1 363 0
 1997 0038 013B     	 sub r3,r3,#1
 1998 003a 1380     	 strh r3,[r2]
 1999              	.L220:
 377:../Dave/Generated/UCPROBE/probe_scope.c **** }
 2000              	 .loc 1 377 0
 2001 003c 0022     	 mov r2,#0
 2002 003e 264B     	 ldr r3,.L236+16
 2003 0040 1A70     	 strb r2,[r3]
 2004 0042 EEE7     	 b .L212
 2005              	.L215:
 2006              	.LBE219:
 2007              	.LBE218:
 2008              	.LBB247:
 2009              	.LBB248:
 340:../Dave/Generated/UCPROBE/probe_scope.c ****     if (ProbeScope_SamplingClkDiv == 0) {
 2010              	 .loc 1 340 0
 2011 0044 244A     	 ldr r2,.L236+16
 2012 0046 1370     	 strb r3,[r2]
 341:../Dave/Generated/UCPROBE/probe_scope.c ****         ProbeScope_SamplingClkDiv =  1;
 2013              	 .loc 1 341 0
 2014 0048 244B     	 ldr r3,.L236+20
 2015 004a 1A88     	 ldrh r2,[r3]
 2016 004c 002A     	 cmp r2,#0
 2017 004e E8D1     	 bne .L212
 342:../Dave/Generated/UCPROBE/probe_scope.c ****     }
 2018              	 .loc 1 342 0
 2019 0050 0132     	 add r2,r2,#1
 2020 0052 1A80     	 strh r2,[r3]
 2021 0054 E5E7     	 b .L212
 2022              	.L218:
 2023              	.LBE248:
 2024              	.LBE247:
 2025              	.LBB249:
 2026              	.LBB250:
 2027 0056 FFF7FEFF 	 bl ProbeScope_ModeTrig.part.1
 2028              	.LVL143:
 2029 005a E2E7     	 b .L212
 2030              	.L221:
 2031              	.LBE250:
 2032              	.LBE249:
 2033              	.LBB251:
 2034              	.LBB246:
 365:../Dave/Generated/UCPROBE/probe_scope.c ****                 ProbeScope_SamplingClkDiv =  1;
 2035              	 .loc 1 365 0
 2036 005c 1F49     	 ldr r1,.L236+20
 2037 005e 0B88     	 ldrh r3,[r1]
 2038 0060 002B     	 cmp r3,#0
 2039 0062 01D1     	 bne .L222
 366:../Dave/Generated/UCPROBE/probe_scope.c ****             }
 2040              	 .loc 1 366 0
 2041 0064 0133     	 add r3,r3,#1
 2042 0066 0B80     	 strh r3,[r1]
 2043              	.L222:
 2044              	.LBB220:
 2045              	.LBB221:
 2046              	.LBB222:
 2047              	.LBB223:
 530:../Dave/Generated/UCPROBE/probe_scope.c ****         p_sample = &p_ch->Samples[ProbeScope_SampleIxCur];          // Point to current position in
 2048              	 .loc 1 530 0
 2049 0068 1D48     	 ldr r0,.L236+24
 2050              	.LBE223:
 2051              	.LBE222:
 2052              	.LBE221:
 2053              	.LBE220:
 368:../Dave/Generated/UCPROBE/probe_scope.c ****             ProbeScope_SampleChAll();                                           // Get the first sa
 2054              	 .loc 1 368 0
 2055 006a 1380     	 strh r3,[r2]
 2056              	.LVL144:
 2057              	.LBB242:
 2058              	.LBB240:
 2059              	.LBB226:
 2060              	.LBB224:
 530:../Dave/Generated/UCPROBE/probe_scope.c ****         p_sample = &p_ch->Samples[ProbeScope_SampleIxCur];          // Point to current position in
 2061              	 .loc 1 530 0
 2062 006c 0368     	 ldr r3,[r0]
 2063 006e 012B     	 cmp r3,#1
 2064 0070 26D0     	 beq .L232
 2065              	.L223:
 2066              	.LVL145:
 2067              	.LBE224:
 2068              	.LBE226:
 2069              	.LBB227:
 2070              	.LBB228:
 2071 0072 1C48     	 ldr r0,.L236+28
 2072 0074 0368     	 ldr r3,[r0]
 2073 0076 012B     	 cmp r3,#1
 2074 0078 1FD0     	 beq .L233
 2075              	.L224:
 2076              	.LVL146:
 2077              	.LBE228:
 2078              	.LBE227:
 2079              	.LBB230:
 2080              	.LBB231:
 2081 007a 1B48     	 ldr r0,.L236+32
 2082 007c 0368     	 ldr r3,[r0]
 2083 007e 012B     	 cmp r3,#1
 2084 0080 18D0     	 beq .L234
 2085              	.L225:
 2086              	.LVL147:
 2087              	.LBE231:
 2088              	.LBE230:
 2089              	.LBB233:
 2090              	.LBB234:
 2091 0082 1A48     	 ldr r0,.L236+36
 2092 0084 0368     	 ldr r3,[r0]
 2093 0086 012B     	 cmp r3,#1
 2094 0088 11D0     	 beq .L235
 2095              	.L226:
 2096              	.LBE234:
 2097              	.LBE233:
 2098              	.LBE240:
 2099              	.LBE242:
 2100              	.LBB243:
 2101              	.LBB244:
 637:../Dave/Generated/UCPROBE/probe_scope.c ****     ProbeScope_SampleIxCur++;                                      // Position to where next sample
 2102              	 .loc 1 637 0
 2103 008a 194A     	 ldr r2,.L236+40
 2104 008c 1949     	 ldr r1,.L236+44
 2105 008e 1368     	 ldr r3,[r2]
 2106 0090 0B60     	 str r3,[r1]
 639:../Dave/Generated/UCPROBE/probe_scope.c ****         ProbeScope_SampleIxCur = 0;                                // yes
 2107              	 .loc 1 639 0
 2108 0092 1949     	 ldr r1,.L236+48
 638:../Dave/Generated/UCPROBE/probe_scope.c ****     if (ProbeScope_SampleIxCur >= PROBE_SCOPE_MAX_SAMPLES) {       // See if we need to wrap around
 2109              	 .loc 1 638 0
 2110 0094 0133     	 add r3,r3,#1
 2111 0096 1360     	 str r3,[r2]
 639:../Dave/Generated/UCPROBE/probe_scope.c ****         ProbeScope_SampleIxCur = 0;                                // yes
 2112              	 .loc 1 639 0
 2113 0098 8B42     	 cmp r3,r1
 2114 009a 05D9     	 bls .L227
 640:../Dave/Generated/UCPROBE/probe_scope.c ****     }
 2115              	 .loc 1 640 0
 2116 009c 0023     	 mov r3,#0
 2117 009e 1360     	 str r3,[r2]
 2118              	.L228:
 2119              	.LBE244:
 2120              	.LBE243:
 372:../Dave/Generated/UCPROBE/probe_scope.c ****                 ProbeScope_TrigFlag    = 1;
 2121              	 .loc 1 372 0
 2122 00a0 0123     	 mov r3,#1
 2123 00a2 2360     	 str r3,[r4]
 373:../Dave/Generated/UCPROBE/probe_scope.c ****             }
 2124              	 .loc 1 373 0
 2125 00a4 2B60     	 str r3,[r5]
 2126 00a6 C9E7     	 b .L220
 2127              	.L227:
 371:../Dave/Generated/UCPROBE/probe_scope.c ****                 ProbeScope_DataRdyFlag = 1;   
 2128              	 .loc 1 371 0
 2129 00a8 002B     	 cmp r3,#0
 2130 00aa C7D1     	 bne .L220
 2131 00ac F8E7     	 b .L228
 2132              	.L235:
 2133              	.LBB245:
 2134              	.LBB241:
 2135              	.LBB236:
 2136              	.LBB235:
 2137 00ae FFF7FEFF 	 bl ProbeScope_SampleCh.part.0
 2138              	.LVL148:
 2139 00b2 EAE7     	 b .L226
 2140              	.LVL149:
 2141              	.L234:
 2142              	.LBE235:
 2143              	.LBE236:
 2144              	.LBB237:
 2145              	.LBB232:
 2146 00b4 FFF7FEFF 	 bl ProbeScope_SampleCh.part.0
 2147              	.LVL150:
 2148 00b8 E3E7     	 b .L225
 2149              	.LVL151:
 2150              	.L233:
 2151              	.LBE232:
 2152              	.LBE237:
 2153              	.LBB238:
 2154              	.LBB229:
 2155 00ba FFF7FEFF 	 bl ProbeScope_SampleCh.part.0
 2156              	.LVL152:
 2157 00be DCE7     	 b .L224
 2158              	.LVL153:
 2159              	.L232:
 2160              	.LBE229:
 2161              	.LBE238:
 2162              	.LBB239:
 2163              	.LBB225:
 2164 00c0 FFF7FEFF 	 bl ProbeScope_SampleCh.part.0
 2165              	.LVL154:
 2166 00c4 D5E7     	 b .L223
 2167              	.L237:
 2168 00c6 C046     	 .align 2
 2169              	.L236:
 2170 00c8 00000000 	 .word .LANCHOR14
 2171 00cc 00000000 	 .word .LANCHOR6
 2172 00d0 00000000 	 .word ProbeScope_DataRdyFlag
 2173 00d4 00000000 	 .word ProbeScope_TrigFlag
 2174 00d8 00000000 	 .word .LANCHOR7
 2175 00dc 00000000 	 .word .LANCHOR5
 2176 00e0 00000000 	 .word .LANCHOR1
 2177 00e4 00000000 	 .word .LANCHOR2
 2178 00e8 00000000 	 .word .LANCHOR3
 2179 00ec 00000000 	 .word .LANCHOR4
 2180 00f0 00000000 	 .word .LANCHOR0
 2181 00f4 00000000 	 .word .LANCHOR8
 2182 00f8 FF010000 	 .word 511
 2183              	.LBE225:
 2184              	.LBE239:
 2185              	.LBE241:
 2186              	.LBE245:
 2187              	.LBE246:
 2188              	.LBE251:
 2189              	 .cfi_endproc
 2190              	.LFE1:
 2192              	 .comm ProbeScope_SamplingClkHz,4,4
 2193              	 .comm ProbeScope_TrigIx,4,4
 2194              	 .comm ProbeScope_TrigHoldOff,4,4
 2195              	 .comm ProbeScope_TrigFlag,4,4
 2196              	 .comm ProbeScope_TrigDispPos,4,4
 2197              	 .comm ProbeScope_InitFlag,4,4
 2198              	 .comm ProbeScope_DataRdyFlag,4,4
 2199              	 .section .bss.ProbeScope_SamplingClkDiv,"aw",%nobits
 2200              	 .align 1
 2201              	 .set .LANCHOR5,.+0
 2204              	ProbeScope_SamplingClkDiv:
 2205 0000 0000     	 .space 2
 2206              	 .section .bss.ProbeScope_SamplesPreTrigCtr,"aw",%nobits
 2207              	 .align 2
 2208              	 .set .LANCHOR11,.+0
 2211              	ProbeScope_SamplesPreTrigCtr:
 2212 0000 00000000 	 .space 4
 2213              	 .section .bss.ProbeScope_SampleIxPrev,"aw",%nobits
 2214              	 .align 2
 2215              	 .set .LANCHOR8,.+0
 2218              	ProbeScope_SampleIxPrev:
 2219 0000 00000000 	 .space 4
 2220              	 .section .data.ProbeScopeDbg_MaxCh,"aw",%progbits
 2221              	 .set .LANCHOR16,.+0
 2224              	ProbeScopeDbg_MaxCh:
 2225 0000 04       	 .byte 4
 2226              	 .section .bss.ProbeScope_State,"aw",%nobits
 2227              	 .set .LANCHOR7,.+0
 2230              	ProbeScope_State:
 2231 0000 00       	 .space 1
 2232              	 .section .bss.ProbeScope_TrigSlope,"aw",%nobits
 2233              	 .align 2
 2234              	 .set .LANCHOR13,.+0
 2237              	ProbeScope_TrigSlope:
 2238 0000 00000000 	 .space 4
 2239              	 .section .bss.ProbeScope_Ch1,"aw",%nobits
 2240              	 .align 2
 2241              	 .set .LANCHOR1,.+0
 2244              	ProbeScope_Ch1:
 2245 0000 00000000 	 .space 2072
 2245      00000000 
 2245      00000000 
 2245      00000000 
 2245      00000000 
 2246              	 .section .bss.ProbeScope_Ch2,"aw",%nobits
 2247              	 .align 2
 2248              	 .set .LANCHOR2,.+0
 2251              	ProbeScope_Ch2:
 2252 0000 00000000 	 .space 2072
 2252      00000000 
 2252      00000000 
 2252      00000000 
 2252      00000000 
 2253              	 .section .bss.ProbeScope_Ch3,"aw",%nobits
 2254              	 .align 2
 2255              	 .set .LANCHOR3,.+0
 2258              	ProbeScope_Ch3:
 2259 0000 00000000 	 .space 2072
 2259      00000000 
 2259      00000000 
 2259      00000000 
 2259      00000000 
 2260              	 .section .bss.ProbeScope_Ch4,"aw",%nobits
 2261              	 .align 2
 2262              	 .set .LANCHOR4,.+0
 2265              	ProbeScope_Ch4:
 2266 0000 00000000 	 .space 2072
 2266      00000000 
 2266      00000000 
 2266      00000000 
 2266      00000000 
 2267              	 .section .bss.ProbeScope_TrigChSel,"aw",%nobits
 2268              	 .set .LANCHOR12,.+0
 2271              	ProbeScope_TrigChSel:
 2272 0000 00       	 .space 1
 2273              	 .section .bss.ProbeScope_Mode,"aw",%nobits
 2274              	 .set .LANCHOR14,.+0
 2277              	ProbeScope_Mode:
 2278 0000 00       	 .space 1
 2279              	 .section .bss.ProbeScope_SamplingClkDivCtr,"aw",%nobits
 2280              	 .align 1
 2281              	 .set .LANCHOR6,.+0
 2284              	ProbeScope_SamplingClkDivCtr:
 2285 0000 0000     	 .space 2
 2286              	 .section .data.ProbeScopeDbg_16BitEn,"aw",%progbits
 2287              	 .align 2
 2288              	 .set .LANCHOR17,.+0
 2291              	ProbeScopeDbg_16BitEn:
 2292 0000 01000000 	 .word 1
 2293              	 .section .bss.ProbeScope_TrigHoldOffCtr,"aw",%nobits
 2294              	 .align 2
 2295              	 .set .LANCHOR9,.+0
 2298              	ProbeScope_TrigHoldOffCtr:
 2299 0000 00000000 	 .space 4
 2300              	 .section .bss.ProbeScope_SamplesPostTrigCtr,"aw",%nobits
 2301              	 .align 2
 2302              	 .set .LANCHOR10,.+0
 2305              	ProbeScope_SamplesPostTrigCtr:
 2306 0000 00000000 	 .space 4
 2307              	 .section .data.ProbeScopeDbg_MaxSamples,"aw",%progbits
 2308              	 .align 1
 2309              	 .set .LANCHOR15,.+0
 2312              	ProbeScopeDbg_MaxSamples:
 2313 0000 0002     	 .short 512
 2314              	 .section .data.ProbeScopeDbg_32BitEn,"aw",%progbits
 2315              	 .align 2
 2316              	 .set .LANCHOR18,.+0
 2319              	ProbeScopeDbg_32BitEn:
 2320 0000 01000000 	 .word 1
 2321              	 .section .bss.ProbeScope_SampleIxCur,"aw",%nobits
 2322              	 .align 2
 2323              	 .set .LANCHOR0,.+0
 2326              	ProbeScope_SampleIxCur:
 2327 0000 00000000 	 .space 4
 2328              	 .section .bss.temp.4199,"aw",%nobits
 2329              	 .align 2
 2330              	 .set .LANCHOR19,.+0
 2333              	temp.4199:
 2334 0000 00000000 	 .space 4
 2335              	 .text
 2336              	.Letext0:
 2337              	 .file 2 "c:\\users\\jutta.schuerba\\desktop\\dave-ide-4.4.2-64bit\\eclipse\\arm-gcc-49\\arm-none-eabi\\include\\machine\\_default_types.h"
 2338              	 .file 3 "c:\\users\\jutta.schuerba\\desktop\\dave-ide-4.4.2-64bit\\eclipse\\arm-gcc-49\\arm-none-eabi\\include\\stdint.h"