   1              	 .cpu cortex-m0
   2              	 .fpu softvfp
   3              	 .eabi_attribute 20,1
   4              	 .eabi_attribute 21,1
   5              	 .eabi_attribute 23,3
   6              	 .eabi_attribute 24,1
   7              	 .eabi_attribute 25,1
   8              	 .eabi_attribute 26,1
   9              	 .eabi_attribute 30,2
  10              	 .eabi_attribute 34,0
  11              	 .eabi_attribute 18,4
  12              	 .code 16
  13              	 .file "probe_com.c"
  14              	 .text
  15              	.Ltext0:
  16              	 .cfi_sections .debug_frame
  17              	 .section .text.ProbeCom_PktModifier,"ax",%progbits
  18              	 .align 2
  19              	 .code 16
  20              	 .thumb_func
  22              	ProbeCom_PktModifier:
  23              	.LFB11:
  24              	 .file 1 "../Dave/Generated/UCPROBE/probe_com.c"
   1:../Dave/Generated/UCPROBE/probe_com.c **** /*
   2:../Dave/Generated/UCPROBE/probe_com.c **** ***************************************************************************************************
   3:../Dave/Generated/UCPROBE/probe_com.c **** *                                       uC/Probe Communication
   4:../Dave/Generated/UCPROBE/probe_com.c **** *
   5:../Dave/Generated/UCPROBE/probe_com.c **** *                         (c) Copyright 2007-2008; Micrium, Inc.; Weston, FL
   6:../Dave/Generated/UCPROBE/probe_com.c **** *
   7:../Dave/Generated/UCPROBE/probe_com.c **** *               All rights reserved.  Protected by international copyright laws.
   8:../Dave/Generated/UCPROBE/probe_com.c **** *               Knowledge of the source code may NOT be used to develop a similar product.
   9:../Dave/Generated/UCPROBE/probe_com.c **** *               Please help us continue to provide the Embedded community with the finest
  10:../Dave/Generated/UCPROBE/probe_com.c **** *               software available.  Your honesty is greatly appreciated.
  11:../Dave/Generated/UCPROBE/probe_com.c **** ***************************************************************************************************
  12:../Dave/Generated/UCPROBE/probe_com.c **** */
  13:../Dave/Generated/UCPROBE/probe_com.c **** 
  14:../Dave/Generated/UCPROBE/probe_com.c **** /*
  15:../Dave/Generated/UCPROBE/probe_com.c **** ***************************************************************************************************
  16:../Dave/Generated/UCPROBE/probe_com.c **** *
  17:../Dave/Generated/UCPROBE/probe_com.c **** *                                       COMMUNICATION: GENERIC
  18:../Dave/Generated/UCPROBE/probe_com.c **** *
  19:../Dave/Generated/UCPROBE/probe_com.c **** * Filename      : probe_com.c
  20:../Dave/Generated/UCPROBE/probe_com.c **** * Version       : V2.30
  21:../Dave/Generated/UCPROBE/probe_com.c **** * Programmer(s) : BAN
  22:../Dave/Generated/UCPROBE/probe_com.c **** ***************************************************************************************************
  23:../Dave/Generated/UCPROBE/probe_com.c **** * Note(s)       : (1) This file contains code to respond to generic (non protocol-dependent) comman
  24:../Dave/Generated/UCPROBE/probe_com.c **** *                     received by the target.
  25:../Dave/Generated/UCPROBE/probe_com.c **** ***************************************************************************************************
  26:../Dave/Generated/UCPROBE/probe_com.c **** */
  27:../Dave/Generated/UCPROBE/probe_com.c **** 
  28:../Dave/Generated/UCPROBE/probe_com.c **** 
  29:../Dave/Generated/UCPROBE/probe_com.c **** /*
  30:../Dave/Generated/UCPROBE/probe_com.c **** ***************************************************************************************************
  31:../Dave/Generated/UCPROBE/probe_com.c **** *                                            INCLUDE FILES
  32:../Dave/Generated/UCPROBE/probe_com.c **** ***************************************************************************************************
  33:../Dave/Generated/UCPROBE/probe_com.c **** */
  34:../Dave/Generated/UCPROBE/probe_com.c **** 
  35:../Dave/Generated/UCPROBE/probe_com.c **** #define   PROBE_COM_MODULE
  36:../Dave/Generated/UCPROBE/probe_com.c **** #include  "probe_com.h"
  37:../Dave/Generated/UCPROBE/probe_com.c **** 
  38:../Dave/Generated/UCPROBE/probe_com.c **** 
  39:../Dave/Generated/UCPROBE/probe_com.c **** /*
  40:../Dave/Generated/UCPROBE/probe_com.c **** ***************************************************************************************************
  41:../Dave/Generated/UCPROBE/probe_com.c **** *                                            LOCAL DEFINES
  42:../Dave/Generated/UCPROBE/probe_com.c **** ***************************************************************************************************
  43:../Dave/Generated/UCPROBE/probe_com.c **** */
  44:../Dave/Generated/UCPROBE/probe_com.c **** 
  45:../Dave/Generated/UCPROBE/probe_com.c **** /*
  46:../Dave/Generated/UCPROBE/probe_com.c **** ***************************************************************************************************
  47:../Dave/Generated/UCPROBE/probe_com.c **** *                                        DATA FORMATS DEFINES
  48:../Dave/Generated/UCPROBE/probe_com.c **** ***************************************************************************************************
  49:../Dave/Generated/UCPROBE/probe_com.c **** */
  50:../Dave/Generated/UCPROBE/probe_com.c **** 
  51:../Dave/Generated/UCPROBE/probe_com.c **** #define  PROBE_COM_FMT_TX_ERR                         0x8000u
  52:../Dave/Generated/UCPROBE/probe_com.c **** 
  53:../Dave/Generated/UCPROBE/probe_com.c **** #define  PROBE_COM_FMT_RX_QUERY                       0x0001u   /* Query setup parameter or capabil
  54:../Dave/Generated/UCPROBE/probe_com.c **** #define  PROBE_COM_FMT_TX_QUERY                       0x8001u
  55:../Dave/Generated/UCPROBE/probe_com.c **** 
  56:../Dave/Generated/UCPROBE/probe_com.c **** #define  PROBE_COM_FMT_RX_RD                          0x0002u   /* Read data at memory address.    
  57:../Dave/Generated/UCPROBE/probe_com.c **** #define  PROBE_COM_FMT_TX_RD                          0x8002u
  58:../Dave/Generated/UCPROBE/probe_com.c **** 
  59:../Dave/Generated/UCPROBE/probe_com.c **** #define  PROBE_COM_FMT_RX_WR                          0x0003u   /* Write data at memory address.   
  60:../Dave/Generated/UCPROBE/probe_com.c **** #define  PROBE_COM_FMT_TX_WR                          0x8003u
  61:../Dave/Generated/UCPROBE/probe_com.c **** 
  62:../Dave/Generated/UCPROBE/probe_com.c **** #define  PROBE_COM_FMT_RX_RD_MULTI                    0x0007u   /* Read data at multiple memory add
  63:../Dave/Generated/UCPROBE/probe_com.c **** #define  PROBE_COM_FMT_TX_RD_MULTI                    0x8007u
  64:../Dave/Generated/UCPROBE/probe_com.c **** #define  PROBE_COM_FMT_TX_RD_MULTI_LO                   0x07u
  65:../Dave/Generated/UCPROBE/probe_com.c **** #define  PROBE_COM_FMT_TX_RD_MULTI_HI                   0x80u
  66:../Dave/Generated/UCPROBE/probe_com.c **** 
  67:../Dave/Generated/UCPROBE/probe_com.c **** #define  PROBE_COM_FMT_RX_WR_MULTI                    0x0008u   /* Write data at multiple memory ad
  68:../Dave/Generated/UCPROBE/probe_com.c **** #define  PROBE_COM_FMT_TX_WR_MULTI                    0x8008u
  69:../Dave/Generated/UCPROBE/probe_com.c **** 
  70:../Dave/Generated/UCPROBE/probe_com.c **** #define  PROBE_COM_FMT_RX_STR_OUT                     0x0009u   /* Transmit output string to Probe.
  71:../Dave/Generated/UCPROBE/probe_com.c **** #define  PROBE_COM_FMT_TX_STR_OUT                     0x8009u
  72:../Dave/Generated/UCPROBE/probe_com.c **** 
  73:../Dave/Generated/UCPROBE/probe_com.c **** #define  PROBE_COM_FMT_RX_STR_IN                      0x000Au   /* Receive input string from Probe.
  74:../Dave/Generated/UCPROBE/probe_com.c **** #define  PROBE_COM_FMT_TX_STR_IN                      0x800Au
  75:../Dave/Generated/UCPROBE/probe_com.c **** 
  76:../Dave/Generated/UCPROBE/probe_com.c **** #define  PROBE_COM_FMT_RX_TERMINAL_EXEC               0x000Bu   /* Execute terminal command.       
  77:../Dave/Generated/UCPROBE/probe_com.c **** #define  PROBE_COM_FMT_TX_TERMINAL_EXEC               0x800Bu
  78:../Dave/Generated/UCPROBE/probe_com.c **** 
  79:../Dave/Generated/UCPROBE/probe_com.c **** #define  PROBE_COM_FMT_RX_TERMINAL_OUT                0x000Cu   /* Transmit output data to Probe.  
  80:../Dave/Generated/UCPROBE/probe_com.c **** #define  PROBE_COM_FMT_TX_TERMINAL_OUT                0x800Cu
  81:../Dave/Generated/UCPROBE/probe_com.c **** 
  82:../Dave/Generated/UCPROBE/probe_com.c **** #define  PROBE_COM_FMT_RX_TERMINAL_IN                 0x000Du   /* Receive input data from Probe.  
  83:../Dave/Generated/UCPROBE/probe_com.c **** #define  PROBE_COM_FMT_TX_TERMINAL_IN                 0x800Du
  84:../Dave/Generated/UCPROBE/probe_com.c **** 
  85:../Dave/Generated/UCPROBE/probe_com.c **** /*
  86:../Dave/Generated/UCPROBE/probe_com.c **** ***************************************************************************************************
  87:../Dave/Generated/UCPROBE/probe_com.c **** *                                      STATUS CONSTANTS DEFINES
  88:../Dave/Generated/UCPROBE/probe_com.c **** ***************************************************************************************************
  89:../Dave/Generated/UCPROBE/probe_com.c **** */
  90:../Dave/Generated/UCPROBE/probe_com.c **** 
  91:../Dave/Generated/UCPROBE/probe_com.c **** #define  PROBE_COM_STATUS_OK                            0x01u
  92:../Dave/Generated/UCPROBE/probe_com.c **** #define  PROBE_COM_STATUS_TERMINAL_EXEC_NOT_RDY         0xF4u   /* Terminal not rdy to exec new cmd
  93:../Dave/Generated/UCPROBE/probe_com.c **** #define  PROBE_COM_STATUS_TERMINAL_IN_OVF               0xF5u   /* Terminal in buf ovf'd.          
  94:../Dave/Generated/UCPROBE/probe_com.c **** #define  PROBE_COM_STATUS_TERMINAL_OUT_NONE             0xF6u   /* Terminal out buf empty.         
  95:../Dave/Generated/UCPROBE/probe_com.c **** #define  PROBE_COM_STATUS_STR_IN_OVF                    0xF7u   /* String in buf ovf'd.            
  96:../Dave/Generated/UCPROBE/probe_com.c **** #define  PROBE_COM_STATUS_STR_OUT_NONE                  0xF8u   /* String out buf empty.           
  97:../Dave/Generated/UCPROBE/probe_com.c **** #define  PROBE_COM_STATUS_UNKNOWN_REQUEST               0xF9u   /* Unknown req.                    
  98:../Dave/Generated/UCPROBE/probe_com.c **** #define  PROBE_COM_STATUS_QUERY_NOT_SUPPORTED           0xFCu   /* Query not supported.            
  99:../Dave/Generated/UCPROBE/probe_com.c **** #define  PROBE_COM_STATUS_TX_PKT_TOO_LARGE              0xFDu   /* Reply pkt too large for buf.    
 100:../Dave/Generated/UCPROBE/probe_com.c **** #define  PROBE_COM_STATUS_RX_PKT_WRONG_SIZE             0xFEu   /* Req pkt not correct size.       
 101:../Dave/Generated/UCPROBE/probe_com.c **** #define  PROBE_COM_STATUS_FAIL                          0xFFu   /* Req exec failed (or unknown err)
 102:../Dave/Generated/UCPROBE/probe_com.c **** 
 103:../Dave/Generated/UCPROBE/probe_com.c **** /*
 104:../Dave/Generated/UCPROBE/probe_com.c **** ***************************************************************************************************
 105:../Dave/Generated/UCPROBE/probe_com.c **** *                                           QUERIES DEFINES
 106:../Dave/Generated/UCPROBE/probe_com.c **** ***************************************************************************************************
 107:../Dave/Generated/UCPROBE/probe_com.c **** */
 108:../Dave/Generated/UCPROBE/probe_com.c **** 
 109:../Dave/Generated/UCPROBE/probe_com.c ****                                                                 /* ------------------- CONFIGURATIO
 110:../Dave/Generated/UCPROBE/probe_com.c **** #define  PROBE_COM_QUERY_MAX_RX_SIZE                  0x0101u   /* Get data size of largest pkt tar
 111:../Dave/Generated/UCPROBE/probe_com.c **** #define  PROBE_COM_QUERY_MAX_TX_SIZE                  0x0102u   /* Get data size of largest pkt tar
 112:../Dave/Generated/UCPROBE/probe_com.c **** 
 113:../Dave/Generated/UCPROBE/probe_com.c ****                                                                 /* ----------------- TARGET PROPERT
 114:../Dave/Generated/UCPROBE/probe_com.c **** #define  PROBE_COM_QUERY_ENDIANNESS_TEST              0x0201u   /* Test endianness of target.      
 115:../Dave/Generated/UCPROBE/probe_com.c **** #define  PROBE_COM_QUERY_STATUS                       0x0202u   /* Target status.                  
 116:../Dave/Generated/UCPROBE/probe_com.c **** 
 117:../Dave/Generated/UCPROBE/probe_com.c ****                                                                 /* ------------- COMMUNICATION CAPA
 118:../Dave/Generated/UCPROBE/probe_com.c **** #define  PROBE_COM_QUERY_FMT_SUPPORT                  0x1001u   /* Get list of supported req's.    
 119:../Dave/Generated/UCPROBE/probe_com.c **** #define  PROBE_COM_QUERY_VERSION                      0x1002u   /* Get target code ver.            
 120:../Dave/Generated/UCPROBE/probe_com.c **** 
 121:../Dave/Generated/UCPROBE/probe_com.c **** /*
 122:../Dave/Generated/UCPROBE/probe_com.c **** ***************************************************************************************************
 123:../Dave/Generated/UCPROBE/probe_com.c **** *                                          MODIFIERS DEFINES
 124:../Dave/Generated/UCPROBE/probe_com.c **** ***************************************************************************************************
 125:../Dave/Generated/UCPROBE/probe_com.c **** */
 126:../Dave/Generated/UCPROBE/probe_com.c **** 
 127:../Dave/Generated/UCPROBE/probe_com.c **** #define  PROBE_COM_MODIFIER_NONE                  DEF_BIT_NONE
 128:../Dave/Generated/UCPROBE/probe_com.c **** #define  PROBE_COM_MODIFIER_STR_OUT_AVAIL         DEF_BIT_00    /* Str out is avail.               
 129:../Dave/Generated/UCPROBE/probe_com.c **** #define  PROBE_COM_MODIFIER_TERMINAL_EXEC_DONE    DEF_BIT_01    /* Terminal cmd exec done.         
 130:../Dave/Generated/UCPROBE/probe_com.c **** #define  PROBE_COM_MODIFIER_TERMINAL_OUT_AVAIL    DEF_BIT_02    /* Terminal out is avail.          
 131:../Dave/Generated/UCPROBE/probe_com.c **** 
 132:../Dave/Generated/UCPROBE/probe_com.c **** /*
 133:../Dave/Generated/UCPROBE/probe_com.c **** ***************************************************************************************************
 134:../Dave/Generated/UCPROBE/probe_com.c **** *                                        HEADER SIZES DEFINES
 135:../Dave/Generated/UCPROBE/probe_com.c **** *
 136:../Dave/Generated/UCPROBE/probe_com.c **** * Note(s):  (1) The first four bytes in all tx data segments is identical:
 137:../Dave/Generated/UCPROBE/probe_com.c **** *
 138:../Dave/Generated/UCPROBE/probe_com.c **** *               (a) A 2-byte format;
 139:../Dave/Generated/UCPROBE/probe_com.c **** *               (b) A 1-byte status;
 140:../Dave/Generated/UCPROBE/probe_com.c **** *               (c) A 1-byte modifier, currently unused.
 141:../Dave/Generated/UCPROBE/probe_com.c **** *
 142:../Dave/Generated/UCPROBE/probe_com.c **** *           (2) The first two bytes in all rx data segments is identical:
 143:../Dave/Generated/UCPROBE/probe_com.c **** *
 144:../Dave/Generated/UCPROBE/probe_com.c **** *               (a) A 2-byte format.
 145:../Dave/Generated/UCPROBE/probe_com.c **** ***************************************************************************************************
 146:../Dave/Generated/UCPROBE/probe_com.c **** */
 147:../Dave/Generated/UCPROBE/probe_com.c **** 
 148:../Dave/Generated/UCPROBE/probe_com.c **** #define  PROBE_COM_SIZE_RX_HDR                             2u
 149:../Dave/Generated/UCPROBE/probe_com.c **** #define  PROBE_COM_SIZE_TX_HDR                             4u
 150:../Dave/Generated/UCPROBE/probe_com.c **** 
 151:../Dave/Generated/UCPROBE/probe_com.c **** /*
 152:../Dave/Generated/UCPROBE/probe_com.c **** ***************************************************************************************************
 153:../Dave/Generated/UCPROBE/probe_com.c **** *                                           LOCAL CONSTANTS
 154:../Dave/Generated/UCPROBE/probe_com.c **** ***************************************************************************************************
 155:../Dave/Generated/UCPROBE/probe_com.c **** */
 156:../Dave/Generated/UCPROBE/probe_com.c **** 
 157:../Dave/Generated/UCPROBE/probe_com.c **** 
 158:../Dave/Generated/UCPROBE/probe_com.c **** /*
 159:../Dave/Generated/UCPROBE/probe_com.c **** ***************************************************************************************************
 160:../Dave/Generated/UCPROBE/probe_com.c **** *                                          LOCAL DATA TYPES
 161:../Dave/Generated/UCPROBE/probe_com.c **** ***************************************************************************************************
 162:../Dave/Generated/UCPROBE/probe_com.c **** */
 163:../Dave/Generated/UCPROBE/probe_com.c **** 
 164:../Dave/Generated/UCPROBE/probe_com.c **** typedef  struct  probe_com_buf {
 165:../Dave/Generated/UCPROBE/probe_com.c ****     CPU_SIZE_T   Len;
 166:../Dave/Generated/UCPROBE/probe_com.c ****     CPU_SIZE_T   IxRd;
 167:../Dave/Generated/UCPROBE/probe_com.c ****     CPU_SIZE_T   IxWr;
 168:../Dave/Generated/UCPROBE/probe_com.c ****     CPU_INT08U  *DataPtr;
 169:../Dave/Generated/UCPROBE/probe_com.c **** } PROBE_COM_BUF;
 170:../Dave/Generated/UCPROBE/probe_com.c **** 
 171:../Dave/Generated/UCPROBE/probe_com.c **** 
 172:../Dave/Generated/UCPROBE/probe_com.c **** /*
 173:../Dave/Generated/UCPROBE/probe_com.c **** ***************************************************************************************************
 174:../Dave/Generated/UCPROBE/probe_com.c **** *                                            LOCAL TABLES
 175:../Dave/Generated/UCPROBE/probe_com.c **** ***************************************************************************************************
 176:../Dave/Generated/UCPROBE/probe_com.c **** */
 177:../Dave/Generated/UCPROBE/probe_com.c **** 
 178:../Dave/Generated/UCPROBE/probe_com.c **** 
 179:../Dave/Generated/UCPROBE/probe_com.c **** /*
 180:../Dave/Generated/UCPROBE/probe_com.c **** ***************************************************************************************************
 181:../Dave/Generated/UCPROBE/probe_com.c **** *                                       LOCAL GLOBAL VARIABLES
 182:../Dave/Generated/UCPROBE/probe_com.c **** ***************************************************************************************************
 183:../Dave/Generated/UCPROBE/probe_com.c **** */
 184:../Dave/Generated/UCPROBE/probe_com.c **** 
 185:../Dave/Generated/UCPROBE/probe_com.c **** #if (PROBE_COM_CFG_STR_REQ_EN       == DEF_ENABLED)
 186:../Dave/Generated/UCPROBE/probe_com.c **** static  CPU_CHAR                       ProbeCom_StrInBufData[PROBE_COM_CFG_STR_IN_BUF_SIZE];
 187:../Dave/Generated/UCPROBE/probe_com.c **** static  PROBE_COM_BUF                  ProbeCom_StrInBuf;
 188:../Dave/Generated/UCPROBE/probe_com.c **** 
 189:../Dave/Generated/UCPROBE/probe_com.c **** static  CPU_CHAR                       ProbeCom_StrOutBufData[PROBE_COM_CFG_STR_OUT_BUF_SIZE];
 190:../Dave/Generated/UCPROBE/probe_com.c **** static  PROBE_COM_BUF                  ProbeCom_StrOutBuf;
 191:../Dave/Generated/UCPROBE/probe_com.c **** #endif
 192:../Dave/Generated/UCPROBE/probe_com.c **** 
 193:../Dave/Generated/UCPROBE/probe_com.c **** #if (PROBE_COM_CFG_TERMINAL_REQ_EN  == DEF_ENABLED)
 194:../Dave/Generated/UCPROBE/probe_com.c **** static  PROBE_COM_TERMINAL_EXEC_FNCT   ProbeCom_TerminalExecHandler;
 195:../Dave/Generated/UCPROBE/probe_com.c **** static  CPU_BOOLEAN                    ProbeCom_TerminalExecuting;
 196:../Dave/Generated/UCPROBE/probe_com.c **** 
 197:../Dave/Generated/UCPROBE/probe_com.c **** static  PROBE_COM_TERMINAL_IN_FNCT     ProbeCom_TerminalInHandler;
 198:../Dave/Generated/UCPROBE/probe_com.c **** 
 199:../Dave/Generated/UCPROBE/probe_com.c **** static  CPU_INT08U                    *ProbeCom_TerminalOutBufPtr;
 200:../Dave/Generated/UCPROBE/probe_com.c **** static  CPU_SIZE_T                     ProbeCom_TerminalOutBufIx;
 201:../Dave/Generated/UCPROBE/probe_com.c **** static  CPU_SIZE_T                     ProbeCom_TerminalOutBufLen;
 202:../Dave/Generated/UCPROBE/probe_com.c **** #endif
 203:../Dave/Generated/UCPROBE/probe_com.c **** 
 204:../Dave/Generated/UCPROBE/probe_com.c **** static  CPU_INT32U                     ProbeCom_EndiannessTest;
 205:../Dave/Generated/UCPROBE/probe_com.c **** 
 206:../Dave/Generated/UCPROBE/probe_com.c **** 
 207:../Dave/Generated/UCPROBE/probe_com.c **** /*
 208:../Dave/Generated/UCPROBE/probe_com.c **** ***************************************************************************************************
 209:../Dave/Generated/UCPROBE/probe_com.c **** *                                      LOCAL FUNCTION PROTOTYPES
 210:../Dave/Generated/UCPROBE/probe_com.c **** ***************************************************************************************************
 211:../Dave/Generated/UCPROBE/probe_com.c **** */
 212:../Dave/Generated/UCPROBE/probe_com.c **** 
 213:../Dave/Generated/UCPROBE/probe_com.c **** static  CPU_INT08U   ProbeCom_PktModifier     (void);
 214:../Dave/Generated/UCPROBE/probe_com.c **** 
 215:../Dave/Generated/UCPROBE/probe_com.c **** static  CPU_SIZE_T   ProbeCom_ReqErr          (CPU_INT08U      *ptx_buf,
 216:../Dave/Generated/UCPROBE/probe_com.c ****                                                CPU_INT08U       pcomm_err);
 217:../Dave/Generated/UCPROBE/probe_com.c **** 
 218:../Dave/Generated/UCPROBE/probe_com.c **** 
 219:../Dave/Generated/UCPROBE/probe_com.c ****                                                                 /* ------------------- HANDLE REQ'S
 220:../Dave/Generated/UCPROBE/probe_com.c **** static  CPU_SIZE_T   ProbeCom_ReqQuery        (CPU_INT08U      *prx_buf,
 221:../Dave/Generated/UCPROBE/probe_com.c ****                                                CPU_INT08U      *ptx_buf,
 222:../Dave/Generated/UCPROBE/probe_com.c ****                                                CPU_SIZE_T       rx_pkt_size,
 223:../Dave/Generated/UCPROBE/probe_com.c ****                                                CPU_SIZE_T       tx_buf_size);
 224:../Dave/Generated/UCPROBE/probe_com.c **** 
 225:../Dave/Generated/UCPROBE/probe_com.c **** static  CPU_SIZE_T   ProbeCom_ReqRd           (CPU_INT08U      *prx_buf,
 226:../Dave/Generated/UCPROBE/probe_com.c ****                                                CPU_INT08U      *ptx_buf,
 227:../Dave/Generated/UCPROBE/probe_com.c ****                                                CPU_SIZE_T       rx_pkt_size,
 228:../Dave/Generated/UCPROBE/probe_com.c ****                                                CPU_SIZE_T       tx_buf_size);
 229:../Dave/Generated/UCPROBE/probe_com.c **** 
 230:../Dave/Generated/UCPROBE/probe_com.c **** static  CPU_SIZE_T   ProbeCom_ReqRdMulti      (CPU_INT08U      *prx_buf,
 231:../Dave/Generated/UCPROBE/probe_com.c ****                                                CPU_INT08U      *ptx_buf,
 232:../Dave/Generated/UCPROBE/probe_com.c ****                                                CPU_SIZE_T       rx_pkt_size,
 233:../Dave/Generated/UCPROBE/probe_com.c ****                                                CPU_SIZE_T       tx_buf_size);
 234:../Dave/Generated/UCPROBE/probe_com.c **** 
 235:../Dave/Generated/UCPROBE/probe_com.c **** #if (PROBE_COM_CFG_WR_REQ_EN == DEF_ENABLED)
 236:../Dave/Generated/UCPROBE/probe_com.c **** static  CPU_SIZE_T   ProbeCom_ReqWr           (CPU_INT08U      *prx_buf,
 237:../Dave/Generated/UCPROBE/probe_com.c ****                                                CPU_INT08U      *ptx_buf,
 238:../Dave/Generated/UCPROBE/probe_com.c ****                                                CPU_SIZE_T       rx_pkt_size,
 239:../Dave/Generated/UCPROBE/probe_com.c ****                                                CPU_SIZE_T       tx_buf_size);
 240:../Dave/Generated/UCPROBE/probe_com.c **** 
 241:../Dave/Generated/UCPROBE/probe_com.c **** static  CPU_SIZE_T   ProbeCom_ReqWrMulti      (CPU_INT08U      *prx_buf,
 242:../Dave/Generated/UCPROBE/probe_com.c ****                                                CPU_INT08U      *ptx_buf,
 243:../Dave/Generated/UCPROBE/probe_com.c ****                                                CPU_SIZE_T       rx_pkt_size,
 244:../Dave/Generated/UCPROBE/probe_com.c ****                                                CPU_SIZE_T       tx_buf_size);
 245:../Dave/Generated/UCPROBE/probe_com.c **** #endif
 246:../Dave/Generated/UCPROBE/probe_com.c **** 
 247:../Dave/Generated/UCPROBE/probe_com.c **** #if (PROBE_COM_CFG_STR_REQ_EN == DEF_ENABLED)
 248:../Dave/Generated/UCPROBE/probe_com.c **** static  CPU_SIZE_T   ProbeCom_ReqStrIn        (CPU_INT08U      *prx_buf,
 249:../Dave/Generated/UCPROBE/probe_com.c ****                                                CPU_INT08U      *ptx_buf,
 250:../Dave/Generated/UCPROBE/probe_com.c ****                                                CPU_SIZE_T       rx_pkt_size,
 251:../Dave/Generated/UCPROBE/probe_com.c ****                                                CPU_SIZE_T       tx_buf_size);
 252:../Dave/Generated/UCPROBE/probe_com.c **** 
 253:../Dave/Generated/UCPROBE/probe_com.c **** static  CPU_SIZE_T   ProbeCom_ReqStrOut       (CPU_INT08U      *prx_buf,
 254:../Dave/Generated/UCPROBE/probe_com.c ****                                                CPU_INT08U      *ptx_buf,
 255:../Dave/Generated/UCPROBE/probe_com.c ****                                                CPU_SIZE_T       rx_pkt_size,
 256:../Dave/Generated/UCPROBE/probe_com.c ****                                                CPU_SIZE_T       tx_buf_size);
 257:../Dave/Generated/UCPROBE/probe_com.c **** #endif
 258:../Dave/Generated/UCPROBE/probe_com.c **** 
 259:../Dave/Generated/UCPROBE/probe_com.c **** #if (PROBE_COM_CFG_TERMINAL_REQ_EN == DEF_ENABLED)
 260:../Dave/Generated/UCPROBE/probe_com.c **** static  CPU_SIZE_T   ProbeCom_ReqTerminalExec (CPU_INT08U      *prx_buf,
 261:../Dave/Generated/UCPROBE/probe_com.c ****                                                CPU_INT08U      *ptx_buf,
 262:../Dave/Generated/UCPROBE/probe_com.c ****                                                CPU_SIZE_T       rx_pkt_size,
 263:../Dave/Generated/UCPROBE/probe_com.c ****                                                CPU_SIZE_T       tx_buf_size);
 264:../Dave/Generated/UCPROBE/probe_com.c **** 
 265:../Dave/Generated/UCPROBE/probe_com.c **** static  CPU_SIZE_T   ProbeCom_ReqTerminalIn   (CPU_INT08U      *prx_buf,
 266:../Dave/Generated/UCPROBE/probe_com.c ****                                                CPU_INT08U      *ptx_buf,
 267:../Dave/Generated/UCPROBE/probe_com.c ****                                                CPU_SIZE_T       rx_pkt_size,
 268:../Dave/Generated/UCPROBE/probe_com.c ****                                                CPU_SIZE_T       tx_buf_size);
 269:../Dave/Generated/UCPROBE/probe_com.c **** 
 270:../Dave/Generated/UCPROBE/probe_com.c **** static  CPU_SIZE_T   ProbeCom_ReqTerminalOut  (CPU_INT08U      *prx_buf,
 271:../Dave/Generated/UCPROBE/probe_com.c ****                                                CPU_INT08U      *ptx_buf,
 272:../Dave/Generated/UCPROBE/probe_com.c ****                                                CPU_SIZE_T       rx_pkt_size,
 273:../Dave/Generated/UCPROBE/probe_com.c ****                                                CPU_SIZE_T       tx_buf_size);
 274:../Dave/Generated/UCPROBE/probe_com.c **** #endif
 275:../Dave/Generated/UCPROBE/probe_com.c **** 
 276:../Dave/Generated/UCPROBE/probe_com.c ****                                                                 /* ------------------- DYNAMIC BUFF
 277:../Dave/Generated/UCPROBE/probe_com.c **** #if (PROBE_COM_CFG_STR_REQ_EN == DEF_TRUE)
 278:../Dave/Generated/UCPROBE/probe_com.c **** static  void         ProbeCom_BufInit         (PROBE_COM_BUF   *pbuf,
 279:../Dave/Generated/UCPROBE/probe_com.c ****                                                CPU_INT08U      *pdata,
 280:../Dave/Generated/UCPROBE/probe_com.c ****                                                CPU_SIZE_T       len);
 281:../Dave/Generated/UCPROBE/probe_com.c **** 
 282:../Dave/Generated/UCPROBE/probe_com.c **** static  CPU_SIZE_T   ProbeCom_BufRd           (PROBE_COM_BUF   *pbuf,
 283:../Dave/Generated/UCPROBE/probe_com.c ****                                                CPU_INT08U      *pdest,
 284:../Dave/Generated/UCPROBE/probe_com.c ****                                                CPU_SIZE_T       len)
 285:../Dave/Generated/UCPROBE/probe_com.c **** ;
 286:../Dave/Generated/UCPROBE/probe_com.c **** static  CPU_SIZE_T   ProbeCom_BufWr           (PROBE_COM_BUF   *pbuf,
 287:../Dave/Generated/UCPROBE/probe_com.c ****                                                CPU_INT08U      *psrc,
 288:../Dave/Generated/UCPROBE/probe_com.c ****                                                CPU_SIZE_T       len);
 289:../Dave/Generated/UCPROBE/probe_com.c **** 
 290:../Dave/Generated/UCPROBE/probe_com.c **** static  CPU_BOOLEAN  ProbeCom_BufIsEmpty      (PROBE_COM_BUF   *pbuf);
 291:../Dave/Generated/UCPROBE/probe_com.c **** #endif
 292:../Dave/Generated/UCPROBE/probe_com.c **** 
 293:../Dave/Generated/UCPROBE/probe_com.c **** #if 0
 294:../Dave/Generated/UCPROBE/probe_com.c **** static  CPU_BOOLEAN  ProbeCom_BufIsFull       (PROBE_COM_BUF   *pbuf);
 295:../Dave/Generated/UCPROBE/probe_com.c **** #endif
 296:../Dave/Generated/UCPROBE/probe_com.c **** 
 297:../Dave/Generated/UCPROBE/probe_com.c ****                                                                 /* ------------------- STATIC BUFFE
 298:../Dave/Generated/UCPROBE/probe_com.c **** static  CPU_INT08U   ProbeCom_GetINT08U       (CPU_INT08U     **pbuf);
 299:../Dave/Generated/UCPROBE/probe_com.c **** 
 300:../Dave/Generated/UCPROBE/probe_com.c **** static  CPU_INT16U   ProbeCom_GetINT16U       (CPU_INT08U     **pbuf);
 301:../Dave/Generated/UCPROBE/probe_com.c **** 
 302:../Dave/Generated/UCPROBE/probe_com.c **** static  CPU_INT32U   ProbeCom_GetINT32U       (CPU_INT08U     **pbuf);
 303:../Dave/Generated/UCPROBE/probe_com.c **** 
 304:../Dave/Generated/UCPROBE/probe_com.c **** static  void         ProbeCom_StoINT08U       (CPU_INT08U     **pbuf,
 305:../Dave/Generated/UCPROBE/probe_com.c ****                                                CPU_INT08U       data);
 306:../Dave/Generated/UCPROBE/probe_com.c **** 
 307:../Dave/Generated/UCPROBE/probe_com.c **** static  void         ProbeCom_StoINT16U       (CPU_INT08U     **pbuf,
 308:../Dave/Generated/UCPROBE/probe_com.c ****                                                CPU_INT16U       data);
 309:../Dave/Generated/UCPROBE/probe_com.c **** 
 310:../Dave/Generated/UCPROBE/probe_com.c **** #if 0
 311:../Dave/Generated/UCPROBE/probe_com.c **** static  void         ProbeCom_StoINT32U       (CPU_INT08U     **pbuf,
 312:../Dave/Generated/UCPROBE/probe_com.c ****                                                CPU_INT32U       data);
 313:../Dave/Generated/UCPROBE/probe_com.c **** #endif
 314:../Dave/Generated/UCPROBE/probe_com.c **** 
 315:../Dave/Generated/UCPROBE/probe_com.c ****                                                                 /* -------------- DETERMINE PKT MOD
 316:../Dave/Generated/UCPROBE/probe_com.c **** #if (PROBE_COM_CFG_STR_REQ_EN == DEF_ENABLED)
 317:../Dave/Generated/UCPROBE/probe_com.c **** static  CPU_BOOLEAN  ProbeCom_StrOutAvail     (void);
 318:../Dave/Generated/UCPROBE/probe_com.c **** #endif
 319:../Dave/Generated/UCPROBE/probe_com.c **** 
 320:../Dave/Generated/UCPROBE/probe_com.c **** 
 321:../Dave/Generated/UCPROBE/probe_com.c **** #if (PROBE_COM_CFG_TERMINAL_REQ_EN == DEF_ENABLED)
 322:../Dave/Generated/UCPROBE/probe_com.c **** static  CPU_BOOLEAN  ProbeCom_TerminalOutAvail(void);
 323:../Dave/Generated/UCPROBE/probe_com.c **** 
 324:../Dave/Generated/UCPROBE/probe_com.c **** static  CPU_BOOLEAN  ProbeCom_TerminalExecDone(void);
 325:../Dave/Generated/UCPROBE/probe_com.c **** #endif
 326:../Dave/Generated/UCPROBE/probe_com.c **** 
 327:../Dave/Generated/UCPROBE/probe_com.c **** 
 328:../Dave/Generated/UCPROBE/probe_com.c **** /*
 329:../Dave/Generated/UCPROBE/probe_com.c **** ***************************************************************************************************
 330:../Dave/Generated/UCPROBE/probe_com.c **** *                                     LOCAL CONFIGURATION ERRORS
 331:../Dave/Generated/UCPROBE/probe_com.c **** ***************************************************************************************************
 332:../Dave/Generated/UCPROBE/probe_com.c **** */
 333:../Dave/Generated/UCPROBE/probe_com.c **** 
 334:../Dave/Generated/UCPROBE/probe_com.c **** 
 335:../Dave/Generated/UCPROBE/probe_com.c **** /*
 336:../Dave/Generated/UCPROBE/probe_com.c **** ***************************************************************************************************
 337:../Dave/Generated/UCPROBE/probe_com.c **** *                                           ProbeCom_Init()
 338:../Dave/Generated/UCPROBE/probe_com.c **** *
 339:../Dave/Generated/UCPROBE/probe_com.c **** * Description : Initialize the module.
 340:../Dave/Generated/UCPROBE/probe_com.c **** *
 341:../Dave/Generated/UCPROBE/probe_com.c **** * Argument(s) : none.
 342:../Dave/Generated/UCPROBE/probe_com.c **** *
 343:../Dave/Generated/UCPROBE/probe_com.c **** * Return(s)   : DEF_OK,   if initialization successful.
 344:../Dave/Generated/UCPROBE/probe_com.c **** *               DEF_FAIL, otherwise.
 345:../Dave/Generated/UCPROBE/probe_com.c **** *
 346:../Dave/Generated/UCPROBE/probe_com.c **** * Caller(s)   : Application.
 347:../Dave/Generated/UCPROBE/probe_com.c **** *
 348:../Dave/Generated/UCPROBE/probe_com.c **** * Note(s)     : none.
 349:../Dave/Generated/UCPROBE/probe_com.c **** ***************************************************************************************************
 350:../Dave/Generated/UCPROBE/probe_com.c **** */
 351:../Dave/Generated/UCPROBE/probe_com.c **** 
 352:../Dave/Generated/UCPROBE/probe_com.c **** CPU_BOOLEAN  ProbeCom_Init (void)
 353:../Dave/Generated/UCPROBE/probe_com.c **** {
 354:../Dave/Generated/UCPROBE/probe_com.c **** #if (PROBE_COM_CFG_TERMINAL_REQ_EN == DEF_ENABLED)
 355:../Dave/Generated/UCPROBE/probe_com.c ****     CPU_BOOLEAN  ok;
 356:../Dave/Generated/UCPROBE/probe_com.c **** #endif
 357:../Dave/Generated/UCPROBE/probe_com.c **** 
 358:../Dave/Generated/UCPROBE/probe_com.c **** 
 359:../Dave/Generated/UCPROBE/probe_com.c **** #if (PROBE_COM_CFG_STR_REQ_EN      == DEF_ENABLED)
 360:../Dave/Generated/UCPROBE/probe_com.c ****     Mem_Clr((void     *)&ProbeCom_StrInBufData[0],
 361:../Dave/Generated/UCPROBE/probe_com.c ****             (CPU_SIZE_T) PROBE_COM_CFG_STR_IN_BUF_SIZE);
 362:../Dave/Generated/UCPROBE/probe_com.c **** 
 363:../Dave/Generated/UCPROBE/probe_com.c ****     ProbeCom_BufInit((PROBE_COM_BUF *)&ProbeCom_StrInBuf,
 364:../Dave/Generated/UCPROBE/probe_com.c ****                      (CPU_INT08U    *)&ProbeCom_StrInBufData[0],
 365:../Dave/Generated/UCPROBE/probe_com.c ****                      (CPU_SIZE_T     ) PROBE_COM_CFG_STR_IN_BUF_SIZE);
 366:../Dave/Generated/UCPROBE/probe_com.c **** 
 367:../Dave/Generated/UCPROBE/probe_com.c ****     Mem_Clr((void     *)&ProbeCom_StrOutBufData[0],
 368:../Dave/Generated/UCPROBE/probe_com.c ****             (CPU_SIZE_T) PROBE_COM_CFG_STR_OUT_BUF_SIZE);
 369:../Dave/Generated/UCPROBE/probe_com.c **** 
 370:../Dave/Generated/UCPROBE/probe_com.c ****     ProbeCom_BufInit((PROBE_COM_BUF *)&ProbeCom_StrOutBuf,
 371:../Dave/Generated/UCPROBE/probe_com.c ****                      (CPU_INT08U    *)&ProbeCom_StrOutBufData[0],
 372:../Dave/Generated/UCPROBE/probe_com.c ****                      (CPU_SIZE_T     ) PROBE_COM_CFG_STR_OUT_BUF_SIZE);
 373:../Dave/Generated/UCPROBE/probe_com.c **** #endif
 374:../Dave/Generated/UCPROBE/probe_com.c **** 
 375:../Dave/Generated/UCPROBE/probe_com.c **** 
 376:../Dave/Generated/UCPROBE/probe_com.c **** #if (PROBE_COM_CFG_TERMINAL_REQ_EN == DEF_ENABLED)
 377:../Dave/Generated/UCPROBE/probe_com.c ****     ProbeCom_TerminalExecHandler   = (void        *)0;
 378:../Dave/Generated/UCPROBE/probe_com.c ****     ProbeCom_TerminalExecuting     = (CPU_BOOLEAN  )DEF_NO;
 379:../Dave/Generated/UCPROBE/probe_com.c **** 
 380:../Dave/Generated/UCPROBE/probe_com.c ****     ProbeCom_TerminalInHandler     = (void        *)0;
 381:../Dave/Generated/UCPROBE/probe_com.c **** 
 382:../Dave/Generated/UCPROBE/probe_com.c ****     ProbeCom_TerminalOutBufPtr     = (CPU_INT08U  *)0;
 383:../Dave/Generated/UCPROBE/probe_com.c ****     ProbeCom_TerminalOutBufIx      = (CPU_SIZE_T   )0;
 384:../Dave/Generated/UCPROBE/probe_com.c ****     ProbeCom_TerminalOutBufLen     = (CPU_SIZE_T   )0;
 385:../Dave/Generated/UCPROBE/probe_com.c **** 
 386:../Dave/Generated/UCPROBE/probe_com.c ****     ok = ProbeCom_OS_Init();
 387:../Dave/Generated/UCPROBE/probe_com.c **** 
 388:../Dave/Generated/UCPROBE/probe_com.c ****     if (ok == DEF_FAIL) {
 389:../Dave/Generated/UCPROBE/probe_com.c ****         return (DEF_FAIL);
 390:../Dave/Generated/UCPROBE/probe_com.c ****     }
 391:../Dave/Generated/UCPROBE/probe_com.c **** #endif
 392:../Dave/Generated/UCPROBE/probe_com.c **** 
 393:../Dave/Generated/UCPROBE/probe_com.c **** 
 394:../Dave/Generated/UCPROBE/probe_com.c **** #if (PROBE_COM_CFG_STAT_EN         == DEF_ENABLED)
 395:../Dave/Generated/UCPROBE/probe_com.c ****     ProbeCom_RxPktCtr              =  0u;
 396:../Dave/Generated/UCPROBE/probe_com.c ****     ProbeCom_TxPktCtr              =  0u;
 397:../Dave/Generated/UCPROBE/probe_com.c **** 
 398:../Dave/Generated/UCPROBE/probe_com.c ****     ProbeCom_TxSymCtr              =  0u;
 399:../Dave/Generated/UCPROBE/probe_com.c ****     ProbeCom_TxSymByteCtr          =  0u;
 400:../Dave/Generated/UCPROBE/probe_com.c ****     ProbeCom_ErrPktCtr             =  0u;
 401:../Dave/Generated/UCPROBE/probe_com.c **** 
 402:../Dave/Generated/UCPROBE/probe_com.c **** #if (PROBE_COM_CFG_STR_REQ_EN      == DEF_ENABLED)
 403:../Dave/Generated/UCPROBE/probe_com.c ****     ProbeCom_StrRxCtr              =  0u;
 404:../Dave/Generated/UCPROBE/probe_com.c ****     ProbeCom_StrRxOvfErrCtr        =  0u;
 405:../Dave/Generated/UCPROBE/probe_com.c **** 
 406:../Dave/Generated/UCPROBE/probe_com.c ****     ProbeCom_StrTxCtr              =  0u;
 407:../Dave/Generated/UCPROBE/probe_com.c ****     ProbeCom_StrTxOvfErrCtr        =  0u;
 408:../Dave/Generated/UCPROBE/probe_com.c **** #endif
 409:../Dave/Generated/UCPROBE/probe_com.c **** 
 410:../Dave/Generated/UCPROBE/probe_com.c **** #if (PROBE_COM_CFG_WR_REQ_EN       == DEF_ENABLED)
 411:../Dave/Generated/UCPROBE/probe_com.c ****     ProbeCom_RxSymCtr              =  0u;
 412:../Dave/Generated/UCPROBE/probe_com.c ****     ProbeCom_RxSymByteCtr          =  0u;
 413:../Dave/Generated/UCPROBE/probe_com.c **** #endif
 414:../Dave/Generated/UCPROBE/probe_com.c **** #endif
 415:../Dave/Generated/UCPROBE/probe_com.c **** 
 416:../Dave/Generated/UCPROBE/probe_com.c ****     ProbeCom_EndiannessTest        =  0x12345678uL;
 417:../Dave/Generated/UCPROBE/probe_com.c **** 
 418:../Dave/Generated/UCPROBE/probe_com.c ****     return (DEF_OK);
 419:../Dave/Generated/UCPROBE/probe_com.c **** }
 420:../Dave/Generated/UCPROBE/probe_com.c **** 
 421:../Dave/Generated/UCPROBE/probe_com.c **** 
 422:../Dave/Generated/UCPROBE/probe_com.c **** /*
 423:../Dave/Generated/UCPROBE/probe_com.c **** ***************************************************************************************************
 424:../Dave/Generated/UCPROBE/probe_com.c **** *                                          ProbeCom_StrRd()
 425:../Dave/Generated/UCPROBE/probe_com.c **** *
 426:../Dave/Generated/UCPROBE/probe_com.c **** * Description : Read input data.
 427:../Dave/Generated/UCPROBE/probe_com.c **** *
 428:../Dave/Generated/UCPROBE/probe_com.c **** * Argument(s) : pdest       Pointer to the destination buffer.
 429:../Dave/Generated/UCPROBE/probe_com.c **** *
 430:../Dave/Generated/UCPROBE/probe_com.c **** *               len         Length of the destination buffer, in octets/characters.
 431:../Dave/Generated/UCPROBE/probe_com.c **** *
 432:../Dave/Generated/UCPROBE/probe_com.c **** * Return(s)   : Number of octets/characters read.
 433:../Dave/Generated/UCPROBE/probe_com.c **** *
 434:../Dave/Generated/UCPROBE/probe_com.c **** * Caller(s)   : Application.
 435:../Dave/Generated/UCPROBE/probe_com.c **** *
 436:../Dave/Generated/UCPROBE/probe_com.c **** * Note(s)     : (1) This function implements a non-blocking read.  It will read as much data as fit
 437:../Dave/Generated/UCPROBE/probe_com.c **** *                   into the buffer, up to 'len' bytes/characters.  The calling application should
 438:../Dave/Generated/UCPROBE/probe_com.c **** *                   monitor the return value to see if more data needs to be read.
 439:../Dave/Generated/UCPROBE/probe_com.c **** *
 440:../Dave/Generated/UCPROBE/probe_com.c **** *               (2) Since this function never blocks, it should not be called in a tight loop witho
 441:../Dave/Generated/UCPROBE/probe_com.c **** *                   delay.
 442:../Dave/Generated/UCPROBE/probe_com.c **** *
 443:../Dave/Generated/UCPROBE/probe_com.c **** *               (3) This function MAY be called from an ISR.
 444:../Dave/Generated/UCPROBE/probe_com.c **** ***************************************************************************************************
 445:../Dave/Generated/UCPROBE/probe_com.c **** */
 446:../Dave/Generated/UCPROBE/probe_com.c **** 
 447:../Dave/Generated/UCPROBE/probe_com.c **** #if (PROBE_COM_CFG_STR_REQ_EN == DEF_ENABLED)
 448:../Dave/Generated/UCPROBE/probe_com.c **** CPU_SIZE_T  ProbeCom_StrRd (CPU_CHAR    *pdest,
 449:../Dave/Generated/UCPROBE/probe_com.c ****                             CPU_SIZE_T   len)
 450:../Dave/Generated/UCPROBE/probe_com.c **** {
 451:../Dave/Generated/UCPROBE/probe_com.c ****     CPU_SIZE_T  len_rd;
 452:../Dave/Generated/UCPROBE/probe_com.c **** 
 453:../Dave/Generated/UCPROBE/probe_com.c **** 
 454:../Dave/Generated/UCPROBE/probe_com.c ****     len_rd = ProbeCom_BufRd((PROBE_COM_BUF *)&ProbeCom_StrInBuf,
 455:../Dave/Generated/UCPROBE/probe_com.c ****                             (CPU_INT08U    *) pdest,
 456:../Dave/Generated/UCPROBE/probe_com.c ****                             (CPU_SIZE_T     ) len);
 457:../Dave/Generated/UCPROBE/probe_com.c **** 
 458:../Dave/Generated/UCPROBE/probe_com.c ****     return (len_rd);
 459:../Dave/Generated/UCPROBE/probe_com.c **** }
 460:../Dave/Generated/UCPROBE/probe_com.c **** #endif
 461:../Dave/Generated/UCPROBE/probe_com.c **** 
 462:../Dave/Generated/UCPROBE/probe_com.c **** 
 463:../Dave/Generated/UCPROBE/probe_com.c **** /*
 464:../Dave/Generated/UCPROBE/probe_com.c **** ***************************************************************************************************
 465:../Dave/Generated/UCPROBE/probe_com.c **** *                                          ProbeCom_StrWr()
 466:../Dave/Generated/UCPROBE/probe_com.c **** *
 467:../Dave/Generated/UCPROBE/probe_com.c **** * Description : Write or buffer data for output.
 468:../Dave/Generated/UCPROBE/probe_com.c **** *
 469:../Dave/Generated/UCPROBE/probe_com.c **** * Argument(s) : psrc        Pointer to the source buffer.
 470:../Dave/Generated/UCPROBE/probe_com.c **** *
 471:../Dave/Generated/UCPROBE/probe_com.c **** *               len         Length of the source buffer, in octets/characters.
 472:../Dave/Generated/UCPROBE/probe_com.c **** *
 473:../Dave/Generated/UCPROBE/probe_com.c **** * Return(s)   : Number of octets/characters written or buffered.
 474:../Dave/Generated/UCPROBE/probe_com.c **** *
 475:../Dave/Generated/UCPROBE/probe_com.c **** * Caller(s)   : Application.
 476:../Dave/Generated/UCPROBE/probe_com.c **** *
 477:../Dave/Generated/UCPROBE/probe_com.c **** * Note(s)     : (1) This function implements a non-blocking write.  It will write as much data as f
 478:../Dave/Generated/UCPROBE/probe_com.c **** *                   into the buffer, up to 'len' bytes/characters.  The calling application should
 479:../Dave/Generated/UCPROBE/probe_com.c **** *                   monitor the return value to see if more data from the buffer needs to be writte
 480:../Dave/Generated/UCPROBE/probe_com.c **** *
 481:../Dave/Generated/UCPROBE/probe_com.c **** *               (2) Since this function never blocks, it should not be called in a tight loop witho
 482:../Dave/Generated/UCPROBE/probe_com.c **** *                   delay.
 483:../Dave/Generated/UCPROBE/probe_com.c **** *
 484:../Dave/Generated/UCPROBE/probe_com.c **** *               (3) This function MAY be called from an ISR.
 485:../Dave/Generated/UCPROBE/probe_com.c **** ***************************************************************************************************
 486:../Dave/Generated/UCPROBE/probe_com.c **** */
 487:../Dave/Generated/UCPROBE/probe_com.c **** 
 488:../Dave/Generated/UCPROBE/probe_com.c **** #if (PROBE_COM_CFG_STR_REQ_EN == DEF_ENABLED)
 489:../Dave/Generated/UCPROBE/probe_com.c **** CPU_SIZE_T  ProbeCom_StrWr (CPU_CHAR    *psrc,
 490:../Dave/Generated/UCPROBE/probe_com.c ****                             CPU_SIZE_T   len)
 491:../Dave/Generated/UCPROBE/probe_com.c **** {
 492:../Dave/Generated/UCPROBE/probe_com.c ****     CPU_SIZE_T  len_wr;
 493:../Dave/Generated/UCPROBE/probe_com.c **** 
 494:../Dave/Generated/UCPROBE/probe_com.c **** 
 495:../Dave/Generated/UCPROBE/probe_com.c ****     len_wr = ProbeCom_BufWr((PROBE_COM_BUF *)&ProbeCom_StrOutBuf,
 496:../Dave/Generated/UCPROBE/probe_com.c ****                             (CPU_INT08U    *) psrc,
 497:../Dave/Generated/UCPROBE/probe_com.c ****                             (CPU_SIZE_T     ) len);
 498:../Dave/Generated/UCPROBE/probe_com.c **** 
 499:../Dave/Generated/UCPROBE/probe_com.c **** #if (PROBE_COM_CFG_STAT_EN == DEF_ENABLED)
 500:../Dave/Generated/UCPROBE/probe_com.c ****     if (len_wr < len) {
 501:../Dave/Generated/UCPROBE/probe_com.c ****         ProbeCom_StrTxOvfErrCtr++;
 502:../Dave/Generated/UCPROBE/probe_com.c ****     }
 503:../Dave/Generated/UCPROBE/probe_com.c **** #endif
 504:../Dave/Generated/UCPROBE/probe_com.c **** 
 505:../Dave/Generated/UCPROBE/probe_com.c ****     return (len_wr);
 506:../Dave/Generated/UCPROBE/probe_com.c **** }
 507:../Dave/Generated/UCPROBE/probe_com.c **** #endif
 508:../Dave/Generated/UCPROBE/probe_com.c **** 
 509:../Dave/Generated/UCPROBE/probe_com.c **** 
 510:../Dave/Generated/UCPROBE/probe_com.c **** /*
 511:../Dave/Generated/UCPROBE/probe_com.c **** ***************************************************************************************************
 512:../Dave/Generated/UCPROBE/probe_com.c **** *                                       ProbeCom_TerminalOut()
 513:../Dave/Generated/UCPROBE/probe_com.c **** *
 514:../Dave/Generated/UCPROBE/probe_com.c **** * Description : Output data over terminal.
 515:../Dave/Generated/UCPROBE/probe_com.c **** *
 516:../Dave/Generated/UCPROBE/probe_com.c **** * Argument(s) : psrc        Pointer to the source buffer.
 517:../Dave/Generated/UCPROBE/probe_com.c **** *
 518:../Dave/Generated/UCPROBE/probe_com.c **** *               len         Length of source buffer, in octets/characters.
 519:../Dave/Generated/UCPROBE/probe_com.c **** *
 520:../Dave/Generated/UCPROBE/probe_com.c **** * Return(s)   : Number of octets/characters output.
 521:../Dave/Generated/UCPROBE/probe_com.c **** *
 522:../Dave/Generated/UCPROBE/probe_com.c **** * Caller(s)   : Application.
 523:../Dave/Generated/UCPROBE/probe_com.c **** *
 524:../Dave/Generated/UCPROBE/probe_com.c **** * Note(s)     : (1) This function implements a blocking write.  It will queue the request and wait 
 525:../Dave/Generated/UCPROBE/probe_com.c **** *                   all of the data has been buffered or transmitted before returning.
 526:../Dave/Generated/UCPROBE/probe_com.c **** *
 527:../Dave/Generated/UCPROBE/probe_com.c **** *               (2) Terminal data may ONLY be output while a command is being executed.
 528:../Dave/Generated/UCPROBE/probe_com.c **** *
 529:../Dave/Generated/UCPROBE/probe_com.c **** *                   (a) Generic read/write functionality is provided by the string read/write funct
 530:../Dave/Generated/UCPROBE/probe_com.c **** *                       (see 'ProbeCom_StrRd()', 'ProbeCom_StrWr()').
 531:../Dave/Generated/UCPROBE/probe_com.c **** *
 532:../Dave/Generated/UCPROBE/probe_com.c **** *               (3) This function MUST NOT be called from an ISR.
 533:../Dave/Generated/UCPROBE/probe_com.c **** ***************************************************************************************************
 534:../Dave/Generated/UCPROBE/probe_com.c **** */
 535:../Dave/Generated/UCPROBE/probe_com.c **** 
 536:../Dave/Generated/UCPROBE/probe_com.c **** #if (PROBE_COM_CFG_TERMINAL_REQ_EN == DEF_ENABLED)
 537:../Dave/Generated/UCPROBE/probe_com.c **** CPU_SIZE_T  ProbeCom_TerminalOut (CPU_CHAR    *psrc,
 538:../Dave/Generated/UCPROBE/probe_com.c ****                                   CPU_SIZE_T   len)
 539:../Dave/Generated/UCPROBE/probe_com.c **** {
 540:../Dave/Generated/UCPROBE/probe_com.c ****     CPU_SR_ALLOC();
 541:../Dave/Generated/UCPROBE/probe_com.c **** 
 542:../Dave/Generated/UCPROBE/probe_com.c **** 
 543:../Dave/Generated/UCPROBE/probe_com.c ****                                                                 /* ------------------- VALIDATE ARG
 544:../Dave/Generated/UCPROBE/probe_com.c ****     if (psrc == (CPU_CHAR *)0) {                                /* Validate NULL ptr.              
 545:../Dave/Generated/UCPROBE/probe_com.c ****         return ((CPU_SIZE_T)0);
 546:../Dave/Generated/UCPROBE/probe_com.c ****     }
 547:../Dave/Generated/UCPROBE/probe_com.c **** 
 548:../Dave/Generated/UCPROBE/probe_com.c ****     if (len == 0u) {                                            /* Validate NULL len.              
 549:../Dave/Generated/UCPROBE/probe_com.c ****         return ((CPU_SIZE_T)0);
 550:../Dave/Generated/UCPROBE/probe_com.c ****     }
 551:../Dave/Generated/UCPROBE/probe_com.c **** 
 552:../Dave/Generated/UCPROBE/probe_com.c **** 
 553:../Dave/Generated/UCPROBE/probe_com.c **** 
 554:../Dave/Generated/UCPROBE/probe_com.c ****                                                                 /* ------------------- START OUTPUT
 555:../Dave/Generated/UCPROBE/probe_com.c ****     CPU_CRITICAL_ENTER();
 556:../Dave/Generated/UCPROBE/probe_com.c ****     if (ProbeCom_TerminalExecuting == DEF_NO) {                 /* Chk if cmd exec'ing.            
 557:../Dave/Generated/UCPROBE/probe_com.c ****         CPU_CRITICAL_EXIT();
 558:../Dave/Generated/UCPROBE/probe_com.c ****         return ((CPU_SIZE_T)0);
 559:../Dave/Generated/UCPROBE/probe_com.c ****     }
 560:../Dave/Generated/UCPROBE/probe_com.c **** 
 561:../Dave/Generated/UCPROBE/probe_com.c ****     if (ProbeCom_TerminalOutBufPtr != (CPU_INT08U *)0) {        /* Chk if out in progress.         
 562:../Dave/Generated/UCPROBE/probe_com.c ****         CPU_CRITICAL_EXIT();
 563:../Dave/Generated/UCPROBE/probe_com.c ****         return ((CPU_SIZE_T)0);
 564:../Dave/Generated/UCPROBE/probe_com.c ****     }
 565:../Dave/Generated/UCPROBE/probe_com.c **** 
 566:../Dave/Generated/UCPROBE/probe_com.c ****     ProbeCom_TerminalOutBufPtr = (CPU_INT08U *)psrc;            /* Schedule output.                
 567:../Dave/Generated/UCPROBE/probe_com.c ****     ProbeCom_TerminalOutBufIx  = (CPU_SIZE_T  )0;
 568:../Dave/Generated/UCPROBE/probe_com.c ****     ProbeCom_TerminalOutBufLen = (CPU_SIZE_T  )len;
 569:../Dave/Generated/UCPROBE/probe_com.c **** 
 570:../Dave/Generated/UCPROBE/probe_com.c ****     ProbeCom_OS_TerminalOutWait();                              /* Wait for output completion.     
 571:../Dave/Generated/UCPROBE/probe_com.c **** 
 572:../Dave/Generated/UCPROBE/probe_com.c ****     ProbeCom_TerminalOutBufPtr = (CPU_INT08U *)0;
 573:../Dave/Generated/UCPROBE/probe_com.c ****     ProbeCom_TerminalOutBufIx  = (CPU_SIZE_T  )0;
 574:../Dave/Generated/UCPROBE/probe_com.c ****     ProbeCom_TerminalOutBufLen = (CPU_SIZE_T  )0;
 575:../Dave/Generated/UCPROBE/probe_com.c ****     CPU_CRITICAL_EXIT();
 576:../Dave/Generated/UCPROBE/probe_com.c **** 
 577:../Dave/Generated/UCPROBE/probe_com.c **** 
 578:../Dave/Generated/UCPROBE/probe_com.c **** 
 579:../Dave/Generated/UCPROBE/probe_com.c ****                                                                 /* ----------------------- RTN ----
 580:../Dave/Generated/UCPROBE/probe_com.c ****     return (len);
 581:../Dave/Generated/UCPROBE/probe_com.c **** }
 582:../Dave/Generated/UCPROBE/probe_com.c **** #endif
 583:../Dave/Generated/UCPROBE/probe_com.c **** 
 584:../Dave/Generated/UCPROBE/probe_com.c **** 
 585:../Dave/Generated/UCPROBE/probe_com.c **** /*
 586:../Dave/Generated/UCPROBE/probe_com.c **** ***************************************************************************************************
 587:../Dave/Generated/UCPROBE/probe_com.c **** *                                   ProbeCom_TerminalExecComplete()
 588:../Dave/Generated/UCPROBE/probe_com.c **** *
 589:../Dave/Generated/UCPROBE/probe_com.c **** * Description : Signal completion of command execution.
 590:../Dave/Generated/UCPROBE/probe_com.c **** *
 591:../Dave/Generated/UCPROBE/probe_com.c **** * Argument(s) : none.
 592:../Dave/Generated/UCPROBE/probe_com.c **** *
 593:../Dave/Generated/UCPROBE/probe_com.c **** * Return(s)   : The number of bytes in the data segment of the packet to transmit in response.
 594:../Dave/Generated/UCPROBE/probe_com.c **** *
 595:../Dave/Generated/UCPROBE/probe_com.c **** * Caller(s)   : Application.
 596:../Dave/Generated/UCPROBE/probe_com.c **** *
 597:../Dave/Generated/UCPROBE/probe_com.c **** * Note(s)     : none.
 598:../Dave/Generated/UCPROBE/probe_com.c **** ***************************************************************************************************
 599:../Dave/Generated/UCPROBE/probe_com.c **** */
 600:../Dave/Generated/UCPROBE/probe_com.c **** 
 601:../Dave/Generated/UCPROBE/probe_com.c **** #if (PROBE_COM_CFG_TERMINAL_REQ_EN == DEF_ENABLED)
 602:../Dave/Generated/UCPROBE/probe_com.c **** void  ProbeCom_TerminalExecComplete (void)
 603:../Dave/Generated/UCPROBE/probe_com.c **** {
 604:../Dave/Generated/UCPROBE/probe_com.c ****     CPU_BOOLEAN  executing;
 605:../Dave/Generated/UCPROBE/probe_com.c ****     CPU_SR_ALLOC();
 606:../Dave/Generated/UCPROBE/probe_com.c **** 
 607:../Dave/Generated/UCPROBE/probe_com.c **** 
 608:../Dave/Generated/UCPROBE/probe_com.c ****     CPU_CRITICAL_ENTER();
 609:../Dave/Generated/UCPROBE/probe_com.c ****     executing = ProbeCom_TerminalExecuting;
 610:../Dave/Generated/UCPROBE/probe_com.c ****     if (executing == DEF_YES) {
 611:../Dave/Generated/UCPROBE/probe_com.c ****         ProbeCom_TerminalExecuting = DEF_NO;
 612:../Dave/Generated/UCPROBE/probe_com.c ****     }
 613:../Dave/Generated/UCPROBE/probe_com.c ****     CPU_CRITICAL_EXIT();
 614:../Dave/Generated/UCPROBE/probe_com.c **** }
 615:../Dave/Generated/UCPROBE/probe_com.c **** #endif
 616:../Dave/Generated/UCPROBE/probe_com.c **** 
 617:../Dave/Generated/UCPROBE/probe_com.c **** 
 618:../Dave/Generated/UCPROBE/probe_com.c **** /*
 619:../Dave/Generated/UCPROBE/probe_com.c **** ***************************************************************************************************
 620:../Dave/Generated/UCPROBE/probe_com.c **** *                                     ProbeCom_TerminalExecSet()
 621:../Dave/Generated/UCPROBE/probe_com.c **** *
 622:../Dave/Generated/UCPROBE/probe_com.c **** * Description : Set the handler that will be invoked to process a terminal command.
 623:../Dave/Generated/UCPROBE/probe_com.c **** *
 624:../Dave/Generated/UCPROBE/probe_com.c **** * Argument(s) : handler         The handler that will be invoked.
 625:../Dave/Generated/UCPROBE/probe_com.c **** *
 626:../Dave/Generated/UCPROBE/probe_com.c **** * Return(s)   : none.
 627:../Dave/Generated/UCPROBE/probe_com.c **** *
 628:../Dave/Generated/UCPROBE/probe_com.c **** * Caller(s)   : Application.
 629:../Dave/Generated/UCPROBE/probe_com.c **** *
 630:../Dave/Generated/UCPROBE/probe_com.c **** * Note(s)     : (1) The handler should be a function with the following prototype:
 631:../Dave/Generated/UCPROBE/probe_com.c **** *
 632:../Dave/Generated/UCPROBE/probe_com.c **** *                       void  App_TerminalExecFnct (CPU_CHAR    *pstr,
 633:../Dave/Generated/UCPROBE/probe_com.c **** *                                                   CPU_SIZE_T   len);
 634:../Dave/Generated/UCPROBE/probe_com.c **** *
 635:../Dave/Generated/UCPROBE/probe_com.c **** *                   where 'pstr' is a pointer to the command string, and 'len' is the length of the
 636:../Dave/Generated/UCPROBE/probe_com.c **** *                   command string (in characters) excluding the final NULL byte.  The command stri
 637:../Dave/Generated/UCPROBE/probe_com.c **** *                   will NOT include a terminating new line or line feed.
 638:../Dave/Generated/UCPROBE/probe_com.c **** ***************************************************************************************************
 639:../Dave/Generated/UCPROBE/probe_com.c **** */
 640:../Dave/Generated/UCPROBE/probe_com.c **** 
 641:../Dave/Generated/UCPROBE/probe_com.c **** #if (PROBE_COM_CFG_TERMINAL_REQ_EN == DEF_ENABLED)
 642:../Dave/Generated/UCPROBE/probe_com.c **** void  ProbeCom_TerminalExecSet (PROBE_COM_TERMINAL_EXEC_FNCT  handler)
 643:../Dave/Generated/UCPROBE/probe_com.c **** {
 644:../Dave/Generated/UCPROBE/probe_com.c ****     CPU_SR_ALLOC();
 645:../Dave/Generated/UCPROBE/probe_com.c **** 
 646:../Dave/Generated/UCPROBE/probe_com.c **** 
 647:../Dave/Generated/UCPROBE/probe_com.c ****     CPU_CRITICAL_ENTER();
 648:../Dave/Generated/UCPROBE/probe_com.c ****     ProbeCom_TerminalExecHandler = handler;
 649:../Dave/Generated/UCPROBE/probe_com.c ****     CPU_CRITICAL_EXIT();
 650:../Dave/Generated/UCPROBE/probe_com.c **** }
 651:../Dave/Generated/UCPROBE/probe_com.c **** #endif
 652:../Dave/Generated/UCPROBE/probe_com.c **** 
 653:../Dave/Generated/UCPROBE/probe_com.c **** 
 654:../Dave/Generated/UCPROBE/probe_com.c **** /*
 655:../Dave/Generated/UCPROBE/probe_com.c **** ***************************************************************************************************
 656:../Dave/Generated/UCPROBE/probe_com.c **** *                                      ProbeCom_TerminalInSet()
 657:../Dave/Generated/UCPROBE/probe_com.c **** *
 658:../Dave/Generated/UCPROBE/probe_com.c **** * Description : Set the handler that will be invoked to process terminal input.
 659:../Dave/Generated/UCPROBE/probe_com.c **** *
 660:../Dave/Generated/UCPROBE/probe_com.c **** * Argument(s) : handler         The handler that will be invoked.
 661:../Dave/Generated/UCPROBE/probe_com.c **** *
 662:../Dave/Generated/UCPROBE/probe_com.c **** * Return(s)   : none.
 663:../Dave/Generated/UCPROBE/probe_com.c **** *
 664:../Dave/Generated/UCPROBE/probe_com.c **** * Caller(s)   : Application.
 665:../Dave/Generated/UCPROBE/probe_com.c **** *
 666:../Dave/Generated/UCPROBE/probe_com.c **** * Note(s)     : (1) The handler should be a function with the following prototype:
 667:../Dave/Generated/UCPROBE/probe_com.c **** *
 668:../Dave/Generated/UCPROBE/probe_com.c **** *                       void  App_TerminalInFnct (CPU_CHAR    *pstr,
 669:../Dave/Generated/UCPROBE/probe_com.c **** *                                                 CPU_SIZE_T   len);
 670:../Dave/Generated/UCPROBE/probe_com.c **** *
 671:../Dave/Generated/UCPROBE/probe_com.c **** *                   where 'pstr' is a pointer to the input string, and 'len' is the length of the i
 672:../Dave/Generated/UCPROBE/probe_com.c **** *                   string (in characters) excluding the final NULL byte.  The input string will NO
 673:../Dave/Generated/UCPROBE/probe_com.c **** *                   include a terminating new line or line feed.
 674:../Dave/Generated/UCPROBE/probe_com.c **** ***************************************************************************************************
 675:../Dave/Generated/UCPROBE/probe_com.c **** */
 676:../Dave/Generated/UCPROBE/probe_com.c **** 
 677:../Dave/Generated/UCPROBE/probe_com.c **** #if (PROBE_COM_CFG_TERMINAL_REQ_EN == DEF_ENABLED)
 678:../Dave/Generated/UCPROBE/probe_com.c **** void  ProbeCom_TerminalInSet (PROBE_COM_TERMINAL_IN_FNCT  handler)
 679:../Dave/Generated/UCPROBE/probe_com.c **** {
 680:../Dave/Generated/UCPROBE/probe_com.c **** #if (CPU_CFG_CRITICAL_METHOD == CPU_CRITICAL_METHOD_STATUS_LOCAL)
 681:../Dave/Generated/UCPROBE/probe_com.c ****     CPU_SR  cpu_sr;
 682:../Dave/Generated/UCPROBE/probe_com.c **** #endif
 683:../Dave/Generated/UCPROBE/probe_com.c **** 
 684:../Dave/Generated/UCPROBE/probe_com.c **** 
 685:../Dave/Generated/UCPROBE/probe_com.c ****     CPU_CRITICAL_ENTER();
 686:../Dave/Generated/UCPROBE/probe_com.c ****     ProbeCom_TerminalInHandler = handler;
 687:../Dave/Generated/UCPROBE/probe_com.c ****     CPU_CRITICAL_EXIT();
 688:../Dave/Generated/UCPROBE/probe_com.c **** }
 689:../Dave/Generated/UCPROBE/probe_com.c **** #endif
 690:../Dave/Generated/UCPROBE/probe_com.c **** 
 691:../Dave/Generated/UCPROBE/probe_com.c **** 
 692:../Dave/Generated/UCPROBE/probe_com.c **** /*
 693:../Dave/Generated/UCPROBE/probe_com.c **** ***************************************************************************************************
 694:../Dave/Generated/UCPROBE/probe_com.c **** *                                        ProbeCom_ParseRxPkt()
 695:../Dave/Generated/UCPROBE/probe_com.c **** *
 696:../Dave/Generated/UCPROBE/probe_com.c **** * Description : Parse a packet & formulate a response.
 697:../Dave/Generated/UCPROBE/probe_com.c **** *
 698:../Dave/Generated/UCPROBE/probe_com.c **** * Argument(s) : prx_pkt         Pointer to the receive  packet buffer
 699:../Dave/Generated/UCPROBE/probe_com.c **** *
 700:../Dave/Generated/UCPROBE/probe_com.c **** *               ptx_pkt         Pointer to the transmit packet buffer
 701:../Dave/Generated/UCPROBE/probe_com.c **** *
 702:../Dave/Generated/UCPROBE/probe_com.c **** *               rx_pkt_size     Size of the received packet
 703:../Dave/Generated/UCPROBE/probe_com.c **** *
 704:../Dave/Generated/UCPROBE/probe_com.c **** *               tx_pkt_size     Size of the transmit packet buffer
 705:../Dave/Generated/UCPROBE/probe_com.c **** *
 706:../Dave/Generated/UCPROBE/probe_com.c **** * Return(s)   : The number of bytes in the data segment of the packet to transmit in response.
 707:../Dave/Generated/UCPROBE/probe_com.c **** *
 708:../Dave/Generated/UCPROBE/probe_com.c **** * Caller(s)   : Tasks/receive handlers in communications-specific drivers, (e.g., probe_rs232,
 709:../Dave/Generated/UCPROBE/probe_com.c **** *               probe_usb, probe_tcpip, etc.).
 710:../Dave/Generated/UCPROBE/probe_com.c **** *
 711:../Dave/Generated/UCPROBE/probe_com.c **** * Note(s)     : none.
 712:../Dave/Generated/UCPROBE/probe_com.c **** ***************************************************************************************************
 713:../Dave/Generated/UCPROBE/probe_com.c **** */
 714:../Dave/Generated/UCPROBE/probe_com.c **** 
 715:../Dave/Generated/UCPROBE/probe_com.c **** CPU_SIZE_T  ProbeCom_ParseRxPkt (void        *prx_pkt,
 716:../Dave/Generated/UCPROBE/probe_com.c ****                                  void        *ptx_pkt,
 717:../Dave/Generated/UCPROBE/probe_com.c ****                                  CPU_SIZE_T   rx_pkt_size,
 718:../Dave/Generated/UCPROBE/probe_com.c ****                                  CPU_SIZE_T   tx_buf_size)
 719:../Dave/Generated/UCPROBE/probe_com.c **** {
 720:../Dave/Generated/UCPROBE/probe_com.c ****     CPU_SIZE_T   tx_buf_wr;
 721:../Dave/Generated/UCPROBE/probe_com.c ****     CPU_INT16U   format;
 722:../Dave/Generated/UCPROBE/probe_com.c ****     CPU_INT08U  *prx_pkt_08;
 723:../Dave/Generated/UCPROBE/probe_com.c ****     CPU_INT08U  *ptx_pkt_08;
 724:../Dave/Generated/UCPROBE/probe_com.c **** 
 725:../Dave/Generated/UCPROBE/probe_com.c **** 
 726:../Dave/Generated/UCPROBE/probe_com.c ****     if (rx_pkt_size < 2u) {
 727:../Dave/Generated/UCPROBE/probe_com.c ****         return (0);
 728:../Dave/Generated/UCPROBE/probe_com.c ****     }
 729:../Dave/Generated/UCPROBE/probe_com.c **** 
 730:../Dave/Generated/UCPROBE/probe_com.c ****     prx_pkt_08  = (CPU_INT08U *)prx_pkt;
 731:../Dave/Generated/UCPROBE/probe_com.c ****     ptx_pkt_08  = (CPU_INT08U *)ptx_pkt;
 732:../Dave/Generated/UCPROBE/probe_com.c ****     format      = (prx_pkt_08[1] << 8) + prx_pkt_08[0];
 733:../Dave/Generated/UCPROBE/probe_com.c ****     prx_pkt_08 += 2u;
 734:../Dave/Generated/UCPROBE/probe_com.c **** 
 735:../Dave/Generated/UCPROBE/probe_com.c **** #if (PROBE_COM_CFG_STAT_EN == DEF_ENABLED)
 736:../Dave/Generated/UCPROBE/probe_com.c ****     ProbeCom_RxPktCtr++;
 737:../Dave/Generated/UCPROBE/probe_com.c ****     ProbeCom_TxPktCtr++;
 738:../Dave/Generated/UCPROBE/probe_com.c **** #endif
 739:../Dave/Generated/UCPROBE/probe_com.c **** 
 740:../Dave/Generated/UCPROBE/probe_com.c ****     switch (format) {
 741:../Dave/Generated/UCPROBE/probe_com.c ****         case PROBE_COM_FMT_RX_QUERY:
 742:../Dave/Generated/UCPROBE/probe_com.c ****              tx_buf_wr = ProbeCom_ReqQuery(       prx_pkt_08, ptx_pkt_08, rx_pkt_size, tx_buf_size)
 743:../Dave/Generated/UCPROBE/probe_com.c ****              break;
 744:../Dave/Generated/UCPROBE/probe_com.c **** 
 745:../Dave/Generated/UCPROBE/probe_com.c ****         case PROBE_COM_FMT_RX_RD:
 746:../Dave/Generated/UCPROBE/probe_com.c ****              tx_buf_wr = ProbeCom_ReqRd(          prx_pkt_08, ptx_pkt_08, rx_pkt_size, tx_buf_size)
 747:../Dave/Generated/UCPROBE/probe_com.c ****              break;
 748:../Dave/Generated/UCPROBE/probe_com.c **** 
 749:../Dave/Generated/UCPROBE/probe_com.c ****         case PROBE_COM_FMT_RX_RD_MULTI:
 750:../Dave/Generated/UCPROBE/probe_com.c ****              tx_buf_wr = ProbeCom_ReqRdMulti(     prx_pkt_08, ptx_pkt_08, rx_pkt_size, tx_buf_size)
 751:../Dave/Generated/UCPROBE/probe_com.c ****              break;
 752:../Dave/Generated/UCPROBE/probe_com.c **** 
 753:../Dave/Generated/UCPROBE/probe_com.c **** #if (PROBE_COM_CFG_WR_REQ_EN == DEF_ENABLED)
 754:../Dave/Generated/UCPROBE/probe_com.c ****         case PROBE_COM_FMT_RX_WR:
 755:../Dave/Generated/UCPROBE/probe_com.c ****              tx_buf_wr = ProbeCom_ReqWr(          prx_pkt_08, ptx_pkt_08, rx_pkt_size, tx_buf_size)
 756:../Dave/Generated/UCPROBE/probe_com.c ****              break;
 757:../Dave/Generated/UCPROBE/probe_com.c **** 
 758:../Dave/Generated/UCPROBE/probe_com.c ****         case PROBE_COM_FMT_RX_WR_MULTI:
 759:../Dave/Generated/UCPROBE/probe_com.c ****              tx_buf_wr = ProbeCom_ReqWrMulti(     prx_pkt_08, ptx_pkt_08, rx_pkt_size, tx_buf_size)
 760:../Dave/Generated/UCPROBE/probe_com.c ****              break;
 761:../Dave/Generated/UCPROBE/probe_com.c **** #endif
 762:../Dave/Generated/UCPROBE/probe_com.c **** 
 763:../Dave/Generated/UCPROBE/probe_com.c **** #if (PROBE_COM_CFG_STR_REQ_EN == DEF_ENABLED)
 764:../Dave/Generated/UCPROBE/probe_com.c ****         case PROBE_COM_FMT_RX_STR_IN:
 765:../Dave/Generated/UCPROBE/probe_com.c ****              tx_buf_wr = ProbeCom_ReqStrIn(       prx_pkt_08, ptx_pkt_08, rx_pkt_size, tx_buf_size)
 766:../Dave/Generated/UCPROBE/probe_com.c ****              break;
 767:../Dave/Generated/UCPROBE/probe_com.c **** 
 768:../Dave/Generated/UCPROBE/probe_com.c ****         case PROBE_COM_FMT_RX_STR_OUT:
 769:../Dave/Generated/UCPROBE/probe_com.c ****              tx_buf_wr = ProbeCom_ReqStrOut(      prx_pkt_08, ptx_pkt_08, rx_pkt_size, tx_buf_size)
 770:../Dave/Generated/UCPROBE/probe_com.c ****              break;
 771:../Dave/Generated/UCPROBE/probe_com.c **** #endif
 772:../Dave/Generated/UCPROBE/probe_com.c **** 
 773:../Dave/Generated/UCPROBE/probe_com.c **** #if (PROBE_COM_CFG_TERMINAL_REQ_EN == DEF_ENABLED)
 774:../Dave/Generated/UCPROBE/probe_com.c ****         case PROBE_COM_FMT_RX_TERMINAL_EXEC:
 775:../Dave/Generated/UCPROBE/probe_com.c ****              tx_buf_wr = ProbeCom_ReqTerminalExec(prx_pkt_08, ptx_pkt_08, rx_pkt_size, tx_buf_size)
 776:../Dave/Generated/UCPROBE/probe_com.c ****              break;
 777:../Dave/Generated/UCPROBE/probe_com.c **** 
 778:../Dave/Generated/UCPROBE/probe_com.c ****         case PROBE_COM_FMT_RX_TERMINAL_IN:
 779:../Dave/Generated/UCPROBE/probe_com.c ****              tx_buf_wr = ProbeCom_ReqTerminalIn(  prx_pkt_08, ptx_pkt_08, rx_pkt_size, tx_buf_size)
 780:../Dave/Generated/UCPROBE/probe_com.c ****              break;
 781:../Dave/Generated/UCPROBE/probe_com.c **** 
 782:../Dave/Generated/UCPROBE/probe_com.c ****         case PROBE_COM_FMT_RX_TERMINAL_OUT:
 783:../Dave/Generated/UCPROBE/probe_com.c ****              tx_buf_wr = ProbeCom_ReqTerminalOut( prx_pkt_08, ptx_pkt_08, rx_pkt_size, tx_buf_size)
 784:../Dave/Generated/UCPROBE/probe_com.c ****              break;
 785:../Dave/Generated/UCPROBE/probe_com.c **** #endif
 786:../Dave/Generated/UCPROBE/probe_com.c **** 
 787:../Dave/Generated/UCPROBE/probe_com.c ****         default:
 788:../Dave/Generated/UCPROBE/probe_com.c ****              tx_buf_wr = ProbeCom_ReqErr(                     ptx_pkt_08, PROBE_COM_STATUS_UNKNOWN_
 789:../Dave/Generated/UCPROBE/probe_com.c ****              break;
 790:../Dave/Generated/UCPROBE/probe_com.c ****     }
 791:../Dave/Generated/UCPROBE/probe_com.c **** 
 792:../Dave/Generated/UCPROBE/probe_com.c ****     return (tx_buf_wr);
 793:../Dave/Generated/UCPROBE/probe_com.c **** }
 794:../Dave/Generated/UCPROBE/probe_com.c **** 
 795:../Dave/Generated/UCPROBE/probe_com.c **** 
 796:../Dave/Generated/UCPROBE/probe_com.c **** /*
 797:../Dave/Generated/UCPROBE/probe_com.c **** ***************************************************************************************************
 798:../Dave/Generated/UCPROBE/probe_com.c **** ***************************************************************************************************
 799:../Dave/Generated/UCPROBE/probe_com.c **** *                                           LOCAL FUNCTIONS
 800:../Dave/Generated/UCPROBE/probe_com.c **** ***************************************************************************************************
 801:../Dave/Generated/UCPROBE/probe_com.c **** ***************************************************************************************************
 802:../Dave/Generated/UCPROBE/probe_com.c **** */
 803:../Dave/Generated/UCPROBE/probe_com.c **** 
 804:../Dave/Generated/UCPROBE/probe_com.c **** /*
 805:../Dave/Generated/UCPROBE/probe_com.c **** ***************************************************************************************************
 806:../Dave/Generated/UCPROBE/probe_com.c **** *                                       ProbeCom_StrOutAvail()
 807:../Dave/Generated/UCPROBE/probe_com.c **** *
 808:../Dave/Generated/UCPROBE/probe_com.c **** * Description : Check if string output is waiting for transmission.
 809:../Dave/Generated/UCPROBE/probe_com.c **** *
 810:../Dave/Generated/UCPROBE/probe_com.c **** * Argument(s) : none.
 811:../Dave/Generated/UCPROBE/probe_com.c **** *
 812:../Dave/Generated/UCPROBE/probe_com.c **** * Return(s)   : DEF_TRUE   if a  string output is waiting for transmission.
 813:../Dave/Generated/UCPROBE/probe_com.c **** *               DEF_FALSE  if no string output is waiting for transmission.
 814:../Dave/Generated/UCPROBE/probe_com.c **** *
 815:../Dave/Generated/UCPROBE/probe_com.c **** * Caller(s)   : ProbeCom_PktModifier().
 816:../Dave/Generated/UCPROBE/probe_com.c **** *
 817:../Dave/Generated/UCPROBE/probe_com.c **** * Note(s)     : (1) See Notes for 'ProbeCom_StrWr()'.
 818:../Dave/Generated/UCPROBE/probe_com.c **** ***************************************************************************************************
 819:../Dave/Generated/UCPROBE/probe_com.c **** */
 820:../Dave/Generated/UCPROBE/probe_com.c **** 
 821:../Dave/Generated/UCPROBE/probe_com.c **** #if (PROBE_COM_CFG_STR_REQ_EN == DEF_ENABLED)
 822:../Dave/Generated/UCPROBE/probe_com.c **** static  CPU_BOOLEAN  ProbeCom_StrOutAvail (void)
 823:../Dave/Generated/UCPROBE/probe_com.c **** {
 824:../Dave/Generated/UCPROBE/probe_com.c ****     CPU_BOOLEAN  avail;
 825:../Dave/Generated/UCPROBE/probe_com.c ****     CPU_BOOLEAN  empty;
 826:../Dave/Generated/UCPROBE/probe_com.c **** 
 827:../Dave/Generated/UCPROBE/probe_com.c **** 
 828:../Dave/Generated/UCPROBE/probe_com.c ****     empty = ProbeCom_BufIsEmpty(&ProbeCom_StrOutBuf);
 829:../Dave/Generated/UCPROBE/probe_com.c ****     avail = (empty == DEF_YES) ? (DEF_FALSE) : (DEF_TRUE);
 830:../Dave/Generated/UCPROBE/probe_com.c **** 
 831:../Dave/Generated/UCPROBE/probe_com.c ****     return (avail);
 832:../Dave/Generated/UCPROBE/probe_com.c **** }
 833:../Dave/Generated/UCPROBE/probe_com.c **** #endif
 834:../Dave/Generated/UCPROBE/probe_com.c **** 
 835:../Dave/Generated/UCPROBE/probe_com.c **** 
 836:../Dave/Generated/UCPROBE/probe_com.c **** 
 837:../Dave/Generated/UCPROBE/probe_com.c **** /*
 838:../Dave/Generated/UCPROBE/probe_com.c **** ***************************************************************************************************
 839:../Dave/Generated/UCPROBE/probe_com.c **** *                                     ProbeCom_TerminalOutAvail()
 840:../Dave/Generated/UCPROBE/probe_com.c **** *
 841:../Dave/Generated/UCPROBE/probe_com.c **** * Description : Check if terminal output is waiting for transmission.
 842:../Dave/Generated/UCPROBE/probe_com.c **** *
 843:../Dave/Generated/UCPROBE/probe_com.c **** * Argument(s) : none.
 844:../Dave/Generated/UCPROBE/probe_com.c **** *
 845:../Dave/Generated/UCPROBE/probe_com.c **** * Return(s)   : DEF_TRUE   if a  terminal output is waiting for transmission.
 846:../Dave/Generated/UCPROBE/probe_com.c **** *               DEF_FALSE  if no terminal output is waiting for transmission.
 847:../Dave/Generated/UCPROBE/probe_com.c **** *
 848:../Dave/Generated/UCPROBE/probe_com.c **** * Caller(s)   : ProbeCom_PktModifier().
 849:../Dave/Generated/UCPROBE/probe_com.c **** *
 850:../Dave/Generated/UCPROBE/probe_com.c **** * Note(s)     : (1) See Notes for 'ProbeCom_TerminalOut()'.
 851:../Dave/Generated/UCPROBE/probe_com.c **** ***************************************************************************************************
 852:../Dave/Generated/UCPROBE/probe_com.c **** */
 853:../Dave/Generated/UCPROBE/probe_com.c **** 
 854:../Dave/Generated/UCPROBE/probe_com.c **** #if (PROBE_COM_CFG_TERMINAL_REQ_EN == DEF_ENABLED)
 855:../Dave/Generated/UCPROBE/probe_com.c **** static  CPU_BOOLEAN  ProbeCom_TerminalOutAvail (void)
 856:../Dave/Generated/UCPROBE/probe_com.c **** {
 857:../Dave/Generated/UCPROBE/probe_com.c ****     CPU_SIZE_T   buf_len;
 858:../Dave/Generated/UCPROBE/probe_com.c ****     CPU_BOOLEAN  avail;
 859:../Dave/Generated/UCPROBE/probe_com.c ****     CPU_SR_ALLOC();
 860:../Dave/Generated/UCPROBE/probe_com.c **** 
 861:../Dave/Generated/UCPROBE/probe_com.c **** 
 862:../Dave/Generated/UCPROBE/probe_com.c ****     CPU_CRITICAL_ENTER();
 863:../Dave/Generated/UCPROBE/probe_com.c ****     buf_len = ProbeCom_TerminalOutBufLen;
 864:../Dave/Generated/UCPROBE/probe_com.c ****     CPU_CRITICAL_EXIT();
 865:../Dave/Generated/UCPROBE/probe_com.c **** 
 866:../Dave/Generated/UCPROBE/probe_com.c ****     avail   = (buf_len == 0u) ? (DEF_FALSE) : (DEF_TRUE);
 867:../Dave/Generated/UCPROBE/probe_com.c **** 
 868:../Dave/Generated/UCPROBE/probe_com.c ****     return (avail);
 869:../Dave/Generated/UCPROBE/probe_com.c **** }
 870:../Dave/Generated/UCPROBE/probe_com.c **** #endif
 871:../Dave/Generated/UCPROBE/probe_com.c **** 
 872:../Dave/Generated/UCPROBE/probe_com.c **** 
 873:../Dave/Generated/UCPROBE/probe_com.c **** 
 874:../Dave/Generated/UCPROBE/probe_com.c **** /*
 875:../Dave/Generated/UCPROBE/probe_com.c **** ***************************************************************************************************
 876:../Dave/Generated/UCPROBE/probe_com.c **** *                                     ProbeCom_TerminalExecDone()
 877:../Dave/Generated/UCPROBE/probe_com.c **** *
 878:../Dave/Generated/UCPROBE/probe_com.c **** * Description : Check if terminal execution is done.
 879:../Dave/Generated/UCPROBE/probe_com.c **** *
 880:../Dave/Generated/UCPROBE/probe_com.c **** * Argument(s) : none.
 881:../Dave/Generated/UCPROBE/probe_com.c **** *
 882:../Dave/Generated/UCPROBE/probe_com.c **** * Return(s)   : DEF_TRUE   if terminal command execution is     done.
 883:../Dave/Generated/UCPROBE/probe_com.c **** *               DEF_FALSE  if terminal command execution is NOT done.
 884:../Dave/Generated/UCPROBE/probe_com.c **** *
 885:../Dave/Generated/UCPROBE/probe_com.c **** * Caller(s)   : ProbeCom_PktModifier().
 886:../Dave/Generated/UCPROBE/probe_com.c **** *
 887:../Dave/Generated/UCPROBE/probe_com.c **** * Note(s)     : (1) See Notes for 'ProbeCom_TerminalOut()'.
 888:../Dave/Generated/UCPROBE/probe_com.c **** ***************************************************************************************************
 889:../Dave/Generated/UCPROBE/probe_com.c **** */
 890:../Dave/Generated/UCPROBE/probe_com.c **** 
 891:../Dave/Generated/UCPROBE/probe_com.c **** #if (PROBE_COM_CFG_TERMINAL_REQ_EN == DEF_ENABLED)
 892:../Dave/Generated/UCPROBE/probe_com.c **** static  CPU_BOOLEAN  ProbeCom_TerminalExecDone (void)
 893:../Dave/Generated/UCPROBE/probe_com.c **** {
 894:../Dave/Generated/UCPROBE/probe_com.c **** #if (CPU_CFG_CRITICAL_METHOD == CPU_CRITICAL_METHOD_STATUS_LOCAL)
 895:../Dave/Generated/UCPROBE/probe_com.c ****     CPU_SR       cpu_sr;
 896:../Dave/Generated/UCPROBE/probe_com.c **** #endif
 897:../Dave/Generated/UCPROBE/probe_com.c ****     CPU_BOOLEAN  executing;
 898:../Dave/Generated/UCPROBE/probe_com.c ****     CPU_BOOLEAN  done;
 899:../Dave/Generated/UCPROBE/probe_com.c **** 
 900:../Dave/Generated/UCPROBE/probe_com.c **** 
 901:../Dave/Generated/UCPROBE/probe_com.c ****     CPU_CRITICAL_ENTER();
 902:../Dave/Generated/UCPROBE/probe_com.c ****     executing = ProbeCom_TerminalExecuting;
 903:../Dave/Generated/UCPROBE/probe_com.c ****     CPU_CRITICAL_EXIT();
 904:../Dave/Generated/UCPROBE/probe_com.c **** 
 905:../Dave/Generated/UCPROBE/probe_com.c ****     done = (executing == DEF_YES) ? (DEF_FALSE) : (DEF_TRUE);
 906:../Dave/Generated/UCPROBE/probe_com.c **** 
 907:../Dave/Generated/UCPROBE/probe_com.c ****     return (done);
 908:../Dave/Generated/UCPROBE/probe_com.c **** }
 909:../Dave/Generated/UCPROBE/probe_com.c **** #endif
 910:../Dave/Generated/UCPROBE/probe_com.c **** 
 911:../Dave/Generated/UCPROBE/probe_com.c **** 
 912:../Dave/Generated/UCPROBE/probe_com.c **** /*
 913:../Dave/Generated/UCPROBE/probe_com.c **** ***************************************************************************************************
 914:../Dave/Generated/UCPROBE/probe_com.c **** *                                       ProbeCom_PktModifier()
 915:../Dave/Generated/UCPROBE/probe_com.c **** *
 916:../Dave/Generated/UCPROBE/probe_com.c **** * Description : Get packet modfier byte.
 917:../Dave/Generated/UCPROBE/probe_com.c **** *
 918:../Dave/Generated/UCPROBE/probe_com.c **** * Argument(s) : none.
 919:../Dave/Generated/UCPROBE/probe_com.c **** *
 920:../Dave/Generated/UCPROBE/probe_com.c **** * Return(s)   : The modifier byte.
 921:../Dave/Generated/UCPROBE/probe_com.c **** *
 922:../Dave/Generated/UCPROBE/probe_com.c **** * Caller(s)   : Various command handlers (ProbeCom_Req????()).
 923:../Dave/Generated/UCPROBE/probe_com.c **** *
 924:../Dave/Generated/UCPROBE/probe_com.c **** * Note(s)     : none.
 925:../Dave/Generated/UCPROBE/probe_com.c **** ***************************************************************************************************
 926:../Dave/Generated/UCPROBE/probe_com.c **** */
 927:../Dave/Generated/UCPROBE/probe_com.c **** 
 928:../Dave/Generated/UCPROBE/probe_com.c **** static  CPU_INT08U  ProbeCom_PktModifier (void)
 929:../Dave/Generated/UCPROBE/probe_com.c **** {
  25              	 .loc 1 929 0
  26              	 .cfi_startproc
  27              	.LVL0:
  28 0000 70B5     	 push {r4,r5,r6,lr}
  29              	.LCFI0:
  30              	 .cfi_def_cfa_offset 16
  31              	 .cfi_offset 4,-16
  32              	 .cfi_offset 5,-12
  33              	 .cfi_offset 6,-8
  34              	 .cfi_offset 14,-4
  35              	.LBB777:
  36              	.LBB778:
  37              	.LBB779:
  38              	.LBB780:
 930:../Dave/Generated/UCPROBE/probe_com.c **** #if ((PROBE_COM_CFG_STR_REQ_EN      == DEF_ENABLED) || \
 931:../Dave/Generated/UCPROBE/probe_com.c ****      (PROBE_COM_CFG_TERMINAL_REQ_EN == DEF_ENABLED))
 932:../Dave/Generated/UCPROBE/probe_com.c ****     CPU_BOOLEAN  avail;
 933:../Dave/Generated/UCPROBE/probe_com.c **** #endif
 934:../Dave/Generated/UCPROBE/probe_com.c **** #if  (PROBE_COM_CFG_TERMINAL_REQ_EN == DEF_ENABLED)
 935:../Dave/Generated/UCPROBE/probe_com.c ****     CPU_BOOLEAN  done;
 936:../Dave/Generated/UCPROBE/probe_com.c **** #endif
 937:../Dave/Generated/UCPROBE/probe_com.c ****     CPU_INT08U   mod;
 938:../Dave/Generated/UCPROBE/probe_com.c **** 
 939:../Dave/Generated/UCPROBE/probe_com.c **** 
 940:../Dave/Generated/UCPROBE/probe_com.c ****     mod = PROBE_COM_MODIFIER_NONE;
 941:../Dave/Generated/UCPROBE/probe_com.c **** 
 942:../Dave/Generated/UCPROBE/probe_com.c **** #if (PROBE_COM_CFG_STR_REQ_EN == DEF_ENABLED)
 943:../Dave/Generated/UCPROBE/probe_com.c ****     avail = ProbeCom_StrOutAvail();
 944:../Dave/Generated/UCPROBE/probe_com.c ****     if (avail == DEF_TRUE) {
 945:../Dave/Generated/UCPROBE/probe_com.c ****         DEF_BIT_SET(mod, PROBE_COM_MODIFIER_STR_OUT_AVAIL);
 946:../Dave/Generated/UCPROBE/probe_com.c ****     }
 947:../Dave/Generated/UCPROBE/probe_com.c **** #endif
 948:../Dave/Generated/UCPROBE/probe_com.c **** 
 949:../Dave/Generated/UCPROBE/probe_com.c **** #if (PROBE_COM_CFG_TERMINAL_REQ_EN == DEF_ENABLED)
 950:../Dave/Generated/UCPROBE/probe_com.c ****     avail = ProbeCom_TerminalOutAvail();
 951:../Dave/Generated/UCPROBE/probe_com.c ****     if (avail == DEF_TRUE) {
 952:../Dave/Generated/UCPROBE/probe_com.c ****         DEF_BIT_SET(mod, PROBE_COM_MODIFIER_TERMINAL_OUT_AVAIL);
 953:../Dave/Generated/UCPROBE/probe_com.c ****     }
 954:../Dave/Generated/UCPROBE/probe_com.c **** 
 955:../Dave/Generated/UCPROBE/probe_com.c ****     done = ProbeCom_TerminalExecDone();
 956:../Dave/Generated/UCPROBE/probe_com.c ****     if (done == DEF_TRUE) {
 957:../Dave/Generated/UCPROBE/probe_com.c ****         DEF_BIT_SET(mod, PROBE_COM_MODIFIER_TERMINAL_EXEC_DONE);
 958:../Dave/Generated/UCPROBE/probe_com.c ****     }
 959:../Dave/Generated/UCPROBE/probe_com.c **** #endif
 960:../Dave/Generated/UCPROBE/probe_com.c **** 
 961:../Dave/Generated/UCPROBE/probe_com.c ****     return (mod);
 962:../Dave/Generated/UCPROBE/probe_com.c **** }
 963:../Dave/Generated/UCPROBE/probe_com.c **** 
 964:../Dave/Generated/UCPROBE/probe_com.c **** 
 965:../Dave/Generated/UCPROBE/probe_com.c **** /*
 966:../Dave/Generated/UCPROBE/probe_com.c **** ***************************************************************************************************
 967:../Dave/Generated/UCPROBE/probe_com.c **** *                                          ProbeCom_ReqErr()
 968:../Dave/Generated/UCPROBE/probe_com.c **** *
 969:../Dave/Generated/UCPROBE/probe_com.c **** * Description : Formulate error response when the target receives a request it cannot handle.
 970:../Dave/Generated/UCPROBE/probe_com.c **** *
 971:../Dave/Generated/UCPROBE/probe_com.c **** * Argument(s) : ptx_buf      Pointer to the transmit buffer
 972:../Dave/Generated/UCPROBE/probe_com.c **** *
 973:../Dave/Generated/UCPROBE/probe_com.c **** *               comm_err     Error that occurred
 974:../Dave/Generated/UCPROBE/probe_com.c **** *
 975:../Dave/Generated/UCPROBE/probe_com.c **** * Return(s)   : The number of bytes written to the tx buffer.
 976:../Dave/Generated/UCPROBE/probe_com.c **** *
 977:../Dave/Generated/UCPROBE/probe_com.c **** * Caller(s)   : Various command handlers (ProbeCom_Req????()).
 978:../Dave/Generated/UCPROBE/probe_com.c **** *
 979:../Dave/Generated/UCPROBE/probe_com.c **** * Note(s)     : (1) The TX format:
 980:../Dave/Generated/UCPROBE/probe_com.c **** *
 981:../Dave/Generated/UCPROBE/probe_com.c **** *                   (A) A 2-byte format  , indicating the data segment format;
 982:../Dave/Generated/UCPROBE/probe_com.c **** *                   (B) A 1-byte constant, PROBE_RS232_OK,   if the location can    be read;
 983:../Dave/Generated/UCPROBE/probe_com.c **** *                       A 1-byte constant, PROBE_RS232_FAIL, if the location cannot be read.
 984:../Dave/Generated/UCPROBE/probe_com.c **** *                   (C) A 1-byte modifier.
 985:../Dave/Generated/UCPROBE/probe_com.c **** *
 986:../Dave/Generated/UCPROBE/probe_com.c **** *                         +-------------------------+------------+------------+
 987:../Dave/Generated/UCPROBE/probe_com.c **** *                         |          Format         |   Status   |  Modifier  |
 988:../Dave/Generated/UCPROBE/probe_com.c **** *                         +-------------------------+------------+------------+
 989:../Dave/Generated/UCPROBE/probe_com.c **** ***************************************************************************************************
 990:../Dave/Generated/UCPROBE/probe_com.c **** */
 991:../Dave/Generated/UCPROBE/probe_com.c **** 
 992:../Dave/Generated/UCPROBE/probe_com.c **** static  CPU_SIZE_T  ProbeCom_ReqErr (CPU_INT08U  *ptx_buf,
 993:../Dave/Generated/UCPROBE/probe_com.c ****                                      CPU_INT08U   comm_err)
 994:../Dave/Generated/UCPROBE/probe_com.c **** {
 995:../Dave/Generated/UCPROBE/probe_com.c ****     CPU_SIZE_T  tx_len;
 996:../Dave/Generated/UCPROBE/probe_com.c **** 
 997:../Dave/Generated/UCPROBE/probe_com.c **** 
 998:../Dave/Generated/UCPROBE/probe_com.c **** #if (PROBE_COM_CFG_STAT_EN == DEF_ENABLED)
 999:../Dave/Generated/UCPROBE/probe_com.c ****     ProbeCom_ErrPktCtr++;
1000:../Dave/Generated/UCPROBE/probe_com.c **** #endif
1001:../Dave/Generated/UCPROBE/probe_com.c **** 
1002:../Dave/Generated/UCPROBE/probe_com.c ****     ProbeCom_StoINT16U(&ptx_buf, PROBE_COM_FMT_TX_ERR);         /* Tx pkt fmt.                     
1003:../Dave/Generated/UCPROBE/probe_com.c ****     ProbeCom_StoINT08U(&ptx_buf, comm_err);                     /* Target status.                  
1004:../Dave/Generated/UCPROBE/probe_com.c ****     ProbeCom_StoINT08U(&ptx_buf, ProbeCom_PktModifier());       /* Modifier.                       
1005:../Dave/Generated/UCPROBE/probe_com.c **** 
1006:../Dave/Generated/UCPROBE/probe_com.c ****     tx_len = (CPU_SIZE_T)PROBE_COM_SIZE_TX_HDR;
1007:../Dave/Generated/UCPROBE/probe_com.c ****     return (tx_len);                                            /* Rtn TX data segment size =  4 (=
1008:../Dave/Generated/UCPROBE/probe_com.c **** }
1009:../Dave/Generated/UCPROBE/probe_com.c **** 
1010:../Dave/Generated/UCPROBE/probe_com.c **** 
1011:../Dave/Generated/UCPROBE/probe_com.c **** /*
1012:../Dave/Generated/UCPROBE/probe_com.c **** ***************************************************************************************************
1013:../Dave/Generated/UCPROBE/probe_com.c **** *                                         ProbeCom_ReqQuery()
1014:../Dave/Generated/UCPROBE/probe_com.c **** *
1015:../Dave/Generated/UCPROBE/probe_com.c **** * Description : Parse the FMT_QUERY command & formulate response.  This command asks the target
1016:../Dave/Generated/UCPROBE/probe_com.c **** *               about its capabilities, which are returned in response.
1017:../Dave/Generated/UCPROBE/probe_com.c **** *
1018:../Dave/Generated/UCPROBE/probe_com.c **** * Argument(s) : prx_buf         Pointer to the receive  buffer
1019:../Dave/Generated/UCPROBE/probe_com.c **** *
1020:../Dave/Generated/UCPROBE/probe_com.c **** *               ptx_buf         Pointer to the transmit buffer
1021:../Dave/Generated/UCPROBE/probe_com.c **** *
1022:../Dave/Generated/UCPROBE/probe_com.c **** *               rx_pkt_size     Size of the receive  packet
1023:../Dave/Generated/UCPROBE/probe_com.c **** *
1024:../Dave/Generated/UCPROBE/probe_com.c **** *               tx_buf_size     Size of the transmit buffer
1025:../Dave/Generated/UCPROBE/probe_com.c **** *
1026:../Dave/Generated/UCPROBE/probe_com.c **** * Return(s)   : The number of bytes written to the tx buffer.
1027:../Dave/Generated/UCPROBE/probe_com.c **** *
1028:../Dave/Generated/UCPROBE/probe_com.c **** * Caller(s)   : ProbeCom_ParseRxPkt().
1029:../Dave/Generated/UCPROBE/probe_com.c **** *
1030:../Dave/Generated/UCPROBE/probe_com.c **** * Note(s)     : (1) The RX format:
1031:../Dave/Generated/UCPROBE/probe_com.c **** *
1032:../Dave/Generated/UCPROBE/probe_com.c **** *                   (A) A 2-byte format, indicating the data segment format;
1033:../Dave/Generated/UCPROBE/probe_com.c **** *                   (B) A 2-byte query , indicating the query type.
1034:../Dave/Generated/UCPROBE/probe_com.c **** *
1035:../Dave/Generated/UCPROBE/probe_com.c **** *                         +-------------------------+-------------------------+
1036:../Dave/Generated/UCPROBE/probe_com.c **** *                         |          Format         |          Query          |
1037:../Dave/Generated/UCPROBE/probe_com.c **** *                         +-------------------------+-------------------------+
1038:../Dave/Generated/UCPROBE/probe_com.c **** *
1039:../Dave/Generated/UCPROBE/probe_com.c **** *              (2) The TX format:
1040:../Dave/Generated/UCPROBE/probe_com.c **** *
1041:../Dave/Generated/UCPROBE/probe_com.c **** *                   (A) A 2-byte format, indicating the data segment format;
1042:../Dave/Generated/UCPROBE/probe_com.c **** *                   (B) A 1-byte status, indicating the status after the request;
1043:../Dave/Generated/UCPROBE/probe_com.c **** *                   (C) A 1-byte modifier;
1044:../Dave/Generated/UCPROBE/probe_com.c **** *                   (E) A n-byte answer, the answer to the query.
1045:../Dave/Generated/UCPROBE/probe_com.c **** *
1046:../Dave/Generated/UCPROBE/probe_com.c **** *                         +-------------------------+------------+------------+
1047:../Dave/Generated/UCPROBE/probe_com.c **** *                         |          Format         |   Status   |  Modifier  |
1048:../Dave/Generated/UCPROBE/probe_com.c **** *                         +-------------------------+------------+------------+
1049:../Dave/Generated/UCPROBE/probe_com.c **** *                         |                       Answer                      |
1050:../Dave/Generated/UCPROBE/probe_com.c **** *                         |                         .                         |
1051:../Dave/Generated/UCPROBE/probe_com.c **** *                         |                         .                         |
1052:../Dave/Generated/UCPROBE/probe_com.c **** *                         |                         .                         |
1053:../Dave/Generated/UCPROBE/probe_com.c **** *                         +---------------------------------------------------+
1054:../Dave/Generated/UCPROBE/probe_com.c **** *
1055:../Dave/Generated/UCPROBE/probe_com.c **** ***************************************************************************************************
1056:../Dave/Generated/UCPROBE/probe_com.c **** */
1057:../Dave/Generated/UCPROBE/probe_com.c **** 
1058:../Dave/Generated/UCPROBE/probe_com.c **** static  CPU_SIZE_T  ProbeCom_ReqQuery (CPU_INT08U  *prx_buf,
1059:../Dave/Generated/UCPROBE/probe_com.c ****                                        CPU_INT08U  *ptx_buf,
1060:../Dave/Generated/UCPROBE/probe_com.c ****                                        CPU_SIZE_T   rx_pkt_size,
1061:../Dave/Generated/UCPROBE/probe_com.c ****                                        CPU_SIZE_T   tx_buf_size)
1062:../Dave/Generated/UCPROBE/probe_com.c **** {
1063:../Dave/Generated/UCPROBE/probe_com.c ****     CPU_INT16U  query;
1064:../Dave/Generated/UCPROBE/probe_com.c ****     CPU_INT32U  status;
1065:../Dave/Generated/UCPROBE/probe_com.c ****     CPU_SIZE_T  tx_len;
1066:../Dave/Generated/UCPROBE/probe_com.c ****     CPU_INT32U  version;
1067:../Dave/Generated/UCPROBE/probe_com.c **** 
1068:../Dave/Generated/UCPROBE/probe_com.c **** 
1069:../Dave/Generated/UCPROBE/probe_com.c ****    (void)&tx_buf_size;                                          /* Prevent compiler warning.       
1070:../Dave/Generated/UCPROBE/probe_com.c **** 
1071:../Dave/Generated/UCPROBE/probe_com.c ****                                                                 /* ------------------- CHK PKT SIZE
1072:../Dave/Generated/UCPROBE/probe_com.c ****                                                                 /* Expected size =  2 (= Rx hdr siz
1073:../Dave/Generated/UCPROBE/probe_com.c ****                                                                 /*               +  2 (= Query     
1074:../Dave/Generated/UCPROBE/probe_com.c ****     if (rx_pkt_size != 4u) {
1075:../Dave/Generated/UCPROBE/probe_com.c ****         tx_len = ProbeCom_ReqErr(ptx_buf, PROBE_COM_STATUS_RX_PKT_WRONG_SIZE);
1076:../Dave/Generated/UCPROBE/probe_com.c ****         return (tx_len);
1077:../Dave/Generated/UCPROBE/probe_com.c ****     }
1078:../Dave/Generated/UCPROBE/probe_com.c **** 
1079:../Dave/Generated/UCPROBE/probe_com.c ****                                                                 /* ------------------- HANDLE QUERY
1080:../Dave/Generated/UCPROBE/probe_com.c ****     query = ProbeCom_GetINT16U(&prx_buf);                       /* Rd the query.                   
1081:../Dave/Generated/UCPROBE/probe_com.c **** 
1082:../Dave/Generated/UCPROBE/probe_com.c ****     switch (query) {                                            /* Determine if query is supported.
1083:../Dave/Generated/UCPROBE/probe_com.c ****         case PROBE_COM_QUERY_MAX_RX_SIZE:
1084:../Dave/Generated/UCPROBE/probe_com.c ****         case PROBE_COM_QUERY_MAX_TX_SIZE:
1085:../Dave/Generated/UCPROBE/probe_com.c ****         case PROBE_COM_QUERY_FMT_SUPPORT:
1086:../Dave/Generated/UCPROBE/probe_com.c ****         case PROBE_COM_QUERY_ENDIANNESS_TEST:
1087:../Dave/Generated/UCPROBE/probe_com.c ****         case PROBE_COM_QUERY_STATUS:
1088:../Dave/Generated/UCPROBE/probe_com.c ****         case PROBE_COM_QUERY_VERSION:
1089:../Dave/Generated/UCPROBE/probe_com.c ****              break;
1090:../Dave/Generated/UCPROBE/probe_com.c **** 
1091:../Dave/Generated/UCPROBE/probe_com.c ****         default:
1092:../Dave/Generated/UCPROBE/probe_com.c ****              tx_len = ProbeCom_ReqErr(ptx_buf, PROBE_COM_STATUS_QUERY_NOT_SUPPORTED);
1093:../Dave/Generated/UCPROBE/probe_com.c ****              return (tx_len);
1094:../Dave/Generated/UCPROBE/probe_com.c ****     }
1095:../Dave/Generated/UCPROBE/probe_com.c **** 
1096:../Dave/Generated/UCPROBE/probe_com.c ****                                                                 /* Sto tx pkt hdr :                
1097:../Dave/Generated/UCPROBE/probe_com.c ****     ProbeCom_StoINT16U(&ptx_buf, PROBE_COM_FMT_TX_QUERY);       /*  (a) TX pkt fmt.                
1098:../Dave/Generated/UCPROBE/probe_com.c ****     ProbeCom_StoINT08U(&ptx_buf, PROBE_COM_STATUS_OK);          /*  (b) Target status.             
1099:../Dave/Generated/UCPROBE/probe_com.c ****     ProbeCom_StoINT08U(&ptx_buf, ProbeCom_PktModifier());       /*  (c) Modifier.                  
1100:../Dave/Generated/UCPROBE/probe_com.c **** 
1101:../Dave/Generated/UCPROBE/probe_com.c ****                                                                 /* Sto tx data segment data.       
1102:../Dave/Generated/UCPROBE/probe_com.c ****     switch (query) {
1103:../Dave/Generated/UCPROBE/probe_com.c ****         case PROBE_COM_QUERY_MAX_RX_SIZE:
1104:../Dave/Generated/UCPROBE/probe_com.c ****              ProbeCom_StoINT16U(&ptx_buf, PROBE_COM_CFG_RX_MAX_SIZE);
1105:../Dave/Generated/UCPROBE/probe_com.c ****              ProbeCom_StoINT16U(&ptx_buf, 0);
1106:../Dave/Generated/UCPROBE/probe_com.c ****              tx_len  = 4u;
1107:../Dave/Generated/UCPROBE/probe_com.c ****              break;
1108:../Dave/Generated/UCPROBE/probe_com.c **** 
1109:../Dave/Generated/UCPROBE/probe_com.c **** 
1110:../Dave/Generated/UCPROBE/probe_com.c ****         case PROBE_COM_QUERY_MAX_TX_SIZE:
1111:../Dave/Generated/UCPROBE/probe_com.c ****              ProbeCom_StoINT16U(&ptx_buf, PROBE_COM_CFG_TX_MAX_SIZE);
1112:../Dave/Generated/UCPROBE/probe_com.c ****              ProbeCom_StoINT16U(&ptx_buf, 0);
1113:../Dave/Generated/UCPROBE/probe_com.c ****              tx_len  = 4u;
1114:../Dave/Generated/UCPROBE/probe_com.c ****              break;
1115:../Dave/Generated/UCPROBE/probe_com.c **** 
1116:../Dave/Generated/UCPROBE/probe_com.c **** 
1117:../Dave/Generated/UCPROBE/probe_com.c ****         case PROBE_COM_QUERY_FMT_SUPPORT:
1118:../Dave/Generated/UCPROBE/probe_com.c ****              ProbeCom_StoINT16U(&ptx_buf, PROBE_COM_FMT_RX_QUERY);
1119:../Dave/Generated/UCPROBE/probe_com.c ****              ProbeCom_StoINT16U(&ptx_buf, PROBE_COM_FMT_RX_RD);
1120:../Dave/Generated/UCPROBE/probe_com.c ****              ProbeCom_StoINT16U(&ptx_buf, PROBE_COM_FMT_RX_RD_MULTI);
1121:../Dave/Generated/UCPROBE/probe_com.c ****              tx_len  = 8u;
1122:../Dave/Generated/UCPROBE/probe_com.c **** #if (PROBE_COM_CFG_WR_REQ_EN == DEF_ENABLED)
1123:../Dave/Generated/UCPROBE/probe_com.c ****              ProbeCom_StoINT16U(&ptx_buf, PROBE_COM_FMT_RX_WR);
1124:../Dave/Generated/UCPROBE/probe_com.c ****              ProbeCom_StoINT16U(&ptx_buf, PROBE_COM_FMT_RX_WR_MULTI);
1125:../Dave/Generated/UCPROBE/probe_com.c ****              tx_len += 4u;
1126:../Dave/Generated/UCPROBE/probe_com.c **** #endif
1127:../Dave/Generated/UCPROBE/probe_com.c **** #if (PROBE_COM_CFG_STR_REQ_EN == DEF_ENABLED)
1128:../Dave/Generated/UCPROBE/probe_com.c ****              ProbeCom_StoINT16U(&ptx_buf, PROBE_COM_FMT_RX_STR_IN);
1129:../Dave/Generated/UCPROBE/probe_com.c ****              ProbeCom_StoINT16U(&ptx_buf, PROBE_COM_FMT_RX_STR_OUT);
1130:../Dave/Generated/UCPROBE/probe_com.c ****              tx_len += 4u;
1131:../Dave/Generated/UCPROBE/probe_com.c **** #endif
1132:../Dave/Generated/UCPROBE/probe_com.c **** #if (PROBE_COM_CFG_TERMINAL_REQ_EN == DEF_ENABLED)
1133:../Dave/Generated/UCPROBE/probe_com.c ****              ProbeCom_StoINT16U(&ptx_buf, PROBE_COM_FMT_RX_TERMINAL_EXEC);
1134:../Dave/Generated/UCPROBE/probe_com.c ****              ProbeCom_StoINT16U(&ptx_buf, PROBE_COM_FMT_RX_TERMINAL_IN);
1135:../Dave/Generated/UCPROBE/probe_com.c ****              ProbeCom_StoINT16U(&ptx_buf, PROBE_COM_FMT_RX_TERMINAL_OUT);
1136:../Dave/Generated/UCPROBE/probe_com.c ****              tx_len += 6u;
1137:../Dave/Generated/UCPROBE/probe_com.c **** #endif
1138:../Dave/Generated/UCPROBE/probe_com.c ****              break;
1139:../Dave/Generated/UCPROBE/probe_com.c **** 
1140:../Dave/Generated/UCPROBE/probe_com.c **** 
1141:../Dave/Generated/UCPROBE/probe_com.c ****         case PROBE_COM_QUERY_ENDIANNESS_TEST:
1142:../Dave/Generated/UCPROBE/probe_com.c ****              ProbeCom_EndiannessTest = 0x12345678;
1143:../Dave/Generated/UCPROBE/probe_com.c ****              Mem_Copy((void     *) ptx_buf,
1144:../Dave/Generated/UCPROBE/probe_com.c ****                       (void     *)&ProbeCom_EndiannessTest,
1145:../Dave/Generated/UCPROBE/probe_com.c ****                       (CPU_SIZE_T) 4);
1146:../Dave/Generated/UCPROBE/probe_com.c ****              tx_len  = 4u;
1147:../Dave/Generated/UCPROBE/probe_com.c ****              break;
1148:../Dave/Generated/UCPROBE/probe_com.c **** 
1149:../Dave/Generated/UCPROBE/probe_com.c **** 
1150:../Dave/Generated/UCPROBE/probe_com.c ****         case PROBE_COM_QUERY_STATUS:
1151:../Dave/Generated/UCPROBE/probe_com.c ****              status = (CPU_INT32U)ProbeCom_PktModifier();
1152:../Dave/Generated/UCPROBE/probe_com.c ****              Mem_Copy((void     *) ptx_buf,
1153:../Dave/Generated/UCPROBE/probe_com.c ****                       (void     *)&status,
1154:../Dave/Generated/UCPROBE/probe_com.c ****                       (CPU_SIZE_T) 4);
1155:../Dave/Generated/UCPROBE/probe_com.c ****              tx_len = 4u;
1156:../Dave/Generated/UCPROBE/probe_com.c ****              break;
1157:../Dave/Generated/UCPROBE/probe_com.c **** 
1158:../Dave/Generated/UCPROBE/probe_com.c **** 
1159:../Dave/Generated/UCPROBE/probe_com.c ****         case PROBE_COM_QUERY_VERSION:
1160:../Dave/Generated/UCPROBE/probe_com.c ****              version = PROBE_COM_VERSION;
1161:../Dave/Generated/UCPROBE/probe_com.c ****              Mem_Copy((void     *) ptx_buf,
1162:../Dave/Generated/UCPROBE/probe_com.c ****                       (void     *)&version,
1163:../Dave/Generated/UCPROBE/probe_com.c ****                       (CPU_SIZE_T) 4);
1164:../Dave/Generated/UCPROBE/probe_com.c ****              tx_len  = 4u;
1165:../Dave/Generated/UCPROBE/probe_com.c ****              break;
1166:../Dave/Generated/UCPROBE/probe_com.c **** 
1167:../Dave/Generated/UCPROBE/probe_com.c **** 
1168:../Dave/Generated/UCPROBE/probe_com.c ****         default:
1169:../Dave/Generated/UCPROBE/probe_com.c ****              tx_len  = 0u;
1170:../Dave/Generated/UCPROBE/probe_com.c ****              break;
1171:../Dave/Generated/UCPROBE/probe_com.c ****     }
1172:../Dave/Generated/UCPROBE/probe_com.c **** 
1173:../Dave/Generated/UCPROBE/probe_com.c ****                                                                 /* ------------------ RTN TX PKT SI
1174:../Dave/Generated/UCPROBE/probe_com.c ****     tx_len += PROBE_COM_SIZE_TX_HDR;
1175:../Dave/Generated/UCPROBE/probe_com.c ****     return (tx_len);                                            /* TX pkt size = nbytes (= Tx data 
1176:../Dave/Generated/UCPROBE/probe_com.c ****                                                                 /*             + 4      (= Tx hdr  
1177:../Dave/Generated/UCPROBE/probe_com.c **** }
1178:../Dave/Generated/UCPROBE/probe_com.c **** 
1179:../Dave/Generated/UCPROBE/probe_com.c **** 
1180:../Dave/Generated/UCPROBE/probe_com.c **** /*
1181:../Dave/Generated/UCPROBE/probe_com.c **** ***************************************************************************************************
1182:../Dave/Generated/UCPROBE/probe_com.c **** *                                          ProbeCom_ReqRd()
1183:../Dave/Generated/UCPROBE/probe_com.c **** *
1184:../Dave/Generated/UCPROBE/probe_com.c **** * Description : Parse the FMT_RD request & formulate response.  This command causes the target to s
1185:../Dave/Generated/UCPROBE/probe_com.c **** *               data read from its memory for a certain {memory address, data length} pair (which i
1186:../Dave/Generated/UCPROBE/probe_com.c **** *               given in the request).
1187:../Dave/Generated/UCPROBE/probe_com.c **** *
1188:../Dave/Generated/UCPROBE/probe_com.c **** * Argument(s) : prx_buf         Pointer to the receive  buffer
1189:../Dave/Generated/UCPROBE/probe_com.c **** *
1190:../Dave/Generated/UCPROBE/probe_com.c **** *               ptx_buf         Pointer to the transmit buffer
1191:../Dave/Generated/UCPROBE/probe_com.c **** *
1192:../Dave/Generated/UCPROBE/probe_com.c **** *               rx_pkt_size     Size of the receive  packet
1193:../Dave/Generated/UCPROBE/probe_com.c **** *
1194:../Dave/Generated/UCPROBE/probe_com.c **** *               tx_buf_size     Size of the transmit buffer
1195:../Dave/Generated/UCPROBE/probe_com.c **** *
1196:../Dave/Generated/UCPROBE/probe_com.c **** * Return(s)   : The number of bytes written to the tx buffer.
1197:../Dave/Generated/UCPROBE/probe_com.c **** *
1198:../Dave/Generated/UCPROBE/probe_com.c **** * Caller(s)   : ProbeCom_ParseRxPkt().
1199:../Dave/Generated/UCPROBE/probe_com.c **** *
1200:../Dave/Generated/UCPROBE/probe_com.c **** * Note(s)     : (1) The RX format:
1201:../Dave/Generated/UCPROBE/probe_com.c **** *
1202:../Dave/Generated/UCPROBE/probe_com.c **** *                   (A) A 2-byte format , indicating the data segment format;
1203:../Dave/Generated/UCPROBE/probe_com.c **** *                   (B) A 2-byte length , indicating the number of bytes to read;
1204:../Dave/Generated/UCPROBE/probe_com.c **** *                   (C) A 4-byte address, the starting address of the data to read.
1205:../Dave/Generated/UCPROBE/probe_com.c **** *
1206:../Dave/Generated/UCPROBE/probe_com.c **** *                         +-------------------------+-------------------------+
1207:../Dave/Generated/UCPROBE/probe_com.c **** *                         |          Format         |     Number of bytes     |
1208:../Dave/Generated/UCPROBE/probe_com.c **** *                         +-------------------------+-------------------------+
1209:../Dave/Generated/UCPROBE/probe_com.c **** *                         |                      Address                      |
1210:../Dave/Generated/UCPROBE/probe_com.c **** *                         +-------------------------+-------------------------+
1211:../Dave/Generated/UCPROBE/probe_com.c **** *
1212:../Dave/Generated/UCPROBE/probe_com.c **** *               (2) The TX format:
1213:../Dave/Generated/UCPROBE/probe_com.c **** *
1214:../Dave/Generated/UCPROBE/probe_com.c **** *                   (A) A 2-byte format, indicating the data segment format;
1215:../Dave/Generated/UCPROBE/probe_com.c **** *                   (B) A 1-byte status, indicating the status after the request;
1216:../Dave/Generated/UCPROBE/probe_com.c **** *                   (C) A 1-byte modifier;
1217:../Dave/Generated/UCPROBE/probe_com.c **** *                   (D) The memory data.
1218:../Dave/Generated/UCPROBE/probe_com.c **** *
1219:../Dave/Generated/UCPROBE/probe_com.c **** *                         +-------------------------+------------+------------+
1220:../Dave/Generated/UCPROBE/probe_com.c **** *                         |          Format         |   Status   |  Modifier  |
1221:../Dave/Generated/UCPROBE/probe_com.c **** *                         +-------------------------+------------+------------+
1222:../Dave/Generated/UCPROBE/probe_com.c **** *                         |                        Data                       |
1223:../Dave/Generated/UCPROBE/probe_com.c **** *                         |                         .                         |
1224:../Dave/Generated/UCPROBE/probe_com.c **** *                         |                         .                         |
1225:../Dave/Generated/UCPROBE/probe_com.c **** *                         |                         .                         |
1226:../Dave/Generated/UCPROBE/probe_com.c **** *                         +---------------------------------------------------+
1227:../Dave/Generated/UCPROBE/probe_com.c **** *
1228:../Dave/Generated/UCPROBE/probe_com.c **** ***************************************************************************************************
1229:../Dave/Generated/UCPROBE/probe_com.c **** */
1230:../Dave/Generated/UCPROBE/probe_com.c **** 
1231:../Dave/Generated/UCPROBE/probe_com.c **** static  CPU_SIZE_T  ProbeCom_ReqRd (CPU_INT08U  *prx_buf,
1232:../Dave/Generated/UCPROBE/probe_com.c ****                                     CPU_INT08U  *ptx_buf,
1233:../Dave/Generated/UCPROBE/probe_com.c ****                                     CPU_SIZE_T   rx_pkt_size,
1234:../Dave/Generated/UCPROBE/probe_com.c ****                                     CPU_SIZE_T   tx_buf_size)
1235:../Dave/Generated/UCPROBE/probe_com.c **** {
1236:../Dave/Generated/UCPROBE/probe_com.c ****     CPU_ADDR    sym_addr;
1237:../Dave/Generated/UCPROBE/probe_com.c ****     CPU_SIZE_T  sym_size;
1238:../Dave/Generated/UCPROBE/probe_com.c ****     CPU_SIZE_T  tx_len;
1239:../Dave/Generated/UCPROBE/probe_com.c **** 
1240:../Dave/Generated/UCPROBE/probe_com.c **** 
1241:../Dave/Generated/UCPROBE/probe_com.c ****                                                                 /* ------------------- CHK PKT SIZE
1242:../Dave/Generated/UCPROBE/probe_com.c ****                                                                 /* Expected size = 2 (= Rx hdr size
1243:../Dave/Generated/UCPROBE/probe_com.c ****                                                                 /*               + 2 (= Sym size   
1244:../Dave/Generated/UCPROBE/probe_com.c ****                                                                 /*               + 4 (= Sym addr   
1245:../Dave/Generated/UCPROBE/probe_com.c ****     if (rx_pkt_size != 8u) {
1246:../Dave/Generated/UCPROBE/probe_com.c ****         tx_len = ProbeCom_ReqErr(ptx_buf, PROBE_COM_STATUS_RX_PKT_WRONG_SIZE);
1247:../Dave/Generated/UCPROBE/probe_com.c ****         return (tx_len);
1248:../Dave/Generated/UCPROBE/probe_com.c ****     }
1249:../Dave/Generated/UCPROBE/probe_com.c **** 
1250:../Dave/Generated/UCPROBE/probe_com.c **** 
1251:../Dave/Generated/UCPROBE/probe_com.c ****                                                                 /* -------------------- HANDLE RD -
1252:../Dave/Generated/UCPROBE/probe_com.c ****     sym_size = ProbeCom_GetINT16U(&prx_buf);                    /* Get nbr of bytes to rd.         
1253:../Dave/Generated/UCPROBE/probe_com.c **** 
1254:../Dave/Generated/UCPROBE/probe_com.c ****                                                                 /* Get rd addr.                    
1255:../Dave/Generated/UCPROBE/probe_com.c **** #if ((!defined(CPU_CFG_ADDR_SIZE)) || \
1256:../Dave/Generated/UCPROBE/probe_com.c ****      ((defined(CPU_CFG_ADDR_SIZE)) && \
1257:../Dave/Generated/UCPROBE/probe_com.c ****               (CPU_CFG_ADDR_SIZE   != CPU_WORD_SIZE_16)))
1258:../Dave/Generated/UCPROBE/probe_com.c ****     sym_addr = (CPU_ADDR)ProbeCom_GetINT32U(&prx_buf);
1259:../Dave/Generated/UCPROBE/probe_com.c **** #else
1260:../Dave/Generated/UCPROBE/probe_com.c ****     sym_addr = (CPU_ADDR)ProbeCom_GetINT16U(&prx_buf);
1261:../Dave/Generated/UCPROBE/probe_com.c **** #endif
1262:../Dave/Generated/UCPROBE/probe_com.c **** 
1263:../Dave/Generated/UCPROBE/probe_com.c ****     if (sym_size + PROBE_COM_SIZE_TX_HDR > tx_buf_size) {       /* If tx pkt will NOT fit in buf, r
1264:../Dave/Generated/UCPROBE/probe_com.c ****         tx_len = ProbeCom_ReqErr(ptx_buf, PROBE_COM_STATUS_TX_PKT_TOO_LARGE);
1265:../Dave/Generated/UCPROBE/probe_com.c ****         return (tx_len);
1266:../Dave/Generated/UCPROBE/probe_com.c ****     }
1267:../Dave/Generated/UCPROBE/probe_com.c **** 
1268:../Dave/Generated/UCPROBE/probe_com.c **** #if (PROBE_COM_CFG_STAT_EN == DEF_ENABLED)
1269:../Dave/Generated/UCPROBE/probe_com.c ****     ProbeCom_TxSymCtr++;                                        /* Inc tx sym ctr.                 
1270:../Dave/Generated/UCPROBE/probe_com.c ****     ProbeCom_TxSymByteCtr += sym_size;
1271:../Dave/Generated/UCPROBE/probe_com.c **** #endif
1272:../Dave/Generated/UCPROBE/probe_com.c **** 
1273:../Dave/Generated/UCPROBE/probe_com.c ****                                                                 /* Store tx pkt hdr :              
1274:../Dave/Generated/UCPROBE/probe_com.c ****     ProbeCom_StoINT16U(&ptx_buf, PROBE_COM_FMT_TX_RD);          /*  (a) Tx pkt fmt.                
1275:../Dave/Generated/UCPROBE/probe_com.c ****     ProbeCom_StoINT08U(&ptx_buf, PROBE_COM_STATUS_OK);          /*  (b) Target status.             
1276:../Dave/Generated/UCPROBE/probe_com.c ****     ProbeCom_StoINT08U(&ptx_buf, ProbeCom_PktModifier());       /*  (c) Modifier.                  
1277:../Dave/Generated/UCPROBE/probe_com.c **** 
1278:../Dave/Generated/UCPROBE/probe_com.c ****     Mem_Copy((void     *)ptx_buf,                               /* Save tx data segment data.      
1279:../Dave/Generated/UCPROBE/probe_com.c ****              (void     *)sym_addr,
1280:../Dave/Generated/UCPROBE/probe_com.c ****              (CPU_SIZE_T)sym_size);
1281:../Dave/Generated/UCPROBE/probe_com.c **** 
1282:../Dave/Generated/UCPROBE/probe_com.c ****                                                                 /* ------------------ RTN TX PKT SI
1283:../Dave/Generated/UCPROBE/probe_com.c ****     tx_len = sym_size + PROBE_COM_SIZE_TX_HDR;
1284:../Dave/Generated/UCPROBE/probe_com.c ****     return (tx_len);                                            /* Tx pkt size = nbytes (= Tx data 
1285:../Dave/Generated/UCPROBE/probe_com.c ****                                                                 /*             + 4      (= Tx heade
1286:../Dave/Generated/UCPROBE/probe_com.c **** }
1287:../Dave/Generated/UCPROBE/probe_com.c **** 
1288:../Dave/Generated/UCPROBE/probe_com.c **** 
1289:../Dave/Generated/UCPROBE/probe_com.c **** /*
1290:../Dave/Generated/UCPROBE/probe_com.c **** ***************************************************************************************************
1291:../Dave/Generated/UCPROBE/probe_com.c **** *                                        ProbeCom_ReqRdMulti()
1292:../Dave/Generated/UCPROBE/probe_com.c **** *
1293:../Dave/Generated/UCPROBE/probe_com.c **** * Description : Parse the FMT_RD_MULTI request & formulate respnse.  This command causes the target
1294:../Dave/Generated/UCPROBE/probe_com.c **** *               send data read from its memory for a certain set of {memory address, data length} p
1295:../Dave/Generated/UCPROBE/probe_com.c **** *               (which are given in the request).
1296:../Dave/Generated/UCPROBE/probe_com.c **** *
1297:../Dave/Generated/UCPROBE/probe_com.c **** * Argument(s) : prx_buf         Pointer to the receive  buffer
1298:../Dave/Generated/UCPROBE/probe_com.c **** *
1299:../Dave/Generated/UCPROBE/probe_com.c **** *               ptx_buf         Pointer to the transmit buffer
1300:../Dave/Generated/UCPROBE/probe_com.c **** *
1301:../Dave/Generated/UCPROBE/probe_com.c **** *               rx_pkt_size     Size of the receive  packet
1302:../Dave/Generated/UCPROBE/probe_com.c **** *
1303:../Dave/Generated/UCPROBE/probe_com.c **** *               tx_buf_size     Size of the transmit buffer
1304:../Dave/Generated/UCPROBE/probe_com.c **** *
1305:../Dave/Generated/UCPROBE/probe_com.c **** * Return(s)   : The number of bytes written to the tx buffer.
1306:../Dave/Generated/UCPROBE/probe_com.c **** *
1307:../Dave/Generated/UCPROBE/probe_com.c **** * Caller(s)   : ProbeCom_ParseRxPkt().
1308:../Dave/Generated/UCPROBE/probe_com.c **** *
1309:../Dave/Generated/UCPROBE/probe_com.c **** * Note(s)     : (1) The RX format:
1310:../Dave/Generated/UCPROBE/probe_com.c **** *
1311:../Dave/Generated/UCPROBE/probe_com.c **** *                   (A) A 2-byte format,          indicating the data segment format;
1312:../Dave/Generated/UCPROBE/probe_com.c **** *                   (B) A 5-byte item descriptor, for each item in the list, consisting of:
1313:../Dave/Generated/UCPROBE/probe_com.c **** *
1314:../Dave/Generated/UCPROBE/probe_com.c **** *                       (1) A 4-byte address, the starting address of the data to read;
1315:../Dave/Generated/UCPROBE/probe_com.c **** *                       (2) A 1-byte length,  indicating the number of bytes to read.
1316:../Dave/Generated/UCPROBE/probe_com.c **** *
1317:../Dave/Generated/UCPROBE/probe_com.c **** *                         +-------------------------+------------+------------+
1318:../Dave/Generated/UCPROBE/probe_com.c **** *                         |          Format         | Num. bytes |         Addr       ---
1319:../Dave/Generated/UCPROBE/probe_com.c **** *                         +-------------------------+------------+------------+        |    Item 1
1320:../Dave/Generated/UCPROBE/probe_com.c **** *                         ress                                   | Num. bytes |       ---
1321:../Dave/Generated/UCPROBE/probe_com.c **** *                         +--------------------------------------+------------+        |
1322:../Dave/Generated/UCPROBE/probe_com.c **** *                         |                      Address                      |        |    Item 2
1323:../Dave/Generated/UCPROBE/probe_com.c **** *                         +------------+--------------------------------------+       ---
1324:../Dave/Generated/UCPROBE/probe_com.c **** *                         | Num. bytes |                                   Addr        |    Item 3
1325:../Dave/Generated/UCPROBE/probe_com.c **** *                         +------------+--------------------------------------+        .
1326:../Dave/Generated/UCPROBE/probe_com.c **** *                         |                         .                         |        .
1327:../Dave/Generated/UCPROBE/probe_com.c **** *                         |                         .                         |        .
1328:../Dave/Generated/UCPROBE/probe_com.c **** *                         |                         .                         |        .
1329:../Dave/Generated/UCPROBE/probe_com.c **** *                         |                         .                         |        .
1330:../Dave/Generated/UCPROBE/probe_com.c **** *                         +--------------------------------------+------------+        .
1331:../Dave/Generated/UCPROBE/probe_com.c **** *                         ress                                   | Num. bytes |       ---
1332:../Dave/Generated/UCPROBE/probe_com.c **** *                         ---------------------------------------+------------+        |   Item n
1333:../Dave/Generated/UCPROBE/probe_com.c **** *                         |                      Address                      |        |
1334:../Dave/Generated/UCPROBE/probe_com.c **** *                         +---------------------------------------------------+       ---
1335:../Dave/Generated/UCPROBE/probe_com.c **** *
1336:../Dave/Generated/UCPROBE/probe_com.c **** *               (2) The TX format:
1337:../Dave/Generated/UCPROBE/probe_com.c **** *
1338:../Dave/Generated/UCPROBE/probe_com.c **** *                   (A) A 2-byte format, indicating the data segment format;
1339:../Dave/Generated/UCPROBE/probe_com.c **** *                   (B) A 1-byte status, indicating the status after the request;
1340:../Dave/Generated/UCPROBE/probe_com.c **** *                   (C) A 1-byte modifier;
1341:../Dave/Generated/UCPROBE/probe_com.c **** *                   (D) For each item, the following is sent:
1342:../Dave/Generated/UCPROBE/probe_com.c **** *
1343:../Dave/Generated/UCPROBE/probe_com.c **** *                       (1) The memory data.
1344:../Dave/Generated/UCPROBE/probe_com.c **** *
1345:../Dave/Generated/UCPROBE/probe_com.c **** *                         +-------------------------+------------+------------+
1346:../Dave/Generated/UCPROBE/probe_com.c **** *                         |          Format         |   Status   |  Modifier  |
1347:../Dave/Generated/UCPROBE/probe_com.c **** *                         +-------------------------+------------+------------+       ---
1348:../Dave/Generated/UCPROBE/probe_com.c **** *                         |                        Data                       |        |    Item 1
1349:../Dave/Generated/UCPROBE/probe_com.c **** *                         |                         .                         |        |
1350:../Dave/Generated/UCPROBE/probe_com.c **** *                         |                         .                         |        |
1351:../Dave/Generated/UCPROBE/probe_com.c **** *                         |                         .                         |        |
1352:../Dave/Generated/UCPROBE/probe_com.c **** *                         +---------------------------------------------------+       ---
1353:../Dave/Generated/UCPROBE/probe_com.c **** *                         |                         .                         |        .
1354:../Dave/Generated/UCPROBE/probe_com.c **** *                         |                         .                         |        .
1355:../Dave/Generated/UCPROBE/probe_com.c **** *                         |                         .                         |        .
1356:../Dave/Generated/UCPROBE/probe_com.c **** *                         |                         .                         |        .
1357:../Dave/Generated/UCPROBE/probe_com.c **** *                         |                         .                         |        .
1358:../Dave/Generated/UCPROBE/probe_com.c **** *                         +---------------------------------------------------+       ---
1359:../Dave/Generated/UCPROBE/probe_com.c **** *                         |                        Data                       |        |    Item n
1360:../Dave/Generated/UCPROBE/probe_com.c **** *                         |                         .                         |        |
1361:../Dave/Generated/UCPROBE/probe_com.c **** *                         |                         .                         |        |
1362:../Dave/Generated/UCPROBE/probe_com.c **** *                         |                         .                         |        |
1363:../Dave/Generated/UCPROBE/probe_com.c **** *                         +---------------------------------------------------+       ---
1364:../Dave/Generated/UCPROBE/probe_com.c **** *
1365:../Dave/Generated/UCPROBE/probe_com.c **** ***************************************************************************************************
1366:../Dave/Generated/UCPROBE/probe_com.c **** */
1367:../Dave/Generated/UCPROBE/probe_com.c **** 
1368:../Dave/Generated/UCPROBE/probe_com.c **** static  CPU_SIZE_T  ProbeCom_ReqRdMulti (CPU_INT08U  *prx_buf,
1369:../Dave/Generated/UCPROBE/probe_com.c ****                                          CPU_INT08U  *ptx_buf,
1370:../Dave/Generated/UCPROBE/probe_com.c ****                                          CPU_SIZE_T   rx_pkt_size,
1371:../Dave/Generated/UCPROBE/probe_com.c ****                                          CPU_SIZE_T   tx_buf_size)
1372:../Dave/Generated/UCPROBE/probe_com.c **** {
1373:../Dave/Generated/UCPROBE/probe_com.c ****     CPU_SIZE_T   rx_pkt_ix;
1374:../Dave/Generated/UCPROBE/probe_com.c **** #if (PROBE_COM_CFG_STAT_EN == DEF_ENABLED)
1375:../Dave/Generated/UCPROBE/probe_com.c ****     CPU_INT32U   sym_byte_ctr;
1376:../Dave/Generated/UCPROBE/probe_com.c ****     CPU_INT32U   sym_ctr;
1377:../Dave/Generated/UCPROBE/probe_com.c **** #endif
1378:../Dave/Generated/UCPROBE/probe_com.c ****     CPU_ADDR     sym_addr;
1379:../Dave/Generated/UCPROBE/probe_com.c ****     CPU_SIZE_T   sym_size;
1380:../Dave/Generated/UCPROBE/probe_com.c ****     CPU_SIZE_T   tx_len;
1381:../Dave/Generated/UCPROBE/probe_com.c ****     CPU_INT08U  *ptx_buf_start;
1382:../Dave/Generated/UCPROBE/probe_com.c **** 
1383:../Dave/Generated/UCPROBE/probe_com.c **** 
1384:../Dave/Generated/UCPROBE/probe_com.c ****                                                                 /* ------------------- CHK PKT SIZE
1385:../Dave/Generated/UCPROBE/probe_com.c ****                                                                 /* Expected size >= 2 (= Rx hdr siz
1386:../Dave/Generated/UCPROBE/probe_com.c ****                                                                 /*                + 5 (= 1 item des
1387:../Dave/Generated/UCPROBE/probe_com.c ****     if (rx_pkt_size  < 7u) {
1388:../Dave/Generated/UCPROBE/probe_com.c ****         tx_len = ProbeCom_ReqErr(ptx_buf, PROBE_COM_STATUS_RX_PKT_WRONG_SIZE);
1389:../Dave/Generated/UCPROBE/probe_com.c ****         return (tx_len);
1390:../Dave/Generated/UCPROBE/probe_com.c ****     }
1391:../Dave/Generated/UCPROBE/probe_com.c **** 
1392:../Dave/Generated/UCPROBE/probe_com.c ****                                                                 /* -------------------- HANDLE RD -
1393:../Dave/Generated/UCPROBE/probe_com.c ****     ptx_buf_start = ptx_buf;                                    /* Save ptr to tx buf in case pkt i
1394:../Dave/Generated/UCPROBE/probe_com.c ****     tx_len        = PROBE_COM_SIZE_TX_HDR;                      /* Init tx pkt len = 4 = size of hd
1395:../Dave/Generated/UCPROBE/probe_com.c **** 
1396:../Dave/Generated/UCPROBE/probe_com.c ****                                                                 /* Store TX pkt hdr :              
1397:../Dave/Generated/UCPROBE/probe_com.c ****     ptx_buf[0]    = PROBE_COM_FMT_TX_RD_MULTI_LO;               /* (a) TX pkt fmt.                 
1398:../Dave/Generated/UCPROBE/probe_com.c ****     ptx_buf[1]    = PROBE_COM_FMT_TX_RD_MULTI_HI;
1399:../Dave/Generated/UCPROBE/probe_com.c ****     ptx_buf[2]    = PROBE_COM_STATUS_OK;                        /* (b) Target status.              
1400:../Dave/Generated/UCPROBE/probe_com.c ****     ptx_buf[3]    = ProbeCom_PktModifier();                     /* (c) Modifier.                   
1401:../Dave/Generated/UCPROBE/probe_com.c ****     ptx_buf      += PROBE_COM_SIZE_TX_HDR;
1402:../Dave/Generated/UCPROBE/probe_com.c **** 
1403:../Dave/Generated/UCPROBE/probe_com.c ****     rx_pkt_ix     = 7u;                                         /* Tx pkt ix after 1st item = 2 (= 
1404:../Dave/Generated/UCPROBE/probe_com.c ****                                                                 /*                          + 5 (= 
1405:../Dave/Generated/UCPROBE/probe_com.c **** 
1406:../Dave/Generated/UCPROBE/probe_com.c **** #if (PROBE_COM_CFG_STAT_EN == DEF_ENABLED)
1407:../Dave/Generated/UCPROBE/probe_com.c ****     sym_ctr      = 0;
1408:../Dave/Generated/UCPROBE/probe_com.c ****     sym_byte_ctr = 0;
1409:../Dave/Generated/UCPROBE/probe_com.c **** #endif
1410:../Dave/Generated/UCPROBE/probe_com.c ****                                                                 /* Sto data for each item.         
1411:../Dave/Generated/UCPROBE/probe_com.c ****     while (rx_pkt_ix <= rx_pkt_size) {
1412:../Dave/Generated/UCPROBE/probe_com.c ****         sym_size   =  prx_buf[0];                               /* (a) Get nbr of bytes to rd.     
1413:../Dave/Generated/UCPROBE/probe_com.c **** 
1414:../Dave/Generated/UCPROBE/probe_com.c ****                                                                 /* (b) Get rd addr.                
1415:../Dave/Generated/UCPROBE/probe_com.c **** #if ((!defined(CPU_CFG_ADDR_SIZE)) || \
1416:../Dave/Generated/UCPROBE/probe_com.c ****      ((defined(CPU_CFG_ADDR_SIZE)) && \
1417:../Dave/Generated/UCPROBE/probe_com.c ****               (CPU_CFG_ADDR_SIZE   != CPU_WORD_SIZE_16)))
1418:../Dave/Generated/UCPROBE/probe_com.c ****         sym_addr   = ((CPU_ADDR)prx_buf[4] << 8) + prx_buf[3];
1419:../Dave/Generated/UCPROBE/probe_com.c ****         sym_addr   = ((CPU_ADDR)sym_addr   << 8) + prx_buf[2];
1420:../Dave/Generated/UCPROBE/probe_com.c ****         sym_addr   = ((CPU_ADDR)sym_addr   << 8) + prx_buf[1];
1421:../Dave/Generated/UCPROBE/probe_com.c **** #else
1422:../Dave/Generated/UCPROBE/probe_com.c ****         sym_addr   = ((CPU_ADDR)prx_buf[2] << 8) + prx_buf[1];
1423:../Dave/Generated/UCPROBE/probe_com.c **** #endif
1424:../Dave/Generated/UCPROBE/probe_com.c **** 
1425:../Dave/Generated/UCPROBE/probe_com.c ****         prx_buf   += 5u;
1426:../Dave/Generated/UCPROBE/probe_com.c ****         rx_pkt_ix += 5u;
1427:../Dave/Generated/UCPROBE/probe_com.c **** 
1428:../Dave/Generated/UCPROBE/probe_com.c ****         tx_len    += sym_size;                                  /* (c) Add nbr of bytes to pkt len.
1429:../Dave/Generated/UCPROBE/probe_com.c **** 
1430:../Dave/Generated/UCPROBE/probe_com.c ****         if (tx_len > tx_buf_size) {                             /* (d) Will pkt be too long for TX 
1431:../Dave/Generated/UCPROBE/probe_com.c ****             ptx_buf = ptx_buf_start;                            /*     ... rtn err.                
1432:../Dave/Generated/UCPROBE/probe_com.c ****             tx_len  = ProbeCom_ReqErr(ptx_buf, PROBE_COM_STATUS_TX_PKT_TOO_LARGE);
1433:../Dave/Generated/UCPROBE/probe_com.c ****             return (tx_len);
1434:../Dave/Generated/UCPROBE/probe_com.c ****         }
1435:../Dave/Generated/UCPROBE/probe_com.c **** 
1436:../Dave/Generated/UCPROBE/probe_com.c **** #if (PROBE_COM_CFG_STAT_EN == DEF_ENABLED)
1437:../Dave/Generated/UCPROBE/probe_com.c ****         sym_ctr++;                                              /* (e) Inc local sym ctr.          
1438:../Dave/Generated/UCPROBE/probe_com.c ****         sym_byte_ctr += sym_size;
1439:../Dave/Generated/UCPROBE/probe_com.c **** #endif
1440:../Dave/Generated/UCPROBE/probe_com.c ****                                                                 /* (f) Otherwise, save TX data.    
1441:../Dave/Generated/UCPROBE/probe_com.c ****         Mem_Copy((void     *)ptx_buf,
1442:../Dave/Generated/UCPROBE/probe_com.c ****                  (void     *)sym_addr,
1443:../Dave/Generated/UCPROBE/probe_com.c ****                  (CPU_SIZE_T)sym_size);
1444:../Dave/Generated/UCPROBE/probe_com.c **** 
1445:../Dave/Generated/UCPROBE/probe_com.c ****         ptx_buf += sym_size;
1446:../Dave/Generated/UCPROBE/probe_com.c ****     }
1447:../Dave/Generated/UCPROBE/probe_com.c **** 
1448:../Dave/Generated/UCPROBE/probe_com.c **** #if (PROBE_COM_CFG_STAT_EN == DEF_ENABLED)
1449:../Dave/Generated/UCPROBE/probe_com.c ****     ProbeCom_TxSymCtr     += sym_ctr;                           /* Inc global sym ctr.             
1450:../Dave/Generated/UCPROBE/probe_com.c ****     ProbeCom_TxSymByteCtr += sym_byte_ctr;
1451:../Dave/Generated/UCPROBE/probe_com.c **** #endif
1452:../Dave/Generated/UCPROBE/probe_com.c **** 
1453:../Dave/Generated/UCPROBE/probe_com.c ****                                                                 /* ------------------ RTN TX PKT SI
1454:../Dave/Generated/UCPROBE/probe_com.c ****     return (tx_len);
1455:../Dave/Generated/UCPROBE/probe_com.c **** }
1456:../Dave/Generated/UCPROBE/probe_com.c **** 
1457:../Dave/Generated/UCPROBE/probe_com.c **** 
1458:../Dave/Generated/UCPROBE/probe_com.c **** /*
1459:../Dave/Generated/UCPROBE/probe_com.c **** ***************************************************************************************************
1460:../Dave/Generated/UCPROBE/probe_com.c **** *                                          ProbeCom_ReqWr()
1461:../Dave/Generated/UCPROBE/probe_com.c **** *
1462:../Dave/Generated/UCPROBE/probe_com.c **** * Description : Parse the FMT_WR request & formulate response.  This command causes the target to w
1463:../Dave/Generated/UCPROBE/probe_com.c **** *               into its memory data from a certain {memory address, data length, data} triplet whi
1464:../Dave/Generated/UCPROBE/probe_com.c **** *               given in the request.
1465:../Dave/Generated/UCPROBE/probe_com.c **** *
1466:../Dave/Generated/UCPROBE/probe_com.c **** * Argument(s) : prx_buf         Pointer to the receive  buffer
1467:../Dave/Generated/UCPROBE/probe_com.c **** *
1468:../Dave/Generated/UCPROBE/probe_com.c **** *               ptx_buf         Pointer to the transmit buffer
1469:../Dave/Generated/UCPROBE/probe_com.c **** *
1470:../Dave/Generated/UCPROBE/probe_com.c **** *               rx_pkt_size     Size of the receive  packet
1471:../Dave/Generated/UCPROBE/probe_com.c **** *
1472:../Dave/Generated/UCPROBE/probe_com.c **** *               tx_buf_size     Size of the transmit buffer
1473:../Dave/Generated/UCPROBE/probe_com.c **** *
1474:../Dave/Generated/UCPROBE/probe_com.c **** * Return(s)   : The number of bytes written to the tx buffer.
1475:../Dave/Generated/UCPROBE/probe_com.c **** *
1476:../Dave/Generated/UCPROBE/probe_com.c **** * Caller(s)   : ProbeCom_ParseRxPkt().
1477:../Dave/Generated/UCPROBE/probe_com.c **** *
1478:../Dave/Generated/UCPROBE/probe_com.c **** * Note(s)     : (1) The RX format:
1479:../Dave/Generated/UCPROBE/probe_com.c **** *
1480:../Dave/Generated/UCPROBE/probe_com.c **** *                   (A) A 2-byte format,  indicating the data segment format;
1481:../Dave/Generated/UCPROBE/probe_com.c **** *                   (B) A 2-byte length,  indicating the number of bytes to write;
1482:../Dave/Generated/UCPROBE/probe_com.c **** *                   (C) A 4-byte address, the starting address at which the data should be written;
1483:../Dave/Generated/UCPROBE/probe_com.c **** *                   (D) The memory data.
1484:../Dave/Generated/UCPROBE/probe_com.c **** *
1485:../Dave/Generated/UCPROBE/probe_com.c **** *                         +-------------------------+-------------------------+
1486:../Dave/Generated/UCPROBE/probe_com.c **** *                         |          Format         |      Number of bytes    |
1487:../Dave/Generated/UCPROBE/probe_com.c **** *                         +-------------------------+-------------------------+
1488:../Dave/Generated/UCPROBE/probe_com.c **** *                         |                      Address                      |
1489:../Dave/Generated/UCPROBE/probe_com.c **** *                         +---------------------------------------------------+
1490:../Dave/Generated/UCPROBE/probe_com.c **** *                         |                        Data                       |
1491:../Dave/Generated/UCPROBE/probe_com.c **** *                         |                         .                         |
1492:../Dave/Generated/UCPROBE/probe_com.c **** *                         |                         .                         |
1493:../Dave/Generated/UCPROBE/probe_com.c **** *                         |                         .                         |
1494:../Dave/Generated/UCPROBE/probe_com.c **** *                         +---------------------------------------------------+
1495:../Dave/Generated/UCPROBE/probe_com.c **** *
1496:../Dave/Generated/UCPROBE/probe_com.c **** *               (2) The TX format:
1497:../Dave/Generated/UCPROBE/probe_com.c **** *
1498:../Dave/Generated/UCPROBE/probe_com.c **** *                   (A) A 2-byte format, indicating the data segment format;
1499:../Dave/Generated/UCPROBE/probe_com.c **** *                   (B) A 1-byte status, indicating the status after the request;
1500:../Dave/Generated/UCPROBE/probe_com.c **** *                   (C) A 1-byte modifier.
1501:../Dave/Generated/UCPROBE/probe_com.c **** *
1502:../Dave/Generated/UCPROBE/probe_com.c **** *                         +-------------------------+------------+------------+
1503:../Dave/Generated/UCPROBE/probe_com.c **** *                         |          Format         |   Status   |  Modifier  |
1504:../Dave/Generated/UCPROBE/probe_com.c **** *                         +-------------------------+------------+------------+
1505:../Dave/Generated/UCPROBE/probe_com.c **** *
1506:../Dave/Generated/UCPROBE/probe_com.c **** ***************************************************************************************************
1507:../Dave/Generated/UCPROBE/probe_com.c **** */
1508:../Dave/Generated/UCPROBE/probe_com.c **** 
1509:../Dave/Generated/UCPROBE/probe_com.c **** #if (PROBE_COM_CFG_WR_REQ_EN == DEF_ENABLED)
1510:../Dave/Generated/UCPROBE/probe_com.c **** static  CPU_SIZE_T  ProbeCom_ReqWr (CPU_INT08U  *prx_buf,
1511:../Dave/Generated/UCPROBE/probe_com.c ****                                     CPU_INT08U  *ptx_buf,
1512:../Dave/Generated/UCPROBE/probe_com.c ****                                     CPU_SIZE_T   rx_pkt_size,
1513:../Dave/Generated/UCPROBE/probe_com.c ****                                     CPU_SIZE_T   tx_buf_size)
1514:../Dave/Generated/UCPROBE/probe_com.c **** {
1515:../Dave/Generated/UCPROBE/probe_com.c ****     CPU_SIZE_T  sym_size;
1516:../Dave/Generated/UCPROBE/probe_com.c ****     CPU_ADDR    sym_addr;
1517:../Dave/Generated/UCPROBE/probe_com.c ****     CPU_SIZE_T  tx_len;
1518:../Dave/Generated/UCPROBE/probe_com.c ****     CPU_SR_ALLOC();
1519:../Dave/Generated/UCPROBE/probe_com.c **** 
1520:../Dave/Generated/UCPROBE/probe_com.c **** 
1521:../Dave/Generated/UCPROBE/probe_com.c ****    (void)&tx_buf_size;                                          /* Prevent compiler warning.       
1522:../Dave/Generated/UCPROBE/probe_com.c **** 
1523:../Dave/Generated/UCPROBE/probe_com.c **** 
1524:../Dave/Generated/UCPROBE/probe_com.c ****                                                                 /* ------------------- CHK PKT SIZE
1525:../Dave/Generated/UCPROBE/probe_com.c ****                                                                 /* Expected size >= 2      (= Rx hd
1526:../Dave/Generated/UCPROBE/probe_com.c ****                                                                 /*                + 2      (= Sym s
1527:../Dave/Generated/UCPROBE/probe_com.c ****                                                                 /*                + 4      (= Sym a
1528:../Dave/Generated/UCPROBE/probe_com.c ****                                                                 /*                + nbytes (= Data 
1529:../Dave/Generated/UCPROBE/probe_com.c ****     if (rx_pkt_size < 8u) {
1530:../Dave/Generated/UCPROBE/probe_com.c ****         tx_len = ProbeCom_ReqErr(ptx_buf, PROBE_COM_STATUS_RX_PKT_WRONG_SIZE);
1531:../Dave/Generated/UCPROBE/probe_com.c ****         return (tx_len);
1532:../Dave/Generated/UCPROBE/probe_com.c ****     }
1533:../Dave/Generated/UCPROBE/probe_com.c **** 
1534:../Dave/Generated/UCPROBE/probe_com.c **** 
1535:../Dave/Generated/UCPROBE/probe_com.c **** 
1536:../Dave/Generated/UCPROBE/probe_com.c ****                                                                 /* -------------------- HANDLE WR -
1537:../Dave/Generated/UCPROBE/probe_com.c ****     sym_size = ProbeCom_GetINT16U(&prx_buf);                    /* Get nbr of bytes to wr.         
1538:../Dave/Generated/UCPROBE/probe_com.c **** 
1539:../Dave/Generated/UCPROBE/probe_com.c ****                                                                 /* Get wr addr.                    
1540:../Dave/Generated/UCPROBE/probe_com.c **** #if ((!defined(CPU_CFG_ADDR_SIZE)) || \
1541:../Dave/Generated/UCPROBE/probe_com.c ****      ((defined(CPU_CFG_ADDR_SIZE)) && \
1542:../Dave/Generated/UCPROBE/probe_com.c ****               (CPU_CFG_ADDR_SIZE   != CPU_WORD_SIZE_16)))
1543:../Dave/Generated/UCPROBE/probe_com.c ****     sym_addr = (CPU_ADDR)ProbeCom_GetINT32U(&prx_buf);
1544:../Dave/Generated/UCPROBE/probe_com.c **** #else
1545:../Dave/Generated/UCPROBE/probe_com.c ****     sym_addr = (CPU_ADDR)ProbeCom_GetINT16U(&prx_buf);
1546:../Dave/Generated/UCPROBE/probe_com.c ****     prx_buf += 2;
1547:../Dave/Generated/UCPROBE/probe_com.c **** #endif
1548:../Dave/Generated/UCPROBE/probe_com.c **** 
1549:../Dave/Generated/UCPROBE/probe_com.c ****     if (rx_pkt_size != (8 + sym_size)) {                        /* If rx data segment is NOT expect
1550:../Dave/Generated/UCPROBE/probe_com.c ****         tx_len = ProbeCom_ReqErr(ptx_buf, PROBE_COM_STATUS_RX_PKT_WRONG_SIZE);
1551:../Dave/Generated/UCPROBE/probe_com.c ****         return (tx_len);
1552:../Dave/Generated/UCPROBE/probe_com.c ****     }
1553:../Dave/Generated/UCPROBE/probe_com.c **** 
1554:../Dave/Generated/UCPROBE/probe_com.c ****                                                                 /* Copy data into mem.             
1555:../Dave/Generated/UCPROBE/probe_com.c ****     CPU_CRITICAL_ENTER();
1556:../Dave/Generated/UCPROBE/probe_com.c ****     Mem_Copy((void     *)sym_addr,
1557:../Dave/Generated/UCPROBE/probe_com.c ****              (void     *)prx_buf,
1558:../Dave/Generated/UCPROBE/probe_com.c ****              (CPU_SIZE_T)sym_size);
1559:../Dave/Generated/UCPROBE/probe_com.c ****     CPU_CRITICAL_EXIT();
1560:../Dave/Generated/UCPROBE/probe_com.c **** 
1561:../Dave/Generated/UCPROBE/probe_com.c **** #if (PROBE_COM_CFG_STAT_EN == DEF_ENABLED)
1562:../Dave/Generated/UCPROBE/probe_com.c ****     ProbeCom_RxSymCtr++;                                        /* Inc global sym ctr.             
1563:../Dave/Generated/UCPROBE/probe_com.c ****     ProbeCom_RxSymByteCtr += sym_size;
1564:../Dave/Generated/UCPROBE/probe_com.c **** #endif
1565:../Dave/Generated/UCPROBE/probe_com.c **** 
1566:../Dave/Generated/UCPROBE/probe_com.c ****                                                                 /* Store TX pkt hdr :              
1567:../Dave/Generated/UCPROBE/probe_com.c ****     ProbeCom_StoINT16U(&ptx_buf, PROBE_COM_FMT_TX_WR);          /* (a) TX pkt fmt.                 
1568:../Dave/Generated/UCPROBE/probe_com.c ****     ProbeCom_StoINT08U(&ptx_buf, PROBE_COM_STATUS_OK);          /* (b) Target status.              
1569:../Dave/Generated/UCPROBE/probe_com.c ****     ProbeCom_StoINT08U(&ptx_buf, ProbeCom_PktModifier());       /* (c) Modifier.                   
1570:../Dave/Generated/UCPROBE/probe_com.c **** 
1571:../Dave/Generated/UCPROBE/probe_com.c **** 
1572:../Dave/Generated/UCPROBE/probe_com.c **** 
1573:../Dave/Generated/UCPROBE/probe_com.c ****                                                                 /* ------------------ RTN TX PKT SI
1574:../Dave/Generated/UCPROBE/probe_com.c ****     tx_len = (CPU_SIZE_T)PROBE_COM_SIZE_TX_HDR;                 /* Tx pkt size = 4 (= Tx hdr size).
1575:../Dave/Generated/UCPROBE/probe_com.c ****     return (tx_len);
1576:../Dave/Generated/UCPROBE/probe_com.c **** }
1577:../Dave/Generated/UCPROBE/probe_com.c **** #endif
1578:../Dave/Generated/UCPROBE/probe_com.c **** 
1579:../Dave/Generated/UCPROBE/probe_com.c **** 
1580:../Dave/Generated/UCPROBE/probe_com.c **** /*
1581:../Dave/Generated/UCPROBE/probe_com.c **** ***************************************************************************************************
1582:../Dave/Generated/UCPROBE/probe_com.c **** *                                        ProbeCom_ReqWrMulti()
1583:../Dave/Generated/UCPROBE/probe_com.c **** *
1584:../Dave/Generated/UCPROBE/probe_com.c **** * Description : Parse the FMT_WR_MULTI request & formulate response.  This command causes the targe
1585:../Dave/Generated/UCPROBE/probe_com.c **** *               write certain data into its memroy, for a certain number of {memory address, data l
1586:../Dave/Generated/UCPROBE/probe_com.c **** *               data} triplets (which are given in the request).
1587:../Dave/Generated/UCPROBE/probe_com.c **** *
1588:../Dave/Generated/UCPROBE/probe_com.c **** * Argument(s) : prx_buf         Pointer to the receive  buffer
1589:../Dave/Generated/UCPROBE/probe_com.c **** *
1590:../Dave/Generated/UCPROBE/probe_com.c **** *               ptx_buf         Pointer to the transmit buffer
1591:../Dave/Generated/UCPROBE/probe_com.c **** *
1592:../Dave/Generated/UCPROBE/probe_com.c **** *               rx_pkt_size     Size of the receive  packet
1593:../Dave/Generated/UCPROBE/probe_com.c **** *
1594:../Dave/Generated/UCPROBE/probe_com.c **** *               tx_buf_size     Size of the transmit buffer
1595:../Dave/Generated/UCPROBE/probe_com.c **** *
1596:../Dave/Generated/UCPROBE/probe_com.c **** * Return(s)   : The number of bytes written to the tx buffer.
1597:../Dave/Generated/UCPROBE/probe_com.c **** *
1598:../Dave/Generated/UCPROBE/probe_com.c **** * Caller(s)   : ProbeCom_ParseRxPkt().
1599:../Dave/Generated/UCPROBE/probe_com.c **** *
1600:../Dave/Generated/UCPROBE/probe_com.c **** * Note(s)     : (1) The RX format:
1601:../Dave/Generated/UCPROBE/probe_com.c **** *
1602:../Dave/Generated/UCPROBE/probe_com.c **** *                   (A) A 2-byte format,  indicating the data segment format;
1603:../Dave/Generated/UCPROBE/probe_com.c **** *                   (B) A n-byte item descriptor, for each item in the list, consiting of the follo
1604:../Dave/Generated/UCPROBE/probe_com.c **** *
1605:../Dave/Generated/UCPROBE/probe_com.c **** *                       (1) A 1-byte length,  indicating the number of bytes to write;
1606:../Dave/Generated/UCPROBE/probe_com.c **** *                       (2) A 4-byte address, the starting address at which the data should be writ
1607:../Dave/Generated/UCPROBE/probe_com.c **** *                       (3) The memory data.
1608:../Dave/Generated/UCPROBE/probe_com.c **** *
1609:../Dave/Generated/UCPROBE/probe_com.c **** *                         +-------------------------+------------+------------+
1610:../Dave/Generated/UCPROBE/probe_com.c **** *                         |          Format         | Num. bytes |         Addr       ---
1611:../Dave/Generated/UCPROBE/probe_com.c **** *                         +-------------------------+------------+------------+        |
1612:../Dave/Generated/UCPROBE/probe_com.c **** *                         ress                                   |            |        |
1613:../Dave/Generated/UCPROBE/probe_com.c **** *                         +--------------------------------------+            |        |    Item 1
1614:../Dave/Generated/UCPROBE/probe_com.c **** *                         |                       Data                        |        |
1615:../Dave/Generated/UCPROBE/probe_com.c **** *                         |                         .                         |        |
1616:../Dave/Generated/UCPROBE/probe_com.c **** *                         |                         .                         |        |
1617:../Dave/Generated/UCPROBE/probe_com.c **** *                         +------------+--------------------------------------+       ---
1618:../Dave/Generated/UCPROBE/probe_com.c **** *                         | Num. bytes |                                   Addr        |    Item 2
1619:../Dave/Generated/UCPROBE/probe_com.c **** *                         +------------+--------------------------------------+        .
1620:../Dave/Generated/UCPROBE/probe_com.c **** *                         |                         .                         |        .
1621:../Dave/Generated/UCPROBE/probe_com.c **** *                         |                         .                         |        .
1622:../Dave/Generated/UCPROBE/probe_com.c **** *                         |                         .            +------------+        .
1623:../Dave/Generated/UCPROBE/probe_com.c **** *                         |                         .            | Num. bytes |       ---
1624:../Dave/Generated/UCPROBE/probe_com.c **** *                         ---------------------------------------+------------+        |
1625:../Dave/Generated/UCPROBE/probe_com.c **** *                         |                      Address                      |        |
1626:../Dave/Generated/UCPROBE/probe_com.c **** *                         +---------------------------------------------------+        |    Item n
1627:../Dave/Generated/UCPROBE/probe_com.c **** *                         |                       Data                        |        |
1628:../Dave/Generated/UCPROBE/probe_com.c **** *                         |                         .                         |        |
1629:../Dave/Generated/UCPROBE/probe_com.c **** *                         |                         .                         |        |
1630:../Dave/Generated/UCPROBE/probe_com.c **** *                         +------------+--------------------------------------+       ---
1631:../Dave/Generated/UCPROBE/probe_com.c **** *
1632:../Dave/Generated/UCPROBE/probe_com.c **** *               (2) The TX format:
1633:../Dave/Generated/UCPROBE/probe_com.c **** *
1634:../Dave/Generated/UCPROBE/probe_com.c **** *                   (A) A 2-byte format, indicating the data segment format;
1635:../Dave/Generated/UCPROBE/probe_com.c **** *                   (B) A 1-byte status, indicating the status after the request;
1636:../Dave/Generated/UCPROBE/probe_com.c **** *                   (C) A 1-byte modifier.
1637:../Dave/Generated/UCPROBE/probe_com.c **** *
1638:../Dave/Generated/UCPROBE/probe_com.c **** *                         +-------------------------+------------+------------+
1639:../Dave/Generated/UCPROBE/probe_com.c **** *                         |          Format         |   Status   |  Modifier  |
1640:../Dave/Generated/UCPROBE/probe_com.c **** *                         +-------------------------+------------+------------+
1641:../Dave/Generated/UCPROBE/probe_com.c **** *
1642:../Dave/Generated/UCPROBE/probe_com.c **** ***************************************************************************************************
1643:../Dave/Generated/UCPROBE/probe_com.c **** */
1644:../Dave/Generated/UCPROBE/probe_com.c **** 
1645:../Dave/Generated/UCPROBE/probe_com.c **** #if (PROBE_COM_CFG_WR_REQ_EN == DEF_ENABLED)
1646:../Dave/Generated/UCPROBE/probe_com.c **** static  CPU_SIZE_T  ProbeCom_ReqWrMulti (CPU_INT08U  *prx_buf,
1647:../Dave/Generated/UCPROBE/probe_com.c ****                                          CPU_INT08U  *ptx_buf,
1648:../Dave/Generated/UCPROBE/probe_com.c ****                                          CPU_SIZE_T   rx_pkt_size,
1649:../Dave/Generated/UCPROBE/probe_com.c ****                                          CPU_SIZE_T   tx_buf_size)
1650:../Dave/Generated/UCPROBE/probe_com.c **** {
1651:../Dave/Generated/UCPROBE/probe_com.c ****     CPU_SIZE_T  rx_pkt_ix;
1652:../Dave/Generated/UCPROBE/probe_com.c **** #if (PROBE_COM_CFG_STAT_EN == DEF_ENABLED)
1653:../Dave/Generated/UCPROBE/probe_com.c ****     CPU_INT32U  sym_ctr;
1654:../Dave/Generated/UCPROBE/probe_com.c ****     CPU_INT32U  sym_byte_ctr;
1655:../Dave/Generated/UCPROBE/probe_com.c **** #endif
1656:../Dave/Generated/UCPROBE/probe_com.c ****     CPU_ADDR    sym_addr;
1657:../Dave/Generated/UCPROBE/probe_com.c ****     CPU_SIZE_T  sym_size;
1658:../Dave/Generated/UCPROBE/probe_com.c ****     CPU_SIZE_T  tx_len;
1659:../Dave/Generated/UCPROBE/probe_com.c ****     CPU_SR_ALLOC();
1660:../Dave/Generated/UCPROBE/probe_com.c **** 
1661:../Dave/Generated/UCPROBE/probe_com.c **** 
1662:../Dave/Generated/UCPROBE/probe_com.c ****    (void)&tx_buf_size;                                          /* Prevent compiler warning.       
1663:../Dave/Generated/UCPROBE/probe_com.c **** 
1664:../Dave/Generated/UCPROBE/probe_com.c **** 
1665:../Dave/Generated/UCPROBE/probe_com.c ****                                                                 /* ------------------- CHK PKT SIZE
1666:../Dave/Generated/UCPROBE/probe_com.c ****                                                                 /* Expected size >= 2      (= Rx hd
1667:../Dave/Generated/UCPROBE/probe_com.c ****                                                                 /*                + 1      (= Nbr o
1668:../Dave/Generated/UCPROBE/probe_com.c ****                                                                 /*                + 4      (= Addr 
1669:../Dave/Generated/UCPROBE/probe_com.c ****                                                                 /*                + nbytes (= Data 
1670:../Dave/Generated/UCPROBE/probe_com.c ****     if (rx_pkt_size < 7) {
1671:../Dave/Generated/UCPROBE/probe_com.c ****         tx_len = ProbeCom_ReqErr(ptx_buf, PROBE_COM_STATUS_RX_PKT_WRONG_SIZE);
1672:../Dave/Generated/UCPROBE/probe_com.c ****         return (tx_len);
1673:../Dave/Generated/UCPROBE/probe_com.c ****     }
1674:../Dave/Generated/UCPROBE/probe_com.c **** 
1675:../Dave/Generated/UCPROBE/probe_com.c ****                                                                 /* -------------------- HANDLE WR -
1676:../Dave/Generated/UCPROBE/probe_com.c ****     rx_pkt_ix  = 7;                                             /* Rx pkt ix after 1st item = 2 (= 
1677:../Dave/Generated/UCPROBE/probe_com.c ****                                                                 /*                          + 5 (= 
1678:../Dave/Generated/UCPROBE/probe_com.c **** 
1679:../Dave/Generated/UCPROBE/probe_com.c **** #if (PROBE_COM_CFG_STAT_EN == DEF_ENABLED)
1680:../Dave/Generated/UCPROBE/probe_com.c ****     sym_ctr      = 0;
1681:../Dave/Generated/UCPROBE/probe_com.c ****     sym_byte_ctr = 0;
1682:../Dave/Generated/UCPROBE/probe_com.c **** #endif
1683:../Dave/Generated/UCPROBE/probe_com.c ****                                                                 /* Sto data for each item.         
1684:../Dave/Generated/UCPROBE/probe_com.c ****     while (rx_pkt_ix <= rx_pkt_size) {
1685:../Dave/Generated/UCPROBE/probe_com.c ****         sym_size = prx_buf[0];                                  /* (a) Get nbr of bytes to wr.     
1686:../Dave/Generated/UCPROBE/probe_com.c **** 
1687:../Dave/Generated/UCPROBE/probe_com.c ****                                                                 /* (b) Get wr addr.                
1688:../Dave/Generated/UCPROBE/probe_com.c **** #if ((!defined(CPU_CFG_ADDR_SIZE)) || \
1689:../Dave/Generated/UCPROBE/probe_com.c ****      ((defined(CPU_CFG_ADDR_SIZE)) && \
1690:../Dave/Generated/UCPROBE/probe_com.c ****               (CPU_CFG_ADDR_SIZE   != CPU_WORD_SIZE_16)))
1691:../Dave/Generated/UCPROBE/probe_com.c ****         sym_addr = ((CPU_ADDR)prx_buf[4] << 8) + prx_buf[3];
1692:../Dave/Generated/UCPROBE/probe_com.c ****         sym_addr = ((CPU_ADDR)sym_addr   << 8) + prx_buf[2];
1693:../Dave/Generated/UCPROBE/probe_com.c ****         sym_addr = ((CPU_ADDR)sym_addr   << 8) + prx_buf[1];
1694:../Dave/Generated/UCPROBE/probe_com.c **** #else
1695:../Dave/Generated/UCPROBE/probe_com.c ****         sym_addr = ((CPU_ADDR)prx_buf[2] << 8) + prx_buf[1];
1696:../Dave/Generated/UCPROBE/probe_com.c **** #endif
1697:../Dave/Generated/UCPROBE/probe_com.c **** 
1698:../Dave/Generated/UCPROBE/probe_com.c ****         prx_buf += 5u;
1699:../Dave/Generated/UCPROBE/probe_com.c **** 
1700:../Dave/Generated/UCPROBE/probe_com.c ****         if (rx_pkt_ix + sym_size > rx_pkt_size) {
1701:../Dave/Generated/UCPROBE/probe_com.c ****             tx_len = ProbeCom_ReqErr(ptx_buf, PROBE_COM_STATUS_RX_PKT_WRONG_SIZE);
1702:../Dave/Generated/UCPROBE/probe_com.c ****             return (tx_len);
1703:../Dave/Generated/UCPROBE/probe_com.c ****         }
1704:../Dave/Generated/UCPROBE/probe_com.c **** 
1705:../Dave/Generated/UCPROBE/probe_com.c **** #if (PROBE_COM_CFG_STAT_EN == DEF_ENABLED)
1706:../Dave/Generated/UCPROBE/probe_com.c ****         sym_ctr++;                                              /* (c) Inc local sym ctr.          
1707:../Dave/Generated/UCPROBE/probe_com.c ****         sym_byte_ctr += sym_size;
1708:../Dave/Generated/UCPROBE/probe_com.c **** #endif
1709:../Dave/Generated/UCPROBE/probe_com.c ****                                                                 /* (d) Sto data into pkt.          
1710:../Dave/Generated/UCPROBE/probe_com.c ****         CPU_CRITICAL_ENTER();
1711:../Dave/Generated/UCPROBE/probe_com.c ****         Mem_Copy((void     *)sym_addr,
1712:../Dave/Generated/UCPROBE/probe_com.c ****                  (void     *)prx_buf,
1713:../Dave/Generated/UCPROBE/probe_com.c ****                  (CPU_SIZE_T)sym_size);
1714:../Dave/Generated/UCPROBE/probe_com.c ****         CPU_CRITICAL_EXIT();
1715:../Dave/Generated/UCPROBE/probe_com.c **** 
1716:../Dave/Generated/UCPROBE/probe_com.c ****         prx_buf   += sym_size;
1717:../Dave/Generated/UCPROBE/probe_com.c ****         rx_pkt_ix += 5u + sym_size;
1718:../Dave/Generated/UCPROBE/probe_com.c ****     }
1719:../Dave/Generated/UCPROBE/probe_com.c **** 
1720:../Dave/Generated/UCPROBE/probe_com.c **** #if (PROBE_COM_CFG_STAT_EN == DEF_ENABLED)
1721:../Dave/Generated/UCPROBE/probe_com.c ****     ProbeCom_RxSymCtr     += sym_ctr;                           /* Inc global sym ctr.             
1722:../Dave/Generated/UCPROBE/probe_com.c ****     ProbeCom_RxSymByteCtr += sym_byte_ctr;
1723:../Dave/Generated/UCPROBE/probe_com.c **** #endif
1724:../Dave/Generated/UCPROBE/probe_com.c **** 
1725:../Dave/Generated/UCPROBE/probe_com.c ****                                                                 /* Sto tx pkt hdr :                
1726:../Dave/Generated/UCPROBE/probe_com.c ****     ProbeCom_StoINT16U(&ptx_buf, PROBE_COM_FMT_TX_WR_MULTI);    /* (a) tx pkt fmt.                 
1727:../Dave/Generated/UCPROBE/probe_com.c ****     ProbeCom_StoINT08U(&ptx_buf, PROBE_COM_STATUS_OK);          /* (b) Target status.              
1728:../Dave/Generated/UCPROBE/probe_com.c ****     ProbeCom_StoINT08U(&ptx_buf, ProbeCom_PktModifier());       /* (c) Modifier.                   
1729:../Dave/Generated/UCPROBE/probe_com.c **** 
1730:../Dave/Generated/UCPROBE/probe_com.c ****                                                                 /* ------------------ RTN TX PKT SI
1731:../Dave/Generated/UCPROBE/probe_com.c ****     tx_len = (CPU_SIZE_T)PROBE_COM_SIZE_TX_HDR;                 /* Tx pkt size = 4 (= Tx hdr size).
1732:../Dave/Generated/UCPROBE/probe_com.c ****     return (tx_len);
1733:../Dave/Generated/UCPROBE/probe_com.c **** }
1734:../Dave/Generated/UCPROBE/probe_com.c **** #endif
1735:../Dave/Generated/UCPROBE/probe_com.c **** 
1736:../Dave/Generated/UCPROBE/probe_com.c **** 
1737:../Dave/Generated/UCPROBE/probe_com.c **** /*
1738:../Dave/Generated/UCPROBE/probe_com.c **** ***************************************************************************************************
1739:../Dave/Generated/UCPROBE/probe_com.c **** *                                         ProbeCom_ReqStrIn()
1740:../Dave/Generated/UCPROBE/probe_com.c **** *
1741:../Dave/Generated/UCPROBE/probe_com.c **** * Description : Parse the FMT_STR_IN command & formulate response.  This command sends a string to 
1742:../Dave/Generated/UCPROBE/probe_com.c **** *               target.
1743:../Dave/Generated/UCPROBE/probe_com.c **** *
1744:../Dave/Generated/UCPROBE/probe_com.c **** * Argument(s) : prx_buf         Pointer to the receive  buffer
1745:../Dave/Generated/UCPROBE/probe_com.c **** *
1746:../Dave/Generated/UCPROBE/probe_com.c **** *               ptx_buf         Pointer to the transmit buffer
1747:../Dave/Generated/UCPROBE/probe_com.c **** *
1748:../Dave/Generated/UCPROBE/probe_com.c **** *               rx_pkt_size     Size of the receive  packet
1749:../Dave/Generated/UCPROBE/probe_com.c **** *
1750:../Dave/Generated/UCPROBE/probe_com.c **** *               tx_buf_size     Size of the transmit buffer
1751:../Dave/Generated/UCPROBE/probe_com.c **** *
1752:../Dave/Generated/UCPROBE/probe_com.c **** * Return(s)   : The number of bytes written to the tx buffer.
1753:../Dave/Generated/UCPROBE/probe_com.c **** *
1754:../Dave/Generated/UCPROBE/probe_com.c **** * Caller(s)   : ProbeCom_ParseRxPkt().
1755:../Dave/Generated/UCPROBE/probe_com.c **** *
1756:../Dave/Generated/UCPROBE/probe_com.c **** * Note(s)     : (1) The RX format:
1757:../Dave/Generated/UCPROBE/probe_com.c **** *
1758:../Dave/Generated/UCPROBE/probe_com.c **** *                   (A) A 2-byte format, indicating the data segment format;
1759:../Dave/Generated/UCPROBE/probe_com.c **** *                   (B) A 2-byte padding;
1760:../Dave/Generated/UCPROBE/probe_com.c **** *                   (C) A n-byte string.
1761:../Dave/Generated/UCPROBE/probe_com.c **** *
1762:../Dave/Generated/UCPROBE/probe_com.c **** *                         +-------------------------+-------------------------+
1763:../Dave/Generated/UCPROBE/probe_com.c **** *                         |          Format         |         Padding         |
1764:../Dave/Generated/UCPROBE/probe_com.c **** *                         +-------------------------+-------------------------+
1765:../Dave/Generated/UCPROBE/probe_com.c **** *                         |                       String                      |
1766:../Dave/Generated/UCPROBE/probe_com.c **** *                         |                         .                         |
1767:../Dave/Generated/UCPROBE/probe_com.c **** *                         |                         .                         |
1768:../Dave/Generated/UCPROBE/probe_com.c **** *                         |                         .                         |
1769:../Dave/Generated/UCPROBE/probe_com.c **** *                         +---------------------------------------------------+
1770:../Dave/Generated/UCPROBE/probe_com.c **** *
1771:../Dave/Generated/UCPROBE/probe_com.c **** *               (2) The TX format:
1772:../Dave/Generated/UCPROBE/probe_com.c **** *
1773:../Dave/Generated/UCPROBE/probe_com.c **** *                   (A) A 2-byte format, indicating the data segment format;
1774:../Dave/Generated/UCPROBE/probe_com.c **** *                   (B) A 1-byte status, indicating the status after the request;
1775:../Dave/Generated/UCPROBE/probe_com.c **** *                   (C) A 1-byte modifier.
1776:../Dave/Generated/UCPROBE/probe_com.c **** *
1777:../Dave/Generated/UCPROBE/probe_com.c **** *                         +-------------------------+------------+------------+
1778:../Dave/Generated/UCPROBE/probe_com.c **** *                         |          Format         |   Status   |  Modifier  |
1779:../Dave/Generated/UCPROBE/probe_com.c **** *                         +-------------------------+------------+------------+
1780:../Dave/Generated/UCPROBE/probe_com.c **** *
1781:../Dave/Generated/UCPROBE/probe_com.c **** ***************************************************************************************************
1782:../Dave/Generated/UCPROBE/probe_com.c **** */
1783:../Dave/Generated/UCPROBE/probe_com.c **** 
1784:../Dave/Generated/UCPROBE/probe_com.c **** #if (PROBE_COM_CFG_STR_REQ_EN == DEF_ENABLED)
1785:../Dave/Generated/UCPROBE/probe_com.c **** static  CPU_SIZE_T  ProbeCom_ReqStrIn (CPU_INT08U  *prx_buf,
1786:../Dave/Generated/UCPROBE/probe_com.c ****                                        CPU_INT08U  *ptx_buf,
1787:../Dave/Generated/UCPROBE/probe_com.c ****                                        CPU_SIZE_T   rx_pkt_size,
1788:../Dave/Generated/UCPROBE/probe_com.c ****                                        CPU_SIZE_T   tx_buf_size)
1789:../Dave/Generated/UCPROBE/probe_com.c **** {
1790:../Dave/Generated/UCPROBE/probe_com.c ****     CPU_SIZE_T   len;
1791:../Dave/Generated/UCPROBE/probe_com.c ****     CPU_SIZE_T   len_wr;
1792:../Dave/Generated/UCPROBE/probe_com.c ****     CPU_SIZE_T   tx_len;
1793:../Dave/Generated/UCPROBE/probe_com.c ****     CPU_INT08U  *pstr;
1794:../Dave/Generated/UCPROBE/probe_com.c **** 
1795:../Dave/Generated/UCPROBE/probe_com.c **** 
1796:../Dave/Generated/UCPROBE/probe_com.c ****    (void)&tx_buf_size;                                          /* Prevent compiler warning.       
1797:../Dave/Generated/UCPROBE/probe_com.c **** 
1798:../Dave/Generated/UCPROBE/probe_com.c **** 
1799:../Dave/Generated/UCPROBE/probe_com.c ****                                                                 /* ------------------- CHK PKT SIZE
1800:../Dave/Generated/UCPROBE/probe_com.c ****                                                                 /* Expected size = 2 (= Rx hdr size
1801:../Dave/Generated/UCPROBE/probe_com.c ****                                                                 /*               + 2 (= Padding    
1802:../Dave/Generated/UCPROBE/probe_com.c ****     if (rx_pkt_size <= 4u) {
1803:../Dave/Generated/UCPROBE/probe_com.c ****         tx_len = ProbeCom_ReqErr(ptx_buf, PROBE_COM_STATUS_RX_PKT_WRONG_SIZE);
1804:../Dave/Generated/UCPROBE/probe_com.c ****         return (tx_len);
1805:../Dave/Generated/UCPROBE/probe_com.c ****     }
1806:../Dave/Generated/UCPROBE/probe_com.c **** 
1807:../Dave/Generated/UCPROBE/probe_com.c **** 
1808:../Dave/Generated/UCPROBE/probe_com.c **** 
1809:../Dave/Generated/UCPROBE/probe_com.c ****                                                                 /* ------------------- HANDLE STR -
1810:../Dave/Generated/UCPROBE/probe_com.c ****     pstr   = prx_buf     + 2u;                                   /* Ignore padding.                
1811:../Dave/Generated/UCPROBE/probe_com.c ****     len    = rx_pkt_size - 4u;
1812:../Dave/Generated/UCPROBE/probe_com.c **** 
1813:../Dave/Generated/UCPROBE/probe_com.c ****     len_wr = ProbeCom_BufWr(&ProbeCom_StrInBuf,                 /* Rd str from buf.                
1814:../Dave/Generated/UCPROBE/probe_com.c ****                              pstr,
1815:../Dave/Generated/UCPROBE/probe_com.c ****                              len);
1816:../Dave/Generated/UCPROBE/probe_com.c **** 
1817:../Dave/Generated/UCPROBE/probe_com.c **** #if (PROBE_COM_CFG_STAT_EN == DEF_ENABLED)
1818:../Dave/Generated/UCPROBE/probe_com.c ****     if (len_wr < len) {
1819:../Dave/Generated/UCPROBE/probe_com.c ****         ProbeCom_StrRxOvfErrCtr++;
1820:../Dave/Generated/UCPROBE/probe_com.c ****     }
1821:../Dave/Generated/UCPROBE/probe_com.c **** 
1822:../Dave/Generated/UCPROBE/probe_com.c ****     ProbeCom_StrRxCtr += len_wr;
1823:../Dave/Generated/UCPROBE/probe_com.c **** #endif
1824:../Dave/Generated/UCPROBE/probe_com.c **** 
1825:../Dave/Generated/UCPROBE/probe_com.c **** 
1826:../Dave/Generated/UCPROBE/probe_com.c ****                                                                 /* ------------------ STORE RESPONS
1827:../Dave/Generated/UCPROBE/probe_com.c ****                                                                 /* Sto tx pkt hdr :                
1828:../Dave/Generated/UCPROBE/probe_com.c ****     ProbeCom_StoINT16U(&ptx_buf, PROBE_COM_FMT_TX_STR_IN);      /* (a) Tx pkt fmt.                 
1829:../Dave/Generated/UCPROBE/probe_com.c ****     ProbeCom_StoINT08U(&ptx_buf, PROBE_COM_STATUS_OK);          /* (b) Target status.              
1830:../Dave/Generated/UCPROBE/probe_com.c ****     ProbeCom_StoINT08U(&ptx_buf, ProbeCom_PktModifier());       /* (c) Modifier.                   
1831:../Dave/Generated/UCPROBE/probe_com.c **** 
1832:../Dave/Generated/UCPROBE/probe_com.c **** 
1833:../Dave/Generated/UCPROBE/probe_com.c **** 
1834:../Dave/Generated/UCPROBE/probe_com.c ****                                                                 /* ------------------ RTN TX PKT SI
1835:../Dave/Generated/UCPROBE/probe_com.c ****     tx_len = (CPU_SIZE_T)PROBE_COM_SIZE_TX_HDR;                 /* Tx pkt size = 4 (= Tx hdr size).
1836:../Dave/Generated/UCPROBE/probe_com.c ****     return (tx_len);
1837:../Dave/Generated/UCPROBE/probe_com.c **** }
1838:../Dave/Generated/UCPROBE/probe_com.c **** #endif
1839:../Dave/Generated/UCPROBE/probe_com.c **** 
1840:../Dave/Generated/UCPROBE/probe_com.c **** 
1841:../Dave/Generated/UCPROBE/probe_com.c **** /*
1842:../Dave/Generated/UCPROBE/probe_com.c **** ***************************************************************************************************
1843:../Dave/Generated/UCPROBE/probe_com.c **** *                                        ProbeCom_ReqStrOut()
1844:../Dave/Generated/UCPROBE/probe_com.c **** *
1845:../Dave/Generated/UCPROBE/probe_com.c **** * Description : Parse the FMT_STR_OUT command & formulate response.  This command asks the target t
1846:../Dave/Generated/UCPROBE/probe_com.c **** *               a string that it is currently storing.
1847:../Dave/Generated/UCPROBE/probe_com.c **** *
1848:../Dave/Generated/UCPROBE/probe_com.c **** * Argument(s) : prx_buf         Pointer to the receive  buffer
1849:../Dave/Generated/UCPROBE/probe_com.c **** *
1850:../Dave/Generated/UCPROBE/probe_com.c **** *               ptx_buf         Pointer to the transmit buffer
1851:../Dave/Generated/UCPROBE/probe_com.c **** *
1852:../Dave/Generated/UCPROBE/probe_com.c **** *               rx_pkt_size     Size of the receive  packet
1853:../Dave/Generated/UCPROBE/probe_com.c **** *
1854:../Dave/Generated/UCPROBE/probe_com.c **** *               tx_buf_size     Size of the transmit buffer
1855:../Dave/Generated/UCPROBE/probe_com.c **** *
1856:../Dave/Generated/UCPROBE/probe_com.c **** * Return(s)   : The number of bytes written to the tx buffer.
1857:../Dave/Generated/UCPROBE/probe_com.c **** *
1858:../Dave/Generated/UCPROBE/probe_com.c **** * Caller(s)   : ProbeCom_ParseRxPkt().
1859:../Dave/Generated/UCPROBE/probe_com.c **** *
1860:../Dave/Generated/UCPROBE/probe_com.c **** * Note(s)     : (1) The RX format:
1861:../Dave/Generated/UCPROBE/probe_com.c **** *
1862:../Dave/Generated/UCPROBE/probe_com.c **** *                   (A) A 2-byte format, indicating the data segment format;
1863:../Dave/Generated/UCPROBE/probe_com.c **** *                   (B) A 2-byte padding.
1864:../Dave/Generated/UCPROBE/probe_com.c **** *
1865:../Dave/Generated/UCPROBE/probe_com.c **** *                         +-------------------------+-------------------------+
1866:../Dave/Generated/UCPROBE/probe_com.c **** *                         |          Format         |         Padding         |
1867:../Dave/Generated/UCPROBE/probe_com.c **** *                         +-------------------------+-------------------------+
1868:../Dave/Generated/UCPROBE/probe_com.c **** *
1869:../Dave/Generated/UCPROBE/probe_com.c **** *               (2) The TX format:
1870:../Dave/Generated/UCPROBE/probe_com.c **** *
1871:../Dave/Generated/UCPROBE/probe_com.c **** *                   (A) A 2-byte format, indicating the data segment format;
1872:../Dave/Generated/UCPROBE/probe_com.c **** *                   (B) A 1-byte status, indicating the status after the request;
1873:../Dave/Generated/UCPROBE/probe_com.c **** *                   (C) A 1-byte modifier;
1874:../Dave/Generated/UCPROBE/probe_com.c **** *                   (D) A n-byte string, the string which is stored in the target's buffer.
1875:../Dave/Generated/UCPROBE/probe_com.c **** *
1876:../Dave/Generated/UCPROBE/probe_com.c **** *                         +-------------------------+------------+------------+
1877:../Dave/Generated/UCPROBE/probe_com.c **** *                         |          Format         |   Status   |  Modifier  |
1878:../Dave/Generated/UCPROBE/probe_com.c **** *                         +-------------------------+------------+------------+
1879:../Dave/Generated/UCPROBE/probe_com.c **** *                         |                       String                      |
1880:../Dave/Generated/UCPROBE/probe_com.c **** *                         |                         .                         |
1881:../Dave/Generated/UCPROBE/probe_com.c **** *                         |                         .                         |
1882:../Dave/Generated/UCPROBE/probe_com.c **** *                         |                         .                         |
1883:../Dave/Generated/UCPROBE/probe_com.c **** *                         +---------------------------------------------------+
1884:../Dave/Generated/UCPROBE/probe_com.c **** *
1885:../Dave/Generated/UCPROBE/probe_com.c **** *               (3) See Notes for 'ProbeCom_StrWr()'.
1886:../Dave/Generated/UCPROBE/probe_com.c **** *
1887:../Dave/Generated/UCPROBE/probe_com.c **** *               (4) Probe requires that a NULL byte ends the string.  Consequently, if the data
1888:../Dave/Generated/UCPROBE/probe_com.c **** *                   section of the TX packet is n bytes long, then only (n - 1) bytes have been rea
1889:../Dave/Generated/UCPROBE/probe_com.c **** *                   the string buffer.
1890:../Dave/Generated/UCPROBE/probe_com.c **** ***************************************************************************************************
1891:../Dave/Generated/UCPROBE/probe_com.c **** */
1892:../Dave/Generated/UCPROBE/probe_com.c **** 
1893:../Dave/Generated/UCPROBE/probe_com.c **** #if (PROBE_COM_CFG_STR_REQ_EN == DEF_TRUE)
1894:../Dave/Generated/UCPROBE/probe_com.c **** static  CPU_SIZE_T  ProbeCom_ReqStrOut (CPU_INT08U  *prx_buf,
1895:../Dave/Generated/UCPROBE/probe_com.c ****                                         CPU_INT08U  *ptx_buf,
1896:../Dave/Generated/UCPROBE/probe_com.c ****                                         CPU_SIZE_T   rx_pkt_size,
1897:../Dave/Generated/UCPROBE/probe_com.c ****                                         CPU_SIZE_T   tx_buf_size)
1898:../Dave/Generated/UCPROBE/probe_com.c **** {
1899:../Dave/Generated/UCPROBE/probe_com.c ****     CPU_SIZE_T  len_rd;
1900:../Dave/Generated/UCPROBE/probe_com.c ****     CPU_SIZE_T  tx_len;
1901:../Dave/Generated/UCPROBE/probe_com.c ****     CPU_SIZE_T  tx_max;
1902:../Dave/Generated/UCPROBE/probe_com.c **** 
1903:../Dave/Generated/UCPROBE/probe_com.c **** 
1904:../Dave/Generated/UCPROBE/probe_com.c ****    (void)&prx_buf;                                              /* Prevent compiler warning.       
1905:../Dave/Generated/UCPROBE/probe_com.c **** 
1906:../Dave/Generated/UCPROBE/probe_com.c **** 
1907:../Dave/Generated/UCPROBE/probe_com.c ****                                                                 /* ------------------- CHK PKT SIZE
1908:../Dave/Generated/UCPROBE/probe_com.c ****                                                                 /* Expected size = 2 (= Rx hdr size
1909:../Dave/Generated/UCPROBE/probe_com.c ****                                                                 /*               + 2 (= Padding    
1910:../Dave/Generated/UCPROBE/probe_com.c ****     if (rx_pkt_size != 4u) {
1911:../Dave/Generated/UCPROBE/probe_com.c ****         tx_len = ProbeCom_ReqErr(ptx_buf, PROBE_COM_STATUS_RX_PKT_WRONG_SIZE);
1912:../Dave/Generated/UCPROBE/probe_com.c ****         return (tx_len);
1913:../Dave/Generated/UCPROBE/probe_com.c ****     }
1914:../Dave/Generated/UCPROBE/probe_com.c **** 
1915:../Dave/Generated/UCPROBE/probe_com.c ****                                                                 /* --------------------- STORE STR 
1916:../Dave/Generated/UCPROBE/probe_com.c ****                                                                 /* Sto TX pkt hdr :                
1917:../Dave/Generated/UCPROBE/probe_com.c ****     ProbeCom_StoINT16U(&ptx_buf, PROBE_COM_FMT_TX_STR_OUT);     /* (a) TX pkt fmt.                 
1918:../Dave/Generated/UCPROBE/probe_com.c ****     ProbeCom_StoINT08U(&ptx_buf, PROBE_COM_STATUS_OK);          /* (b) Target status.              
1919:../Dave/Generated/UCPROBE/probe_com.c ****     ProbeCom_StoINT08U(&ptx_buf, ProbeCom_PktModifier());       /* (c) Modifier.                   
1920:../Dave/Generated/UCPROBE/probe_com.c **** 
1921:../Dave/Generated/UCPROBE/probe_com.c ****     tx_max = (tx_buf_size - PROBE_COM_SIZE_TX_HDR) - 1;         /* Calc size of largest tx str.    
1922:../Dave/Generated/UCPROBE/probe_com.c **** 
1923:../Dave/Generated/UCPROBE/probe_com.c ****     len_rd = ProbeCom_BufRd(&ProbeCom_StrOutBuf,                /* Rd str from buf.                
1924:../Dave/Generated/UCPROBE/probe_com.c ****                              ptx_buf,
1925:../Dave/Generated/UCPROBE/probe_com.c ****                              tx_max);
1926:../Dave/Generated/UCPROBE/probe_com.c **** 
1927:../Dave/Generated/UCPROBE/probe_com.c ****     if (len_rd == 0u) {                                         /* If there is NO str ... rtn err. 
1928:../Dave/Generated/UCPROBE/probe_com.c ****         tx_len = ProbeCom_ReqErr(ptx_buf, PROBE_COM_STATUS_STR_OUT_NONE);
1929:../Dave/Generated/UCPROBE/probe_com.c ****         return (tx_len);
1930:../Dave/Generated/UCPROBE/probe_com.c ****     }
1931:../Dave/Generated/UCPROBE/probe_com.c **** 
1932:../Dave/Generated/UCPROBE/probe_com.c ****    *(ptx_buf + len_rd) = (CPU_INT08U)0;                         /* Wr NULL byte.                   
1933:../Dave/Generated/UCPROBE/probe_com.c **** 
1934:../Dave/Generated/UCPROBE/probe_com.c **** #if (PROBE_COM_CFG_STAT_EN == DEF_ENABLED)
1935:../Dave/Generated/UCPROBE/probe_com.c ****     ProbeCom_StrTxCtr += len_rd;
1936:../Dave/Generated/UCPROBE/probe_com.c **** #endif
1937:../Dave/Generated/UCPROBE/probe_com.c **** 
1938:../Dave/Generated/UCPROBE/probe_com.c **** 
1939:../Dave/Generated/UCPROBE/probe_com.c ****                                                                 /* ------------------ RTN TX PKT SI
1940:../Dave/Generated/UCPROBE/probe_com.c ****     tx_len = PROBE_COM_SIZE_TX_HDR + len_rd + 1u;
1941:../Dave/Generated/UCPROBE/probe_com.c ****     return (tx_len);                                            /* Tx pkt size = 4      (= Tx hdr s
1942:../Dave/Generated/UCPROBE/probe_com.c ****                                                                 /*             + nbytes (= Str    s
1943:../Dave/Generated/UCPROBE/probe_com.c ****                                                                 /*             + 1      (= NULL byt
1944:../Dave/Generated/UCPROBE/probe_com.c **** }
1945:../Dave/Generated/UCPROBE/probe_com.c **** #endif
1946:../Dave/Generated/UCPROBE/probe_com.c **** 
1947:../Dave/Generated/UCPROBE/probe_com.c **** 
1948:../Dave/Generated/UCPROBE/probe_com.c **** /*
1949:../Dave/Generated/UCPROBE/probe_com.c **** ***************************************************************************************************
1950:../Dave/Generated/UCPROBE/probe_com.c **** *                                     ProbeCom_ReqTerminalExec()
1951:../Dave/Generated/UCPROBE/probe_com.c **** *
1952:../Dave/Generated/UCPROBE/probe_com.c **** * Description : Parse the FMT_TERMINAL_EXEC command & formulate response.  This command sends a ter
1953:../Dave/Generated/UCPROBE/probe_com.c **** *               command to the target for execution.
1954:../Dave/Generated/UCPROBE/probe_com.c **** *
1955:../Dave/Generated/UCPROBE/probe_com.c **** * Argument(s) : prx_buf         Pointer to the receive  buffer
1956:../Dave/Generated/UCPROBE/probe_com.c **** *
1957:../Dave/Generated/UCPROBE/probe_com.c **** *               ptx_buf         Pointer to the transmit buffer
1958:../Dave/Generated/UCPROBE/probe_com.c **** *
1959:../Dave/Generated/UCPROBE/probe_com.c **** *               rx_pkt_size     Size of the receive  packet
1960:../Dave/Generated/UCPROBE/probe_com.c **** *
1961:../Dave/Generated/UCPROBE/probe_com.c **** *               tx_buf_size     Size of the transmit buffer
1962:../Dave/Generated/UCPROBE/probe_com.c **** *
1963:../Dave/Generated/UCPROBE/probe_com.c **** * Return(s)   : The number of bytes written to the tx buffer.
1964:../Dave/Generated/UCPROBE/probe_com.c **** *
1965:../Dave/Generated/UCPROBE/probe_com.c **** * Caller(s)   : ProbeCom_ParseRxPkt().
1966:../Dave/Generated/UCPROBE/probe_com.c **** *
1967:../Dave/Generated/UCPROBE/probe_com.c **** * Note(s)     : (1) The RX format:
1968:../Dave/Generated/UCPROBE/probe_com.c **** *
1969:../Dave/Generated/UCPROBE/probe_com.c **** *                   (A) A 2-byte format, indicating the data segment format;
1970:../Dave/Generated/UCPROBE/probe_com.c **** *                   (B) A 2-byte padding;
1971:../Dave/Generated/UCPROBE/probe_com.c **** *                   (C) A n-byte string.
1972:../Dave/Generated/UCPROBE/probe_com.c **** *
1973:../Dave/Generated/UCPROBE/probe_com.c **** *                         +-------------------------+-------------------------+
1974:../Dave/Generated/UCPROBE/probe_com.c **** *                         |          Format         |         Padding         |
1975:../Dave/Generated/UCPROBE/probe_com.c **** *                         +-------------------------+-------------------------+
1976:../Dave/Generated/UCPROBE/probe_com.c **** *                         |                  Terminal Command                 |
1977:../Dave/Generated/UCPROBE/probe_com.c **** *                         |                         .                         |
1978:../Dave/Generated/UCPROBE/probe_com.c **** *                         |                         .                         |
1979:../Dave/Generated/UCPROBE/probe_com.c **** *                         |                         .                         |
1980:../Dave/Generated/UCPROBE/probe_com.c **** *                         +---------------------------------------------------+
1981:../Dave/Generated/UCPROBE/probe_com.c **** *
1982:../Dave/Generated/UCPROBE/probe_com.c **** *               (2) The TX format:
1983:../Dave/Generated/UCPROBE/probe_com.c **** *
1984:../Dave/Generated/UCPROBE/probe_com.c **** *                   (A) A 2-byte format, indicating the data segment format;
1985:../Dave/Generated/UCPROBE/probe_com.c **** *                   (B) A 1-byte status, indicating the status after the request;
1986:../Dave/Generated/UCPROBE/probe_com.c **** *                   (C) A 1-byte modifier.
1987:../Dave/Generated/UCPROBE/probe_com.c **** *
1988:../Dave/Generated/UCPROBE/probe_com.c **** *                         +-------------------------+------------+------------+
1989:../Dave/Generated/UCPROBE/probe_com.c **** *                         |          Format         |   Status   |  Modifier  |
1990:../Dave/Generated/UCPROBE/probe_com.c **** *                         +-------------------------+------------+------------+
1991:../Dave/Generated/UCPROBE/probe_com.c **** *
1992:../Dave/Generated/UCPROBE/probe_com.c **** ***************************************************************************************************
1993:../Dave/Generated/UCPROBE/probe_com.c **** */
1994:../Dave/Generated/UCPROBE/probe_com.c **** 
1995:../Dave/Generated/UCPROBE/probe_com.c **** #if (PROBE_COM_CFG_TERMINAL_REQ_EN == DEF_ENABLED)
1996:../Dave/Generated/UCPROBE/probe_com.c **** static  CPU_SIZE_T  ProbeCom_ReqTerminalExec (CPU_INT08U  *prx_buf,
1997:../Dave/Generated/UCPROBE/probe_com.c ****                                               CPU_INT08U  *ptx_buf,
1998:../Dave/Generated/UCPROBE/probe_com.c ****                                               CPU_SIZE_T   rx_pkt_size,
1999:../Dave/Generated/UCPROBE/probe_com.c ****                                               CPU_SIZE_T   tx_buf_size)
2000:../Dave/Generated/UCPROBE/probe_com.c **** {
2001:../Dave/Generated/UCPROBE/probe_com.c ****     PROBE_COM_TERMINAL_EXEC_FNCT   handler;
2002:../Dave/Generated/UCPROBE/probe_com.c ****     CPU_SIZE_T                     len;
2003:../Dave/Generated/UCPROBE/probe_com.c ****     CPU_SIZE_T                     tx_len;
2004:../Dave/Generated/UCPROBE/probe_com.c ****     CPU_INT08U                    *pstr;
2005:../Dave/Generated/UCPROBE/probe_com.c ****     CPU_SR_ALLOC();
2006:../Dave/Generated/UCPROBE/probe_com.c **** 
2007:../Dave/Generated/UCPROBE/probe_com.c **** 
2008:../Dave/Generated/UCPROBE/probe_com.c ****    (void)&tx_buf_size;                                          /* Prevent compiler warning.       
2009:../Dave/Generated/UCPROBE/probe_com.c **** 
2010:../Dave/Generated/UCPROBE/probe_com.c **** 
2011:../Dave/Generated/UCPROBE/probe_com.c ****                                                                 /* ------------------- CHK PKT SIZE
2012:../Dave/Generated/UCPROBE/probe_com.c ****                                                                 /* Expected size = 2 (= Rx hdr size
2013:../Dave/Generated/UCPROBE/probe_com.c ****                                                                 /*               + 2 (= Padding    
2014:../Dave/Generated/UCPROBE/probe_com.c ****     if (rx_pkt_size <= 4u) {
2015:../Dave/Generated/UCPROBE/probe_com.c ****         tx_len = ProbeCom_ReqErr(ptx_buf, PROBE_COM_STATUS_RX_PKT_WRONG_SIZE);
2016:../Dave/Generated/UCPROBE/probe_com.c ****         return (tx_len);
2017:../Dave/Generated/UCPROBE/probe_com.c ****     }
2018:../Dave/Generated/UCPROBE/probe_com.c **** 
2019:../Dave/Generated/UCPROBE/probe_com.c **** 
2020:../Dave/Generated/UCPROBE/probe_com.c **** 
2021:../Dave/Generated/UCPROBE/probe_com.c ****                                                                 /* -------------------- HANDLE STR 
2022:../Dave/Generated/UCPROBE/probe_com.c ****     CPU_CRITICAL_ENTER();
2023:../Dave/Generated/UCPROBE/probe_com.c ****     handler = ProbeCom_TerminalExecHandler;
2024:../Dave/Generated/UCPROBE/probe_com.c ****     CPU_CRITICAL_EXIT();
2025:../Dave/Generated/UCPROBE/probe_com.c **** 
2026:../Dave/Generated/UCPROBE/probe_com.c ****     if (handler != (PROBE_COM_TERMINAL_EXEC_FNCT)0) {           /* If handler assigned ...         
2027:../Dave/Generated/UCPROBE/probe_com.c ****         pstr = prx_buf     + 2u;                                /* ... ignore padding  ...         
2028:../Dave/Generated/UCPROBE/probe_com.c ****         len  = rx_pkt_size - 2u;
2029:../Dave/Generated/UCPROBE/probe_com.c **** 
2030:../Dave/Generated/UCPROBE/probe_com.c ****         ProbeCom_TerminalExecuting = DEF_YES;
2031:../Dave/Generated/UCPROBE/probe_com.c **** 
2032:../Dave/Generated/UCPROBE/probe_com.c ****         handler((CPU_CHAR *)pstr,                               /* ... exec handler.               
2033:../Dave/Generated/UCPROBE/probe_com.c ****                 (CPU_SIZE_T)len);
2034:../Dave/Generated/UCPROBE/probe_com.c ****     }
2035:../Dave/Generated/UCPROBE/probe_com.c **** 
2036:../Dave/Generated/UCPROBE/probe_com.c **** 
2037:../Dave/Generated/UCPROBE/probe_com.c **** 
2038:../Dave/Generated/UCPROBE/probe_com.c ****                                                                 /* ------------------ STORE RESPONS
2039:../Dave/Generated/UCPROBE/probe_com.c ****                                                                 /* Sto tx pkt hdr :                
2040:../Dave/Generated/UCPROBE/probe_com.c ****                                                                 /* (a) Tx pkt fmt.                 
2041:../Dave/Generated/UCPROBE/probe_com.c ****     ProbeCom_StoINT16U(&ptx_buf, PROBE_COM_FMT_TX_TERMINAL_EXEC);
2042:../Dave/Generated/UCPROBE/probe_com.c ****     ProbeCom_StoINT08U(&ptx_buf, PROBE_COM_STATUS_OK);          /* (b) Target status.              
2043:../Dave/Generated/UCPROBE/probe_com.c ****     ProbeCom_StoINT08U(&ptx_buf, ProbeCom_PktModifier());       /* (c) Modifier.                   
2044:../Dave/Generated/UCPROBE/probe_com.c **** 
2045:../Dave/Generated/UCPROBE/probe_com.c **** 
2046:../Dave/Generated/UCPROBE/probe_com.c **** 
2047:../Dave/Generated/UCPROBE/probe_com.c ****                                                                 /* ------------------ RTN TX PKT SI
2048:../Dave/Generated/UCPROBE/probe_com.c ****     tx_len = (CPU_SIZE_T)PROBE_COM_SIZE_TX_HDR;                 /* Tx pkt size = 4 (= Tx hdr size).
2049:../Dave/Generated/UCPROBE/probe_com.c ****     return (tx_len);
2050:../Dave/Generated/UCPROBE/probe_com.c **** }
2051:../Dave/Generated/UCPROBE/probe_com.c **** #endif
2052:../Dave/Generated/UCPROBE/probe_com.c **** 
2053:../Dave/Generated/UCPROBE/probe_com.c **** 
2054:../Dave/Generated/UCPROBE/probe_com.c **** /*
2055:../Dave/Generated/UCPROBE/probe_com.c **** ***************************************************************************************************
2056:../Dave/Generated/UCPROBE/probe_com.c **** *                                      ProbeCom_ReqTerminalIn()
2057:../Dave/Generated/UCPROBE/probe_com.c **** *
2058:../Dave/Generated/UCPROBE/probe_com.c **** * Description : Parse the FMT_TERMINAL_IN command & formulate response.  This command sends a termi
2059:../Dave/Generated/UCPROBE/probe_com.c **** *               input to the target.
2060:../Dave/Generated/UCPROBE/probe_com.c **** *
2061:../Dave/Generated/UCPROBE/probe_com.c **** * Argument(s) : prx_buf         Pointer to the receive  buffer
2062:../Dave/Generated/UCPROBE/probe_com.c **** *
2063:../Dave/Generated/UCPROBE/probe_com.c **** *               ptx_buf         Pointer to the transmit buffer
2064:../Dave/Generated/UCPROBE/probe_com.c **** *
2065:../Dave/Generated/UCPROBE/probe_com.c **** *               rx_pkt_size     Size of the receive  packet
2066:../Dave/Generated/UCPROBE/probe_com.c **** *
2067:../Dave/Generated/UCPROBE/probe_com.c **** *               tx_buf_size     Size of the transmit buffer
2068:../Dave/Generated/UCPROBE/probe_com.c **** *
2069:../Dave/Generated/UCPROBE/probe_com.c **** * Return(s)   : The number of bytes written to the tx buffer.
2070:../Dave/Generated/UCPROBE/probe_com.c **** *
2071:../Dave/Generated/UCPROBE/probe_com.c **** * Caller(s)   : ProbeCom_ParseRxPkt().
2072:../Dave/Generated/UCPROBE/probe_com.c **** *
2073:../Dave/Generated/UCPROBE/probe_com.c **** * Note(s)     : (1) The RX format:
2074:../Dave/Generated/UCPROBE/probe_com.c **** *
2075:../Dave/Generated/UCPROBE/probe_com.c **** *                   (A) A 2-byte format, indicating the data segment format;
2076:../Dave/Generated/UCPROBE/probe_com.c **** *                   (B) A 2-byte padding;
2077:../Dave/Generated/UCPROBE/probe_com.c **** *                   (C) A n-byte string.
2078:../Dave/Generated/UCPROBE/probe_com.c **** *
2079:../Dave/Generated/UCPROBE/probe_com.c **** *                         +-------------------------+-------------------------+
2080:../Dave/Generated/UCPROBE/probe_com.c **** *                         |          Format         |         Padding         |
2081:../Dave/Generated/UCPROBE/probe_com.c **** *                         +-------------------------+-------------------------+
2082:../Dave/Generated/UCPROBE/probe_com.c **** *                         |                   Terminal Input                  |
2083:../Dave/Generated/UCPROBE/probe_com.c **** *                         |                         .                         |
2084:../Dave/Generated/UCPROBE/probe_com.c **** *                         |                         .                         |
2085:../Dave/Generated/UCPROBE/probe_com.c **** *                         |                         .                         |
2086:../Dave/Generated/UCPROBE/probe_com.c **** *                         +---------------------------------------------------+
2087:../Dave/Generated/UCPROBE/probe_com.c **** *
2088:../Dave/Generated/UCPROBE/probe_com.c **** *               (2) The TX format:
2089:../Dave/Generated/UCPROBE/probe_com.c **** *
2090:../Dave/Generated/UCPROBE/probe_com.c **** *                   (A) A 2-byte format, indicating the data segment format;
2091:../Dave/Generated/UCPROBE/probe_com.c **** *                   (B) A 1-byte status, indicating the status after the request;
2092:../Dave/Generated/UCPROBE/probe_com.c **** *                   (C) A 1-byte modifier.
2093:../Dave/Generated/UCPROBE/probe_com.c **** *
2094:../Dave/Generated/UCPROBE/probe_com.c **** *                         +-------------------------+------------+------------+
2095:../Dave/Generated/UCPROBE/probe_com.c **** *                         |          Format         |   Status   |  Modifier  |
2096:../Dave/Generated/UCPROBE/probe_com.c **** *                         +-------------------------+------------+------------+
2097:../Dave/Generated/UCPROBE/probe_com.c **** *
2098:../Dave/Generated/UCPROBE/probe_com.c **** ***************************************************************************************************
2099:../Dave/Generated/UCPROBE/probe_com.c **** */
2100:../Dave/Generated/UCPROBE/probe_com.c **** 
2101:../Dave/Generated/UCPROBE/probe_com.c **** #if (PROBE_COM_CFG_TERMINAL_REQ_EN == DEF_ENABLED)
2102:../Dave/Generated/UCPROBE/probe_com.c **** static  CPU_SIZE_T  ProbeCom_ReqTerminalIn (CPU_INT08U  *prx_buf,
2103:../Dave/Generated/UCPROBE/probe_com.c ****                                             CPU_INT08U  *ptx_buf,
2104:../Dave/Generated/UCPROBE/probe_com.c ****                                             CPU_SIZE_T   rx_pkt_size,
2105:../Dave/Generated/UCPROBE/probe_com.c ****                                             CPU_SIZE_T   tx_buf_size)
2106:../Dave/Generated/UCPROBE/probe_com.c **** {
2107:../Dave/Generated/UCPROBE/probe_com.c ****     PROBE_COM_TERMINAL_IN_FNCT   handler;
2108:../Dave/Generated/UCPROBE/probe_com.c ****     CPU_SIZE_T                   len;
2109:../Dave/Generated/UCPROBE/probe_com.c ****     CPU_SIZE_T                   tx_len;
2110:../Dave/Generated/UCPROBE/probe_com.c ****     CPU_INT08U                  *pstr;
2111:../Dave/Generated/UCPROBE/probe_com.c ****     CPU_SR_ALLOC();
2112:../Dave/Generated/UCPROBE/probe_com.c **** 
2113:../Dave/Generated/UCPROBE/probe_com.c **** 
2114:../Dave/Generated/UCPROBE/probe_com.c ****    (void)&tx_buf_size;                                          /* Prevent compiler warning.       
2115:../Dave/Generated/UCPROBE/probe_com.c **** 
2116:../Dave/Generated/UCPROBE/probe_com.c **** 
2117:../Dave/Generated/UCPROBE/probe_com.c ****                                                                 /* ------------------- CHK PKT SIZE
2118:../Dave/Generated/UCPROBE/probe_com.c ****                                                                 /* Expected size = 2 (= Rx hdr size
2119:../Dave/Generated/UCPROBE/probe_com.c ****                                                                 /*               + 2 (= Padding    
2120:../Dave/Generated/UCPROBE/probe_com.c ****     if (rx_pkt_size <= 4u) {
2121:../Dave/Generated/UCPROBE/probe_com.c ****         tx_len = ProbeCom_ReqErr(ptx_buf, PROBE_COM_STATUS_RX_PKT_WRONG_SIZE);
2122:../Dave/Generated/UCPROBE/probe_com.c ****         return (tx_len);
2123:../Dave/Generated/UCPROBE/probe_com.c ****     }
2124:../Dave/Generated/UCPROBE/probe_com.c **** 
2125:../Dave/Generated/UCPROBE/probe_com.c **** 
2126:../Dave/Generated/UCPROBE/probe_com.c **** 
2127:../Dave/Generated/UCPROBE/probe_com.c ****                                                                 /* -------------------- HANDLE STR 
2128:../Dave/Generated/UCPROBE/probe_com.c ****     CPU_CRITICAL_ENTER();
2129:../Dave/Generated/UCPROBE/probe_com.c ****     handler = ProbeCom_TerminalInHandler;
2130:../Dave/Generated/UCPROBE/probe_com.c ****     CPU_CRITICAL_EXIT();
2131:../Dave/Generated/UCPROBE/probe_com.c **** 
2132:../Dave/Generated/UCPROBE/probe_com.c ****     if (handler != (PROBE_COM_TERMINAL_IN_FNCT)0) {             /* If handler assigned.            
2133:../Dave/Generated/UCPROBE/probe_com.c ****         pstr = prx_buf     + 4u;
2134:../Dave/Generated/UCPROBE/probe_com.c ****         len  = rx_pkt_size - 4u;
2135:../Dave/Generated/UCPROBE/probe_com.c **** 
2136:../Dave/Generated/UCPROBE/probe_com.c ****         handler((CPU_CHAR *)pstr,
2137:../Dave/Generated/UCPROBE/probe_com.c ****                 (CPU_SIZE_T)len);
2138:../Dave/Generated/UCPROBE/probe_com.c ****     }
2139:../Dave/Generated/UCPROBE/probe_com.c **** 
2140:../Dave/Generated/UCPROBE/probe_com.c **** 
2141:../Dave/Generated/UCPROBE/probe_com.c **** 
2142:../Dave/Generated/UCPROBE/probe_com.c ****                                                                 /* ------------------ STORE RESPONS
2143:../Dave/Generated/UCPROBE/probe_com.c ****                                                                 /* Sto tx pkt hdr :                
2144:../Dave/Generated/UCPROBE/probe_com.c ****     ProbeCom_StoINT16U(&ptx_buf, PROBE_COM_FMT_TX_TERMINAL_IN); /* (a) Tx pkt fmt.                 
2145:../Dave/Generated/UCPROBE/probe_com.c ****     ProbeCom_StoINT08U(&ptx_buf, PROBE_COM_STATUS_OK);          /* (b) Target status.              
2146:../Dave/Generated/UCPROBE/probe_com.c ****     ProbeCom_StoINT08U(&ptx_buf, ProbeCom_PktModifier());       /* (c) Modifier.                   
2147:../Dave/Generated/UCPROBE/probe_com.c **** 
2148:../Dave/Generated/UCPROBE/probe_com.c **** 
2149:../Dave/Generated/UCPROBE/probe_com.c **** 
2150:../Dave/Generated/UCPROBE/probe_com.c ****                                                                 /* ------------------ RTN TX PKT SI
2151:../Dave/Generated/UCPROBE/probe_com.c ****     tx_len = (CPU_SIZE_T)PROBE_COM_SIZE_TX_HDR;                 /* Tx pkt size = 4 (= Tx hdr size).
2152:../Dave/Generated/UCPROBE/probe_com.c ****     return (tx_len);
2153:../Dave/Generated/UCPROBE/probe_com.c **** }
2154:../Dave/Generated/UCPROBE/probe_com.c **** #endif
2155:../Dave/Generated/UCPROBE/probe_com.c **** 
2156:../Dave/Generated/UCPROBE/probe_com.c **** 
2157:../Dave/Generated/UCPROBE/probe_com.c **** /*
2158:../Dave/Generated/UCPROBE/probe_com.c **** ***************************************************************************************************
2159:../Dave/Generated/UCPROBE/probe_com.c **** *                                      ProbeCom_ReqTerminalOut()
2160:../Dave/Generated/UCPROBE/probe_com.c **** *
2161:../Dave/Generated/UCPROBE/probe_com.c **** * Description : Parse the FMT_TERMINAL_OUT command & formulate response.  This command asks the tar
2162:../Dave/Generated/UCPROBE/probe_com.c **** *               send terminal output that it is currently storing.
2163:../Dave/Generated/UCPROBE/probe_com.c **** *
2164:../Dave/Generated/UCPROBE/probe_com.c **** * Argument(s) : prx_buf         Pointer to the receive  buffer
2165:../Dave/Generated/UCPROBE/probe_com.c **** *
2166:../Dave/Generated/UCPROBE/probe_com.c **** *               ptx_buf         Pointer to the transmit buffer
2167:../Dave/Generated/UCPROBE/probe_com.c **** *
2168:../Dave/Generated/UCPROBE/probe_com.c **** *               rx_pkt_size     Size of the receive  packet
2169:../Dave/Generated/UCPROBE/probe_com.c **** *
2170:../Dave/Generated/UCPROBE/probe_com.c **** *               tx_buf_size     Size of the transmit buffer
2171:../Dave/Generated/UCPROBE/probe_com.c **** *
2172:../Dave/Generated/UCPROBE/probe_com.c **** * Return(s)   : The number of bytes written to the tx buffer.
2173:../Dave/Generated/UCPROBE/probe_com.c **** *
2174:../Dave/Generated/UCPROBE/probe_com.c **** * Caller(s)   : ProbeCom_ParseRxPkt().
2175:../Dave/Generated/UCPROBE/probe_com.c **** *
2176:../Dave/Generated/UCPROBE/probe_com.c **** * Note(s)     : (1) The RX format:
2177:../Dave/Generated/UCPROBE/probe_com.c **** *
2178:../Dave/Generated/UCPROBE/probe_com.c **** *                   (A) A 2-byte format, indicating the data segment format;
2179:../Dave/Generated/UCPROBE/probe_com.c **** *                   (B) A 2-byte padding.
2180:../Dave/Generated/UCPROBE/probe_com.c **** *
2181:../Dave/Generated/UCPROBE/probe_com.c **** *                         +-------------------------+-------------------------+
2182:../Dave/Generated/UCPROBE/probe_com.c **** *                         |          Format         |         Padding         |
2183:../Dave/Generated/UCPROBE/probe_com.c **** *                         +-------------------------+-------------------------+
2184:../Dave/Generated/UCPROBE/probe_com.c **** *
2185:../Dave/Generated/UCPROBE/probe_com.c **** *               (2) The TX format:
2186:../Dave/Generated/UCPROBE/probe_com.c **** *
2187:../Dave/Generated/UCPROBE/probe_com.c **** *                   (A) A 2-byte format, indicating the data segment format;
2188:../Dave/Generated/UCPROBE/probe_com.c **** *                   (B) A 1-byte status, indicating the status after the request;
2189:../Dave/Generated/UCPROBE/probe_com.c **** *                   (C) A 1-byte modifier;
2190:../Dave/Generated/UCPROBE/probe_com.c **** *                   (D) A n-byte string, the string which is stored in the target's buffer.
2191:../Dave/Generated/UCPROBE/probe_com.c **** *
2192:../Dave/Generated/UCPROBE/probe_com.c **** *                         +-------------------------+------------+------------+
2193:../Dave/Generated/UCPROBE/probe_com.c **** *                         |          Format         |   Status   |  Modifier  |
2194:../Dave/Generated/UCPROBE/probe_com.c **** *                         +-------------------------+------------+------------+
2195:../Dave/Generated/UCPROBE/probe_com.c **** *                         |                  Terminal Output                  |
2196:../Dave/Generated/UCPROBE/probe_com.c **** *                         |                         .                         |
2197:../Dave/Generated/UCPROBE/probe_com.c **** *                         |                         .                         |
2198:../Dave/Generated/UCPROBE/probe_com.c **** *                         |                         .                         |
2199:../Dave/Generated/UCPROBE/probe_com.c **** *                         +---------------------------------------------------+
2200:../Dave/Generated/UCPROBE/probe_com.c **** *
2201:../Dave/Generated/UCPROBE/probe_com.c **** *               (3) See Notes for 'ProbeCom_StrWr()'.
2202:../Dave/Generated/UCPROBE/probe_com.c **** *
2203:../Dave/Generated/UCPROBE/probe_com.c **** *               (4) Probe requires that a NULL byte ends the string.  Consequently, if the data
2204:../Dave/Generated/UCPROBE/probe_com.c **** *                   section of the TX packet is n bytes long, then only (n - 1) bytes have been rea
2205:../Dave/Generated/UCPROBE/probe_com.c **** *                   the string buffer.
2206:../Dave/Generated/UCPROBE/probe_com.c **** *
2207:../Dave/Generated/UCPROBE/probe_com.c **** *               (5) A NULL modifier is returned so that string transmission will not monopolize the
2208:../Dave/Generated/UCPROBE/probe_com.c **** *                   transmission channel.  If more string is queued in the string buffer, additiona
2209:../Dave/Generated/UCPROBE/probe_com.c **** *                   string bytes will be sent following the response to the next received packet.
2210:../Dave/Generated/UCPROBE/probe_com.c **** ***************************************************************************************************
2211:../Dave/Generated/UCPROBE/probe_com.c **** */
2212:../Dave/Generated/UCPROBE/probe_com.c **** 
2213:../Dave/Generated/UCPROBE/probe_com.c **** #if (PROBE_COM_CFG_TERMINAL_REQ_EN == DEF_TRUE)
2214:../Dave/Generated/UCPROBE/probe_com.c **** static  CPU_SIZE_T  ProbeCom_ReqTerminalOut (CPU_INT08U  *prx_buf,
2215:../Dave/Generated/UCPROBE/probe_com.c ****                                              CPU_INT08U  *ptx_buf,
2216:../Dave/Generated/UCPROBE/probe_com.c ****                                              CPU_SIZE_T   rx_pkt_size,
2217:../Dave/Generated/UCPROBE/probe_com.c ****                                              CPU_SIZE_T   tx_buf_size)
2218:../Dave/Generated/UCPROBE/probe_com.c **** {
2219:../Dave/Generated/UCPROBE/probe_com.c ****     CPU_SIZE_T   buf_ix;
2220:../Dave/Generated/UCPROBE/probe_com.c ****     CPU_SIZE_T   buf_len;
2221:../Dave/Generated/UCPROBE/probe_com.c ****     CPU_SIZE_T   tx_len;
2222:../Dave/Generated/UCPROBE/probe_com.c ****     CPU_SIZE_T   tx_max;
2223:../Dave/Generated/UCPROBE/probe_com.c ****     CPU_INT08U  *pbuf;
2224:../Dave/Generated/UCPROBE/probe_com.c ****     CPU_SR_ALLOC();
2225:../Dave/Generated/UCPROBE/probe_com.c **** 
2226:../Dave/Generated/UCPROBE/probe_com.c **** 
2227:../Dave/Generated/UCPROBE/probe_com.c ****    (void)&prx_buf;                                              /* Prevent compiler warning.       
2228:../Dave/Generated/UCPROBE/probe_com.c **** 
2229:../Dave/Generated/UCPROBE/probe_com.c **** 
2230:../Dave/Generated/UCPROBE/probe_com.c ****                                                                 /* ------------------- CHK PKT SIZE
2231:../Dave/Generated/UCPROBE/probe_com.c ****                                                                 /* Expected size = 2 (= Rx hdr size
2232:../Dave/Generated/UCPROBE/probe_com.c ****                                                                 /*               + 2 (= Padding    
2233:../Dave/Generated/UCPROBE/probe_com.c ****     if (rx_pkt_size != 4u) {
2234:../Dave/Generated/UCPROBE/probe_com.c ****         tx_len = ProbeCom_ReqErr(ptx_buf, PROBE_COM_STATUS_RX_PKT_WRONG_SIZE);
2235:../Dave/Generated/UCPROBE/probe_com.c ****         return (tx_len);
2236:../Dave/Generated/UCPROBE/probe_com.c ****     }
2237:../Dave/Generated/UCPROBE/probe_com.c **** 
2238:../Dave/Generated/UCPROBE/probe_com.c ****     CPU_CRITICAL_ENTER();
2239:../Dave/Generated/UCPROBE/probe_com.c ****     pbuf    = ProbeCom_TerminalOutBufPtr;
2240:../Dave/Generated/UCPROBE/probe_com.c ****     buf_ix  = ProbeCom_TerminalOutBufIx;
2241:../Dave/Generated/UCPROBE/probe_com.c ****     buf_len = ProbeCom_TerminalOutBufLen;
2242:../Dave/Generated/UCPROBE/probe_com.c ****     CPU_CRITICAL_EXIT();
2243:../Dave/Generated/UCPROBE/probe_com.c **** 
2244:../Dave/Generated/UCPROBE/probe_com.c ****     if (pbuf == (CPU_INT08U *)0) {
2245:../Dave/Generated/UCPROBE/probe_com.c ****         tx_len = ProbeCom_ReqErr(ptx_buf, PROBE_COM_STATUS_TERMINAL_OUT_NONE);
2246:../Dave/Generated/UCPROBE/probe_com.c ****         return (tx_len);
2247:../Dave/Generated/UCPROBE/probe_com.c ****     }
2248:../Dave/Generated/UCPROBE/probe_com.c **** 
2249:../Dave/Generated/UCPROBE/probe_com.c ****     if (buf_ix == buf_len) {
2250:../Dave/Generated/UCPROBE/probe_com.c ****         tx_len = ProbeCom_ReqErr(ptx_buf, PROBE_COM_STATUS_TERMINAL_OUT_NONE);
2251:../Dave/Generated/UCPROBE/probe_com.c ****         return (tx_len);
2252:../Dave/Generated/UCPROBE/probe_com.c ****     }
2253:../Dave/Generated/UCPROBE/probe_com.c **** 
2254:../Dave/Generated/UCPROBE/probe_com.c ****     tx_max = buf_len - buf_ix;
2255:../Dave/Generated/UCPROBE/probe_com.c ****     if (tx_max > (tx_buf_size - PROBE_COM_SIZE_TX_HDR) - 1) {
2256:../Dave/Generated/UCPROBE/probe_com.c ****         tx_max = (tx_buf_size - PROBE_COM_SIZE_TX_HDR) - 1;
2257:../Dave/Generated/UCPROBE/probe_com.c ****     }
2258:../Dave/Generated/UCPROBE/probe_com.c **** 
2259:../Dave/Generated/UCPROBE/probe_com.c **** 
2260:../Dave/Generated/UCPROBE/probe_com.c ****                                                                 /* --------------------- STORE OUT 
2261:../Dave/Generated/UCPROBE/probe_com.c ****                                                                 /* Sto TX pkt hdr :                
2262:../Dave/Generated/UCPROBE/probe_com.c ****     ProbeCom_StoINT16U(&ptx_buf, PROBE_COM_FMT_TX_TERMINAL_OUT);/* (a) TX pkt fmt.                 
2263:../Dave/Generated/UCPROBE/probe_com.c ****     ProbeCom_StoINT08U(&ptx_buf, PROBE_COM_STATUS_OK);          /* (b) Target status.              
2264:../Dave/Generated/UCPROBE/probe_com.c ****     ProbeCom_StoINT08U(&ptx_buf, 0);                            /* (c) Modifier (see Notes #5).    
2265:../Dave/Generated/UCPROBE/probe_com.c **** 
2266:../Dave/Generated/UCPROBE/probe_com.c ****     Mem_Copy((void       *) ptx_buf,                            /* Copy str from buf.              
2267:../Dave/Generated/UCPROBE/probe_com.c ****              (void       *)&pbuf[buf_ix],
2268:../Dave/Generated/UCPROBE/probe_com.c ****              (CPU_SIZE_T  ) tx_max);
2269:../Dave/Generated/UCPROBE/probe_com.c **** 
2270:../Dave/Generated/UCPROBE/probe_com.c ****    *(ptx_buf + tx_max)        = (CPU_INT08U)0;                  /* Wr NULL byte.                   
2271:../Dave/Generated/UCPROBE/probe_com.c **** 
2272:../Dave/Generated/UCPROBE/probe_com.c ****     CPU_CRITICAL_ENTER();
2273:../Dave/Generated/UCPROBE/probe_com.c ****     ProbeCom_TerminalOutBufIx = buf_ix + tx_max;                /* Update buf ix.                  
2274:../Dave/Generated/UCPROBE/probe_com.c ****     CPU_CRITICAL_EXIT();
2275:../Dave/Generated/UCPROBE/probe_com.c **** 
2276:../Dave/Generated/UCPROBE/probe_com.c ****     if (buf_ix + tx_max >= buf_len) {
2277:../Dave/Generated/UCPROBE/probe_com.c ****         ProbeCom_OS_TerminalOutSignal();
2278:../Dave/Generated/UCPROBE/probe_com.c ****     }
2279:../Dave/Generated/UCPROBE/probe_com.c **** 
2280:../Dave/Generated/UCPROBE/probe_com.c **** 
2281:../Dave/Generated/UCPROBE/probe_com.c ****                                                                 /* ------------------ RTN TX PKT SI
2282:../Dave/Generated/UCPROBE/probe_com.c ****     tx_len = PROBE_COM_SIZE_TX_HDR + tx_max + 1u;
2283:../Dave/Generated/UCPROBE/probe_com.c ****     return (tx_len);                                            /* Tx pkt size = 4      (= Tx hdr s
2284:../Dave/Generated/UCPROBE/probe_com.c ****                                                                 /*             + nbytes (= Str    s
2285:../Dave/Generated/UCPROBE/probe_com.c ****                                                                 /*             + 1      (= NULL byt
2286:../Dave/Generated/UCPROBE/probe_com.c **** }
2287:../Dave/Generated/UCPROBE/probe_com.c **** #endif
2288:../Dave/Generated/UCPROBE/probe_com.c **** 
2289:../Dave/Generated/UCPROBE/probe_com.c **** 
2290:../Dave/Generated/UCPROBE/probe_com.c **** /*
2291:../Dave/Generated/UCPROBE/probe_com.c **** ***************************************************************************************************
2292:../Dave/Generated/UCPROBE/probe_com.c **** *                                         ProbeCom_BufInit()
2293:../Dave/Generated/UCPROBE/probe_com.c **** *
2294:../Dave/Generated/UCPROBE/probe_com.c **** * Description : Initialize buffer.
2295:../Dave/Generated/UCPROBE/probe_com.c **** *
2296:../Dave/Generated/UCPROBE/probe_com.c **** * Argument(s) : pbuf            Pointer to buffer.
2297:../Dave/Generated/UCPROBE/probe_com.c **** *
2298:../Dave/Generated/UCPROBE/probe_com.c **** *               pdata           Pointer to buffer data.
2299:../Dave/Generated/UCPROBE/probe_com.c **** *
2300:../Dave/Generated/UCPROBE/probe_com.c **** *               len             Buffer length.
2301:../Dave/Generated/UCPROBE/probe_com.c **** *
2302:../Dave/Generated/UCPROBE/probe_com.c **** * Return(s)   : none.
2303:../Dave/Generated/UCPROBE/probe_com.c **** *
2304:../Dave/Generated/UCPROBE/probe_com.c **** * Caller(s)   : Application.
2305:../Dave/Generated/UCPROBE/probe_com.c **** *
2306:../Dave/Generated/UCPROBE/probe_com.c **** * Note(s)     : (1) The string buffer is implemented as a circular buffer.  This function is one of
2307:../Dave/Generated/UCPROBE/probe_com.c **** *                   points of access for this buffer, the other being in the task or ISR which form
2308:../Dave/Generated/UCPROBE/probe_com.c **** *                   tx packets.  Only this function should modify the global current write index
2309:../Dave/Generated/UCPROBE/probe_com.c **** *                   (pbuf->IxWr); only the task or ISR which forms the packets should modify the gl
2310:../Dave/Generated/UCPROBE/probe_com.c **** *                   current read index (pbuf->IxRd).
2311:../Dave/Generated/UCPROBE/probe_com.c **** *
2312:../Dave/Generated/UCPROBE/probe_com.c **** *               (2) The global current write index (pbuf->IxWr) is the index of the next location i
2313:../Dave/Generated/UCPROBE/probe_com.c **** *                   buffer to write.  The global current read index (pbuf->IxRd) is the index of th
2314:../Dave/Generated/UCPROBE/probe_com.c **** *                   location in the buffer to read.
2315:../Dave/Generated/UCPROBE/probe_com.c **** *
2316:../Dave/Generated/UCPROBE/probe_com.c **** *               (3) The string buffer, an array of pbuf->Len bytes, can only hold (pbuf->Len - 1) b
2317:../Dave/Generated/UCPROBE/probe_com.c **** *                   so that the condition
2318:../Dave/Generated/UCPROBE/probe_com.c **** *
2319:../Dave/Generated/UCPROBE/probe_com.c **** *                                        pbuf->IxWr == pbuf->IxRd
2320:../Dave/Generated/UCPROBE/probe_com.c **** *
2321:../Dave/Generated/UCPROBE/probe_com.c **** *                   will be true if and only if the buffer is empty.  Consequently, this function
2322:../Dave/Generated/UCPROBE/probe_com.c **** *                   always leaves an empty space in the buffer.
2323:../Dave/Generated/UCPROBE/probe_com.c **** ***************************************************************************************************
2324:../Dave/Generated/UCPROBE/probe_com.c **** */
2325:../Dave/Generated/UCPROBE/probe_com.c **** 
2326:../Dave/Generated/UCPROBE/probe_com.c **** #if (PROBE_COM_CFG_STR_REQ_EN == DEF_TRUE)
2327:../Dave/Generated/UCPROBE/probe_com.c **** static  void  ProbeCom_BufInit (PROBE_COM_BUF  *pbuf,
2328:../Dave/Generated/UCPROBE/probe_com.c ****                                 CPU_INT08U     *pdata,
2329:../Dave/Generated/UCPROBE/probe_com.c ****                                 CPU_SIZE_T      len)
2330:../Dave/Generated/UCPROBE/probe_com.c **** {
2331:../Dave/Generated/UCPROBE/probe_com.c ****     pbuf->Len      = len;
2332:../Dave/Generated/UCPROBE/probe_com.c ****     pbuf->IxRd     = 0;
2333:../Dave/Generated/UCPROBE/probe_com.c ****     pbuf->IxWr     = 0;
2334:../Dave/Generated/UCPROBE/probe_com.c ****     pbuf->DataPtr  = pdata;
2335:../Dave/Generated/UCPROBE/probe_com.c **** }
2336:../Dave/Generated/UCPROBE/probe_com.c **** #endif
2337:../Dave/Generated/UCPROBE/probe_com.c **** 
2338:../Dave/Generated/UCPROBE/probe_com.c **** 
2339:../Dave/Generated/UCPROBE/probe_com.c **** /*
2340:../Dave/Generated/UCPROBE/probe_com.c **** ***************************************************************************************************
2341:../Dave/Generated/UCPROBE/probe_com.c **** *                                          ProbeCom_BufRd()
2342:../Dave/Generated/UCPROBE/probe_com.c **** *
2343:../Dave/Generated/UCPROBE/probe_com.c **** * Description : Read from buffer.
2344:../Dave/Generated/UCPROBE/probe_com.c **** *
2345:../Dave/Generated/UCPROBE/probe_com.c **** * Argument(s) : pbuf            Pointer to buffer.
2346:../Dave/Generated/UCPROBE/probe_com.c **** *
2347:../Dave/Generated/UCPROBE/probe_com.c **** *               pdest           Pointer to destination buffer.
2348:../Dave/Generated/UCPROBE/probe_com.c **** *
2349:../Dave/Generated/UCPROBE/probe_com.c **** *               len             Number of octets to read.
2350:../Dave/Generated/UCPROBE/probe_com.c **** *
2351:../Dave/Generated/UCPROBE/probe_com.c **** * Return(s)   : The number of octets read from buffer.
2352:../Dave/Generated/UCPROBE/probe_com.c **** *
2353:../Dave/Generated/UCPROBE/probe_com.c **** * Caller(s)   : Application.
2354:../Dave/Generated/UCPROBE/probe_com.c **** *
2355:../Dave/Generated/UCPROBE/probe_com.c **** * Note(s)     : none.
2356:../Dave/Generated/UCPROBE/probe_com.c **** ***************************************************************************************************
2357:../Dave/Generated/UCPROBE/probe_com.c **** */
2358:../Dave/Generated/UCPROBE/probe_com.c **** 
2359:../Dave/Generated/UCPROBE/probe_com.c **** #if (PROBE_COM_CFG_STR_REQ_EN == DEF_TRUE)
2360:../Dave/Generated/UCPROBE/probe_com.c **** static  CPU_SIZE_T  ProbeCom_BufRd (PROBE_COM_BUF  *pbuf,
2361:../Dave/Generated/UCPROBE/probe_com.c ****                                     CPU_INT08U     *pdest,
2362:../Dave/Generated/UCPROBE/probe_com.c ****                                     CPU_SIZE_T      len)
2363:../Dave/Generated/UCPROBE/probe_com.c **** {
2364:../Dave/Generated/UCPROBE/probe_com.c ****     CPU_SIZE_T  cnt_copy;
2365:../Dave/Generated/UCPROBE/probe_com.c ****     CPU_SIZE_T  cnt_full;
2366:../Dave/Generated/UCPROBE/probe_com.c ****     CPU_SIZE_T  cnt_rem;
2367:../Dave/Generated/UCPROBE/probe_com.c ****     CPU_SIZE_T  ix_rd;
2368:../Dave/Generated/UCPROBE/probe_com.c ****     CPU_SIZE_T  ix_wr;
2369:../Dave/Generated/UCPROBE/probe_com.c ****     CPU_SIZE_T  len_buf;
2370:../Dave/Generated/UCPROBE/probe_com.c ****     CPU_SR_ALLOC();
2371:../Dave/Generated/UCPROBE/probe_com.c **** 
2372:../Dave/Generated/UCPROBE/probe_com.c **** 
2373:../Dave/Generated/UCPROBE/probe_com.c ****     CPU_CRITICAL_ENTER();
2374:../Dave/Generated/UCPROBE/probe_com.c ****     ix_rd   = pbuf->IxRd;
2375:../Dave/Generated/UCPROBE/probe_com.c ****     ix_wr   = pbuf->IxWr;
2376:../Dave/Generated/UCPROBE/probe_com.c ****     len_buf = pbuf->Len;
2377:../Dave/Generated/UCPROBE/probe_com.c **** 
2378:../Dave/Generated/UCPROBE/probe_com.c ****     if (ix_wr == ix_rd) {                                       /* Buf is empty.                   
2379:../Dave/Generated/UCPROBE/probe_com.c ****         CPU_CRITICAL_EXIT();
2380:../Dave/Generated/UCPROBE/probe_com.c ****         return ((CPU_SIZE_T)0);
2381:../Dave/Generated/UCPROBE/probe_com.c ****     }
2382:../Dave/Generated/UCPROBE/probe_com.c **** 
2383:../Dave/Generated/UCPROBE/probe_com.c **** 
2384:../Dave/Generated/UCPROBE/probe_com.c **** 
2385:../Dave/Generated/UCPROBE/probe_com.c ****                                                                 /* -------------- COPY DATA FROM BU
2386:../Dave/Generated/UCPROBE/probe_com.c ****     if (ix_wr > ix_rd) {                                        /* Get str at buf interval [rd_ix, 
2387:../Dave/Generated/UCPROBE/probe_com.c ****         cnt_full = ix_wr - ix_rd;
2388:../Dave/Generated/UCPROBE/probe_com.c ****     } else {                                                    /* Get str at buf interval [rd_ix, 
2389:../Dave/Generated/UCPROBE/probe_com.c ****         cnt_full = len_buf - ix_rd;
2390:../Dave/Generated/UCPROBE/probe_com.c ****     }
2391:../Dave/Generated/UCPROBE/probe_com.c **** 
2392:../Dave/Generated/UCPROBE/probe_com.c ****     cnt_copy  = DEF_MIN(cnt_full, len);                         /* Copy data.                      
2393:../Dave/Generated/UCPROBE/probe_com.c ****     Mem_Copy((void *)pdest, (void *)&pbuf->DataPtr[ix_rd], cnt_copy);
2394:../Dave/Generated/UCPROBE/probe_com.c **** 
2395:../Dave/Generated/UCPROBE/probe_com.c **** 
2396:../Dave/Generated/UCPROBE/probe_com.c ****     if ((ix_wr > ix_rd) || (ix_wr == 0u)) {
2397:../Dave/Generated/UCPROBE/probe_com.c ****         ix_rd += cnt_copy;
2398:../Dave/Generated/UCPROBE/probe_com.c ****         if (ix_rd == len_buf) {
2399:../Dave/Generated/UCPROBE/probe_com.c ****             pbuf->IxRd = 0u;
2400:../Dave/Generated/UCPROBE/probe_com.c ****         } else {
2401:../Dave/Generated/UCPROBE/probe_com.c ****             pbuf->IxRd = ix_rd;
2402:../Dave/Generated/UCPROBE/probe_com.c ****         }
2403:../Dave/Generated/UCPROBE/probe_com.c ****         CPU_CRITICAL_EXIT();
2404:../Dave/Generated/UCPROBE/probe_com.c **** 
2405:../Dave/Generated/UCPROBE/probe_com.c ****         return (cnt_copy);
2406:../Dave/Generated/UCPROBE/probe_com.c ****     }
2407:../Dave/Generated/UCPROBE/probe_com.c **** 
2408:../Dave/Generated/UCPROBE/probe_com.c **** 
2409:../Dave/Generated/UCPROBE/probe_com.c **** 
2410:../Dave/Generated/UCPROBE/probe_com.c ****                                                                 /* -------------- COPY DATA AT BUF 
2411:../Dave/Generated/UCPROBE/probe_com.c ****     ix_rd    += cnt_copy;
2412:../Dave/Generated/UCPROBE/probe_com.c ****     pdest    += cnt_copy;                                       /* Adj buf ptr.                    
2413:../Dave/Generated/UCPROBE/probe_com.c ****     cnt_rem   = len - cnt_copy;                                 /* Calc nbr data octets to copy fro
2414:../Dave/Generated/UCPROBE/probe_com.c ****     cnt_copy  = DEF_MIN(ix_wr, cnt_rem);
2415:../Dave/Generated/UCPROBE/probe_com.c **** 
2416:../Dave/Generated/UCPROBE/probe_com.c ****     if (cnt_copy > 0u) {
2417:../Dave/Generated/UCPROBE/probe_com.c ****                                                                 /* Copy data.                      
2418:../Dave/Generated/UCPROBE/probe_com.c ****         Mem_Copy((void *)pdest, (void *)&pbuf->DataPtr[0], cnt_copy);
2419:../Dave/Generated/UCPROBE/probe_com.c ****         pbuf->IxRd = cnt_copy;
2420:../Dave/Generated/UCPROBE/probe_com.c ****     } else {
2421:../Dave/Generated/UCPROBE/probe_com.c ****         if (ix_rd == len_buf) {
2422:../Dave/Generated/UCPROBE/probe_com.c ****             pbuf->IxRd = 0u;
2423:../Dave/Generated/UCPROBE/probe_com.c ****         } else {
2424:../Dave/Generated/UCPROBE/probe_com.c ****             pbuf->IxRd = ix_rd;
2425:../Dave/Generated/UCPROBE/probe_com.c ****         }
2426:../Dave/Generated/UCPROBE/probe_com.c ****     }
2427:../Dave/Generated/UCPROBE/probe_com.c ****     CPU_CRITICAL_EXIT();
2428:../Dave/Generated/UCPROBE/probe_com.c **** 
2429:../Dave/Generated/UCPROBE/probe_com.c ****     return ((len - cnt_rem) + cnt_copy);
2430:../Dave/Generated/UCPROBE/probe_com.c **** }
2431:../Dave/Generated/UCPROBE/probe_com.c **** #endif
2432:../Dave/Generated/UCPROBE/probe_com.c **** 
2433:../Dave/Generated/UCPROBE/probe_com.c **** 
2434:../Dave/Generated/UCPROBE/probe_com.c **** /*
2435:../Dave/Generated/UCPROBE/probe_com.c **** ***************************************************************************************************
2436:../Dave/Generated/UCPROBE/probe_com.c **** *                                          ProbeCom_BufWr()
2437:../Dave/Generated/UCPROBE/probe_com.c **** *
2438:../Dave/Generated/UCPROBE/probe_com.c **** * Description : Write to buffer.
2439:../Dave/Generated/UCPROBE/probe_com.c **** *
2440:../Dave/Generated/UCPROBE/probe_com.c **** * Argument(s) : pbuf            Pointer to buffer.
2441:../Dave/Generated/UCPROBE/probe_com.c **** *
2442:../Dave/Generated/UCPROBE/probe_com.c **** *               psrc            Pointer to source buffer.
2443:../Dave/Generated/UCPROBE/probe_com.c **** *
2444:../Dave/Generated/UCPROBE/probe_com.c **** *               len             Number of octets to write.
2445:../Dave/Generated/UCPROBE/probe_com.c **** *
2446:../Dave/Generated/UCPROBE/probe_com.c **** *
2447:../Dave/Generated/UCPROBE/probe_com.c **** * Return(s)   : Number of octets stored in buffer.
2448:../Dave/Generated/UCPROBE/probe_com.c **** *
2449:../Dave/Generated/UCPROBE/probe_com.c **** * Caller(s)   : Hardware Port's ISR.
2450:../Dave/Generated/UCPROBE/probe_com.c **** *
2451:../Dave/Generated/UCPROBE/probe_com.c **** * Note(s)     : none.
2452:../Dave/Generated/UCPROBE/probe_com.c **** ***************************************************************************************************
2453:../Dave/Generated/UCPROBE/probe_com.c **** */
2454:../Dave/Generated/UCPROBE/probe_com.c **** 
2455:../Dave/Generated/UCPROBE/probe_com.c **** #if (PROBE_COM_CFG_STR_REQ_EN == DEF_TRUE)
2456:../Dave/Generated/UCPROBE/probe_com.c **** static  CPU_SIZE_T  ProbeCom_BufWr (PROBE_COM_BUF  *pbuf,
2457:../Dave/Generated/UCPROBE/probe_com.c ****                                     CPU_INT08U     *psrc,
2458:../Dave/Generated/UCPROBE/probe_com.c ****                                     CPU_SIZE_T      len)
2459:../Dave/Generated/UCPROBE/probe_com.c **** {
2460:../Dave/Generated/UCPROBE/probe_com.c ****     CPU_SIZE_T  cnt_copy;
2461:../Dave/Generated/UCPROBE/probe_com.c ****     CPU_SIZE_T  cnt_empty;
2462:../Dave/Generated/UCPROBE/probe_com.c ****     CPU_SIZE_T  cnt_rem;
2463:../Dave/Generated/UCPROBE/probe_com.c ****     CPU_SIZE_T  ix_rd;
2464:../Dave/Generated/UCPROBE/probe_com.c ****     CPU_SIZE_T  ix_wr;
2465:../Dave/Generated/UCPROBE/probe_com.c ****     CPU_SIZE_T  len_buf;
2466:../Dave/Generated/UCPROBE/probe_com.c ****     CPU_SR_ALLOC();
2467:../Dave/Generated/UCPROBE/probe_com.c **** 
2468:../Dave/Generated/UCPROBE/probe_com.c **** 
2469:../Dave/Generated/UCPROBE/probe_com.c ****     CPU_CRITICAL_ENTER();
2470:../Dave/Generated/UCPROBE/probe_com.c ****     ix_rd   = pbuf->IxRd;
2471:../Dave/Generated/UCPROBE/probe_com.c ****     ix_wr   = pbuf->IxWr;
2472:../Dave/Generated/UCPROBE/probe_com.c ****     len_buf = pbuf->Len;
2473:../Dave/Generated/UCPROBE/probe_com.c **** 
2474:../Dave/Generated/UCPROBE/probe_com.c ****                                                                 /* --------------- COPY DATA AT BUF
2475:../Dave/Generated/UCPROBE/probe_com.c ****     if (ix_rd > ix_wr) {                                        /* Sto str at buf interval [wr_ix, 
2476:../Dave/Generated/UCPROBE/probe_com.c ****         cnt_empty = (ix_rd   - ix_wr) - 1u;
2477:../Dave/Generated/UCPROBE/probe_com.c ****     } else if (ix_rd == 0u) {                                   /* Sto str at buf interval [wr_ix, 
2478:../Dave/Generated/UCPROBE/probe_com.c ****         cnt_empty = (len_buf - ix_wr) - 1u;
2479:../Dave/Generated/UCPROBE/probe_com.c ****     } else {                                                    /* Sto str at buf interval [wr_ix, 
2480:../Dave/Generated/UCPROBE/probe_com.c ****         cnt_empty =  len_buf - ix_wr;
2481:../Dave/Generated/UCPROBE/probe_com.c ****     }
2482:../Dave/Generated/UCPROBE/probe_com.c **** 
2483:../Dave/Generated/UCPROBE/probe_com.c ****     cnt_copy  = DEF_MIN(cnt_empty, len);                        /* Copy data.                      
2484:../Dave/Generated/UCPROBE/probe_com.c ****     Mem_Copy((void *)&pbuf->DataPtr[ix_wr], (void *)psrc, cnt_copy);
2485:../Dave/Generated/UCPROBE/probe_com.c **** 
2486:../Dave/Generated/UCPROBE/probe_com.c **** 
2487:../Dave/Generated/UCPROBE/probe_com.c ****     if ((ix_rd > ix_wr) || (ix_rd == 0u)) {
2488:../Dave/Generated/UCPROBE/probe_com.c ****         pbuf->IxWr = ix_wr + cnt_copy;
2489:../Dave/Generated/UCPROBE/probe_com.c ****         CPU_CRITICAL_EXIT();
2490:../Dave/Generated/UCPROBE/probe_com.c **** 
2491:../Dave/Generated/UCPROBE/probe_com.c ****         return (cnt_copy);
2492:../Dave/Generated/UCPROBE/probe_com.c ****     }
2493:../Dave/Generated/UCPROBE/probe_com.c **** 
2494:../Dave/Generated/UCPROBE/probe_com.c **** 
2495:../Dave/Generated/UCPROBE/probe_com.c **** 
2496:../Dave/Generated/UCPROBE/probe_com.c ****                                                                 /* -------------- COPY DATA AT BUF 
2497:../Dave/Generated/UCPROBE/probe_com.c ****     ix_wr    += cnt_copy;
2498:../Dave/Generated/UCPROBE/probe_com.c ****     psrc     += cnt_copy;                                       /* Adj buf ptr.                    
2499:../Dave/Generated/UCPROBE/probe_com.c ****     cnt_rem   = len - cnt_copy;                                 /* Calc nbr data octets to copy fro
2500:../Dave/Generated/UCPROBE/probe_com.c ****     cnt_copy  = DEF_MIN(ix_rd - 1u, cnt_rem);
2501:../Dave/Generated/UCPROBE/probe_com.c **** 
2502:../Dave/Generated/UCPROBE/probe_com.c ****     if (cnt_copy > 0u) {
2503:../Dave/Generated/UCPROBE/probe_com.c ****                                                                 /* Copy data.                      
2504:../Dave/Generated/UCPROBE/probe_com.c ****         Mem_Copy((void *)&pbuf->DataPtr[0], (void *)psrc, cnt_copy);
2505:../Dave/Generated/UCPROBE/probe_com.c ****         pbuf->IxWr = cnt_copy;
2506:../Dave/Generated/UCPROBE/probe_com.c ****     } else {
2507:../Dave/Generated/UCPROBE/probe_com.c ****         if (ix_wr == len_buf) {
2508:../Dave/Generated/UCPROBE/probe_com.c ****             pbuf->IxWr = 0u;
2509:../Dave/Generated/UCPROBE/probe_com.c ****         } else {
2510:../Dave/Generated/UCPROBE/probe_com.c ****             pbuf->IxWr = ix_wr;
2511:../Dave/Generated/UCPROBE/probe_com.c ****         }
2512:../Dave/Generated/UCPROBE/probe_com.c ****     }
2513:../Dave/Generated/UCPROBE/probe_com.c ****     CPU_CRITICAL_EXIT();
2514:../Dave/Generated/UCPROBE/probe_com.c **** 
2515:../Dave/Generated/UCPROBE/probe_com.c ****     return ((len - cnt_rem) + cnt_copy);
2516:../Dave/Generated/UCPROBE/probe_com.c **** }
2517:../Dave/Generated/UCPROBE/probe_com.c **** #endif
2518:../Dave/Generated/UCPROBE/probe_com.c **** 
2519:../Dave/Generated/UCPROBE/probe_com.c **** 
2520:../Dave/Generated/UCPROBE/probe_com.c **** /*
2521:../Dave/Generated/UCPROBE/probe_com.c **** ***************************************************************************************************
2522:../Dave/Generated/UCPROBE/probe_com.c **** *                                        ProbeCom_BufIsEmpty()
2523:../Dave/Generated/UCPROBE/probe_com.c **** *
2524:../Dave/Generated/UCPROBE/probe_com.c **** * Description : Determine whether buffer is empty.
2525:../Dave/Generated/UCPROBE/probe_com.c **** *
2526:../Dave/Generated/UCPROBE/probe_com.c **** * Argument(s) : pbuf            Pointer to buffer.
2527:../Dave/Generated/UCPROBE/probe_com.c **** *
2528:../Dave/Generated/UCPROBE/probe_com.c **** * Return(s)   : DEF_YES, if buffer is empty.
2529:../Dave/Generated/UCPROBE/probe_com.c **** *               DEF_NO,  if buffer contains any data.
2530:../Dave/Generated/UCPROBE/probe_com.c **** *
2531:../Dave/Generated/UCPROBE/probe_com.c **** * Caller(s)   : Application.
2532:../Dave/Generated/UCPROBE/probe_com.c **** *
2533:../Dave/Generated/UCPROBE/probe_com.c **** * Note(s)     : none.
2534:../Dave/Generated/UCPROBE/probe_com.c **** ***************************************************************************************************
2535:../Dave/Generated/UCPROBE/probe_com.c **** */
2536:../Dave/Generated/UCPROBE/probe_com.c **** 
2537:../Dave/Generated/UCPROBE/probe_com.c **** #if (PROBE_COM_CFG_STR_REQ_EN == DEF_TRUE)
2538:../Dave/Generated/UCPROBE/probe_com.c **** static  CPU_BOOLEAN  ProbeCom_BufIsEmpty  (PROBE_COM_BUF  *pbuf)
2539:../Dave/Generated/UCPROBE/probe_com.c **** {
2540:../Dave/Generated/UCPROBE/probe_com.c ****     CPU_BOOLEAN  empty;
2541:../Dave/Generated/UCPROBE/probe_com.c ****     CPU_SR_ALLOC();
2542:../Dave/Generated/UCPROBE/probe_com.c **** 
2543:../Dave/Generated/UCPROBE/probe_com.c **** 
2544:../Dave/Generated/UCPROBE/probe_com.c ****     CPU_CRITICAL_ENTER();
  39              	 .loc 1 2544 0
  40 0002 FFF7FEFF 	 bl CPU_SR_Save
  41              	.LVL1:
2545:../Dave/Generated/UCPROBE/probe_com.c ****     empty = ((pbuf->IxRd == pbuf->IxWr) ? (DEF_YES) : (DEF_NO));
  42              	 .loc 1 2545 0
  43 0006 124B     	 ldr r3,.L17
  44 0008 5A68     	 ldr r2,[r3,#4]
  45 000a 9B68     	 ldr r3,[r3,#8]
  46 000c 9A42     	 cmp r2,r3
  47 000e 1AD0     	 beq .L15
  48              	.LVL2:
2546:../Dave/Generated/UCPROBE/probe_com.c ****     CPU_CRITICAL_EXIT();
  49              	 .loc 1 2546 0
  50 0010 FFF7FEFF 	 bl CPU_SR_Restore
  51              	.LVL3:
  52 0014 0526     	 mov r6,#5
  53              	.LBE780:
  54              	.LBE779:
  55              	.LBE778:
  56              	.LBE777:
 945:../Dave/Generated/UCPROBE/probe_com.c ****     }
  57              	 .loc 1 945 0
  58 0016 0124     	 mov r4,#1
  59              	.LVL4:
  60              	.L6:
  61              	.LBB784:
  62              	.LBB785:
 862:../Dave/Generated/UCPROBE/probe_com.c ****     buf_len = ProbeCom_TerminalOutBufLen;
  63              	 .loc 1 862 0
  64 0018 FFF7FEFF 	 bl CPU_SR_Save
  65              	.LVL5:
 863:../Dave/Generated/UCPROBE/probe_com.c ****     CPU_CRITICAL_EXIT();
  66              	 .loc 1 863 0
  67 001c 0D4B     	 ldr r3,.L17+4
  68 001e 1D68     	 ldr r5,[r3]
  69              	.LVL6:
 864:../Dave/Generated/UCPROBE/probe_com.c **** 
  70              	 .loc 1 864 0
  71 0020 FFF7FEFF 	 bl CPU_SR_Restore
  72              	.LVL7:
  73              	.LBE785:
  74              	.LBE784:
 951:../Dave/Generated/UCPROBE/probe_com.c ****         DEF_BIT_SET(mod, PROBE_COM_MODIFIER_TERMINAL_OUT_AVAIL);
  75              	 .loc 1 951 0
  76 0024 002D     	 cmp r5,#0
  77 0026 0CD1     	 bne .L16
  78              	.LVL8:
  79              	.L4:
  80              	.LBB786:
  81              	.LBB787:
 901:../Dave/Generated/UCPROBE/probe_com.c ****     executing = ProbeCom_TerminalExecuting;
  82              	 .loc 1 901 0
  83 0028 FFF7FEFF 	 bl CPU_SR_Save
  84              	.LVL9:
 902:../Dave/Generated/UCPROBE/probe_com.c ****     CPU_CRITICAL_EXIT();
  85              	 .loc 1 902 0
  86 002c 0A4B     	 ldr r3,.L17+8
  87 002e 1D78     	 ldrb r5,[r3]
  88              	.LVL10:
 903:../Dave/Generated/UCPROBE/probe_com.c **** 
  89              	 .loc 1 903 0
  90 0030 FFF7FEFF 	 bl CPU_SR_Restore
  91              	.LVL11:
  92              	.LBE787:
  93              	.LBE786:
 956:../Dave/Generated/UCPROBE/probe_com.c ****         DEF_BIT_SET(mod, PROBE_COM_MODIFIER_TERMINAL_EXEC_DONE);
  94              	 .loc 1 956 0
  95 0034 012D     	 cmp r5,#1
  96 0036 02D0     	 beq .L9
 957:../Dave/Generated/UCPROBE/probe_com.c ****     }
  97              	 .loc 1 957 0
  98 0038 0223     	 mov r3,#2
  99 003a 1C43     	 orr r4,r3
 100              	.LVL12:
 101 003c E4B2     	 uxtb r4,r4
 102              	.LVL13:
 103              	.L9:
 962:../Dave/Generated/UCPROBE/probe_com.c **** 
 104              	 .loc 1 962 0
 105 003e 201C     	 mov r0,r4
 106              	 
 107              	.LVL14:
 108              	.LVL15:
 109 0040 70BD     	 pop {r4,r5,r6,pc}
 110              	.LVL16:
 111              	.L16:
 952:../Dave/Generated/UCPROBE/probe_com.c ****     }
 112              	 .loc 1 952 0
 113 0042 341C     	 mov r4,r6
 114              	.LVL17:
 115 0044 F0E7     	 b .L4
 116              	.LVL18:
 117              	.L15:
 118              	.LBB788:
 119              	.LBB783:
 120              	.LBB782:
 121              	.LBB781:
 122              	 .loc 1 2546 0
 123 0046 FFF7FEFF 	 bl CPU_SR_Restore
 124              	.LVL19:
 125 004a 0426     	 mov r6,#4
 126              	.LBE781:
 127              	.LBE782:
 128              	.LBE783:
 129              	.LBE788:
 940:../Dave/Generated/UCPROBE/probe_com.c **** 
 130              	 .loc 1 940 0
 131 004c 0024     	 mov r4,#0
 132 004e E3E7     	 b .L6
 133              	.L18:
 134              	 .align 2
 135              	.L17:
 136 0050 00000000 	 .word .LANCHOR0
 137 0054 00000000 	 .word .LANCHOR1
 138 0058 00000000 	 .word .LANCHOR2
 139              	 .cfi_endproc
 140              	.LFE11:
 142              	 .section .text.ProbeCom_Init,"ax",%progbits
 143              	 .align 2
 144              	 .global ProbeCom_Init
 145              	 .code 16
 146              	 .thumb_func
 148              	ProbeCom_Init:
 149              	.LFB0:
 353:../Dave/Generated/UCPROBE/probe_com.c **** #if (PROBE_COM_CFG_TERMINAL_REQ_EN == DEF_ENABLED)
 150              	 .loc 1 353 0
 151              	 .cfi_startproc
 152 0000 70B5     	 push {r4,r5,r6,lr}
 153              	.LCFI1:
 154              	 .cfi_def_cfa_offset 16
 155              	 .cfi_offset 4,-16
 156              	 .cfi_offset 5,-12
 157              	 .cfi_offset 6,-8
 158              	 .cfi_offset 14,-4
 360:../Dave/Generated/UCPROBE/probe_com.c ****             (CPU_SIZE_T) PROBE_COM_CFG_STR_IN_BUF_SIZE);
 159              	 .loc 1 360 0
 160 0002 224D     	 ldr r5,.L23
 367:../Dave/Generated/UCPROBE/probe_com.c ****             (CPU_SIZE_T) PROBE_COM_CFG_STR_OUT_BUF_SIZE);
 161              	 .loc 1 367 0
 162 0004 8026     	 mov r6,#128
 360:../Dave/Generated/UCPROBE/probe_com.c ****             (CPU_SIZE_T) PROBE_COM_CFG_STR_IN_BUF_SIZE);
 163              	 .loc 1 360 0
 164 0006 281C     	 mov r0,r5
 165 0008 8021     	 mov r1,#128
 166 000a FFF7FEFF 	 bl Mem_Clr
 167              	.LVL20:
 168              	.LBB789:
 169              	.LBB790:
2332:../Dave/Generated/UCPROBE/probe_com.c ****     pbuf->IxWr     = 0;
 170              	 .loc 1 2332 0
 171 000e 0024     	 mov r4,#0
2331:../Dave/Generated/UCPROBE/probe_com.c ****     pbuf->IxRd     = 0;
 172              	 .loc 1 2331 0
 173 0010 8022     	 mov r2,#128
 174 0012 1F4B     	 ldr r3,.L23+4
 175              	.LBE790:
 176              	.LBE789:
 367:../Dave/Generated/UCPROBE/probe_com.c ****             (CPU_SIZE_T) PROBE_COM_CFG_STR_OUT_BUF_SIZE);
 177              	 .loc 1 367 0
 178 0014 3601     	 lsl r6,r6,#4
 179              	.LBB793:
 180              	.LBB791:
2334:../Dave/Generated/UCPROBE/probe_com.c **** }
 181              	 .loc 1 2334 0
 182 0016 DD60     	 str r5,[r3,#12]
 183              	.LBE791:
 184              	.LBE793:
 367:../Dave/Generated/UCPROBE/probe_com.c ****             (CPU_SIZE_T) PROBE_COM_CFG_STR_OUT_BUF_SIZE);
 185              	 .loc 1 367 0
 186 0018 1E4D     	 ldr r5,.L23+8
 187 001a 311C     	 mov r1,r6
 188 001c 281C     	 mov r0,r5
 189              	.LBB794:
 190              	.LBB792:
2331:../Dave/Generated/UCPROBE/probe_com.c ****     pbuf->IxRd     = 0;
 191              	 .loc 1 2331 0
 192 001e 1A60     	 str r2,[r3]
2332:../Dave/Generated/UCPROBE/probe_com.c ****     pbuf->IxWr     = 0;
 193              	 .loc 1 2332 0
 194 0020 5C60     	 str r4,[r3,#4]
2333:../Dave/Generated/UCPROBE/probe_com.c ****     pbuf->DataPtr  = pdata;
 195              	 .loc 1 2333 0
 196 0022 9C60     	 str r4,[r3,#8]
 197              	.LBE792:
 198              	.LBE794:
 367:../Dave/Generated/UCPROBE/probe_com.c ****             (CPU_SIZE_T) PROBE_COM_CFG_STR_OUT_BUF_SIZE);
 199              	 .loc 1 367 0
 200 0024 FFF7FEFF 	 bl Mem_Clr
 201              	.LVL21:
 202              	.LBB795:
 203              	.LBB796:
2331:../Dave/Generated/UCPROBE/probe_com.c ****     pbuf->IxRd     = 0;
 204              	 .loc 1 2331 0
 205 0028 1B4B     	 ldr r3,.L23+12
 206 002a 1E60     	 str r6,[r3]
2332:../Dave/Generated/UCPROBE/probe_com.c ****     pbuf->IxWr     = 0;
 207              	 .loc 1 2332 0
 208 002c 5C60     	 str r4,[r3,#4]
2333:../Dave/Generated/UCPROBE/probe_com.c ****     pbuf->DataPtr  = pdata;
 209              	 .loc 1 2333 0
 210 002e 9C60     	 str r4,[r3,#8]
2334:../Dave/Generated/UCPROBE/probe_com.c **** }
 211              	 .loc 1 2334 0
 212 0030 DD60     	 str r5,[r3,#12]
 213              	.LBE796:
 214              	.LBE795:
 377:../Dave/Generated/UCPROBE/probe_com.c ****     ProbeCom_TerminalExecuting     = (CPU_BOOLEAN  )DEF_NO;
 215              	 .loc 1 377 0
 216 0032 1A4B     	 ldr r3,.L23+16
 217 0034 1C60     	 str r4,[r3]
 378:../Dave/Generated/UCPROBE/probe_com.c **** 
 218              	 .loc 1 378 0
 219 0036 1A4B     	 ldr r3,.L23+20
 220 0038 1C70     	 strb r4,[r3]
 380:../Dave/Generated/UCPROBE/probe_com.c **** 
 221              	 .loc 1 380 0
 222 003a 1A4B     	 ldr r3,.L23+24
 223 003c 1C60     	 str r4,[r3]
 382:../Dave/Generated/UCPROBE/probe_com.c ****     ProbeCom_TerminalOutBufIx      = (CPU_SIZE_T   )0;
 224              	 .loc 1 382 0
 225 003e 1A4B     	 ldr r3,.L23+28
 226 0040 1C60     	 str r4,[r3]
 383:../Dave/Generated/UCPROBE/probe_com.c ****     ProbeCom_TerminalOutBufLen     = (CPU_SIZE_T   )0;
 227              	 .loc 1 383 0
 228 0042 1A4B     	 ldr r3,.L23+32
 229 0044 1C60     	 str r4,[r3]
 384:../Dave/Generated/UCPROBE/probe_com.c **** 
 230              	 .loc 1 384 0
 231 0046 1A4B     	 ldr r3,.L23+36
 232 0048 1C60     	 str r4,[r3]
 386:../Dave/Generated/UCPROBE/probe_com.c **** 
 233              	 .loc 1 386 0
 234 004a FFF7FEFF 	 bl ProbeCom_OS_Init
 235              	.LVL22:
 389:../Dave/Generated/UCPROBE/probe_com.c ****     }
 236              	 .loc 1 389 0
 237 004e 0023     	 mov r3,#0
 388:../Dave/Generated/UCPROBE/probe_com.c ****         return (DEF_FAIL);
 238              	 .loc 1 388 0
 239 0050 0028     	 cmp r0,#0
 240 0052 19D0     	 beq .L20
 395:../Dave/Generated/UCPROBE/probe_com.c ****     ProbeCom_TxPktCtr              =  0u;
 241              	 .loc 1 395 0
 242 0054 174A     	 ldr r2,.L23+40
 243 0056 1360     	 str r3,[r2]
 396:../Dave/Generated/UCPROBE/probe_com.c **** 
 244              	 .loc 1 396 0
 245 0058 174A     	 ldr r2,.L23+44
 246 005a 1360     	 str r3,[r2]
 398:../Dave/Generated/UCPROBE/probe_com.c ****     ProbeCom_TxSymByteCtr          =  0u;
 247              	 .loc 1 398 0
 248 005c 174A     	 ldr r2,.L23+48
 249 005e 1360     	 str r3,[r2]
 399:../Dave/Generated/UCPROBE/probe_com.c ****     ProbeCom_ErrPktCtr             =  0u;
 250              	 .loc 1 399 0
 251 0060 174A     	 ldr r2,.L23+52
 252 0062 1360     	 str r3,[r2]
 400:../Dave/Generated/UCPROBE/probe_com.c **** 
 253              	 .loc 1 400 0
 254 0064 174A     	 ldr r2,.L23+56
 255 0066 1360     	 str r3,[r2]
 403:../Dave/Generated/UCPROBE/probe_com.c ****     ProbeCom_StrRxOvfErrCtr        =  0u;
 256              	 .loc 1 403 0
 257 0068 174A     	 ldr r2,.L23+60
 258 006a 1360     	 str r3,[r2]
 404:../Dave/Generated/UCPROBE/probe_com.c **** 
 259              	 .loc 1 404 0
 260 006c 174A     	 ldr r2,.L23+64
 261 006e 1360     	 str r3,[r2]
 406:../Dave/Generated/UCPROBE/probe_com.c ****     ProbeCom_StrTxOvfErrCtr        =  0u;
 262              	 .loc 1 406 0
 263 0070 174A     	 ldr r2,.L23+68
 264 0072 1360     	 str r3,[r2]
 407:../Dave/Generated/UCPROBE/probe_com.c **** #endif
 265              	 .loc 1 407 0
 266 0074 174A     	 ldr r2,.L23+72
 267 0076 1360     	 str r3,[r2]
 411:../Dave/Generated/UCPROBE/probe_com.c ****     ProbeCom_RxSymByteCtr          =  0u;
 268              	 .loc 1 411 0
 269 0078 174A     	 ldr r2,.L23+76
 270 007a 1360     	 str r3,[r2]
 412:../Dave/Generated/UCPROBE/probe_com.c **** #endif
 271              	 .loc 1 412 0
 272 007c 174A     	 ldr r2,.L23+80
 273 007e 1360     	 str r3,[r2]
 416:../Dave/Generated/UCPROBE/probe_com.c **** 
 274              	 .loc 1 416 0
 275 0080 174B     	 ldr r3,.L23+84
 276 0082 184A     	 ldr r2,.L23+88
 277 0084 1A60     	 str r2,[r3]
 418:../Dave/Generated/UCPROBE/probe_com.c **** }
 278              	 .loc 1 418 0
 279 0086 0123     	 mov r3,#1
 280              	.L20:
 419:../Dave/Generated/UCPROBE/probe_com.c **** 
 281              	 .loc 1 419 0
 282 0088 181C     	 mov r0,r3
 283              	.LVL23:
 284              	 
 285 008a 70BD     	 pop {r4,r5,r6,pc}
 286              	.L24:
 287              	 .align 2
 288              	.L23:
 289 008c 00000000 	 .word .LANCHOR3
 290 0090 00000000 	 .word .LANCHOR4
 291 0094 00000000 	 .word .LANCHOR5
 292 0098 00000000 	 .word .LANCHOR0
 293 009c 00000000 	 .word .LANCHOR6
 294 00a0 00000000 	 .word .LANCHOR2
 295 00a4 00000000 	 .word .LANCHOR7
 296 00a8 00000000 	 .word .LANCHOR8
 297 00ac 00000000 	 .word .LANCHOR9
 298 00b0 00000000 	 .word .LANCHOR1
 299 00b4 00000000 	 .word ProbeCom_RxPktCtr
 300 00b8 00000000 	 .word ProbeCom_TxPktCtr
 301 00bc 00000000 	 .word ProbeCom_TxSymCtr
 302 00c0 00000000 	 .word ProbeCom_TxSymByteCtr
 303 00c4 00000000 	 .word ProbeCom_ErrPktCtr
 304 00c8 00000000 	 .word ProbeCom_StrRxCtr
 305 00cc 00000000 	 .word ProbeCom_StrRxOvfErrCtr
 306 00d0 00000000 	 .word ProbeCom_StrTxCtr
 307 00d4 00000000 	 .word ProbeCom_StrTxOvfErrCtr
 308 00d8 00000000 	 .word ProbeCom_RxSymCtr
 309 00dc 00000000 	 .word ProbeCom_RxSymByteCtr
 310 00e0 00000000 	 .word .LANCHOR10
 311 00e4 78563412 	 .word 305419896
 312              	 .cfi_endproc
 313              	.LFE0:
 315              	 .section .text.ProbeCom_StrRd,"ax",%progbits
 316              	 .align 2
 317              	 .global ProbeCom_StrRd
 318              	 .code 16
 319              	 .thumb_func
 321              	ProbeCom_StrRd:
 322              	.LFB1:
 450:../Dave/Generated/UCPROBE/probe_com.c ****     CPU_SIZE_T  len_rd;
 323              	 .loc 1 450 0
 324              	 .cfi_startproc
 325              	.LVL24:
 326 0000 F8B5     	 push {r3,r4,r5,r6,r7,lr}
 327              	.LCFI2:
 328              	 .cfi_def_cfa_offset 24
 329              	 .cfi_offset 3,-24
 330              	 .cfi_offset 4,-20
 331              	 .cfi_offset 5,-16
 332              	 .cfi_offset 6,-12
 333              	 .cfi_offset 7,-8
 334              	 .cfi_offset 14,-4
 335 0002 5F46     	 mov r7,fp
 336 0004 4D46     	 mov r5,r9
 337 0006 4446     	 mov r4,r8
 338 0008 5646     	 mov r6,r10
 339 000a F0B4     	 push {r4,r5,r6,r7}
 340              	.LCFI3:
 341              	 .cfi_def_cfa_offset 40
 342              	 .cfi_offset 8,-40
 343              	 .cfi_offset 9,-36
 344              	 .cfi_offset 10,-32
 345              	 .cfi_offset 11,-28
 450:../Dave/Generated/UCPROBE/probe_com.c ****     CPU_SIZE_T  len_rd;
 346              	 .loc 1 450 0
 347 000c 8346     	 mov fp,r0
 348              	.LVL25:
 349 000e 8A46     	 mov r10,r1
 350              	.LVL26:
 351              	.LBB799:
 352              	.LBB800:
2373:../Dave/Generated/UCPROBE/probe_com.c ****     ix_rd   = pbuf->IxRd;
 353              	 .loc 1 2373 0
 354 0010 FFF7FEFF 	 bl CPU_SR_Save
 355              	.LVL27:
2374:../Dave/Generated/UCPROBE/probe_com.c ****     ix_wr   = pbuf->IxWr;
 356              	 .loc 1 2374 0
 357 0014 2C4F     	 ldr r7,.L43
2373:../Dave/Generated/UCPROBE/probe_com.c ****     ix_rd   = pbuf->IxRd;
 358              	 .loc 1 2373 0
 359 0016 8046     	 mov r8,r0
 360              	.LVL28:
2375:../Dave/Generated/UCPROBE/probe_com.c ****     len_buf = pbuf->Len;
 361              	 .loc 1 2375 0
 362 0018 BB68     	 ldr r3,[r7,#8]
2374:../Dave/Generated/UCPROBE/probe_com.c ****     ix_wr   = pbuf->IxWr;
 363              	 .loc 1 2374 0
 364 001a 7C68     	 ldr r4,[r7,#4]
 365              	.LVL29:
2375:../Dave/Generated/UCPROBE/probe_com.c ****     len_buf = pbuf->Len;
 366              	 .loc 1 2375 0
 367 001c 9946     	 mov r9,r3
 368              	.LVL30:
2376:../Dave/Generated/UCPROBE/probe_com.c **** 
 369              	 .loc 1 2376 0
 370 001e 3D68     	 ldr r5,[r7]
 371              	.LVL31:
2378:../Dave/Generated/UCPROBE/probe_com.c ****         CPU_CRITICAL_EXIT();
 372              	 .loc 1 2378 0
 373 0020 9C42     	 cmp r4,r3
 374 0022 49D0     	 beq .L39
2386:../Dave/Generated/UCPROBE/probe_com.c ****         cnt_full = ix_wr - ix_rd;
 375              	 .loc 1 2386 0
 376 0024 1BD2     	 bcs .L28
 377              	.LVL32:
2392:../Dave/Generated/UCPROBE/probe_com.c ****     Mem_Copy((void *)pdest, (void *)&pbuf->DataPtr[ix_rd], cnt_copy);
 378              	 .loc 1 2392 0
 379 0026 5646     	 mov r6,r10
2387:../Dave/Generated/UCPROBE/probe_com.c ****     } else {                                                    /* Get str at buf interval [rd_ix, 
 380              	 .loc 1 2387 0
 381 0028 1B1B     	 sub r3,r3,r4
 382              	.LVL33:
2392:../Dave/Generated/UCPROBE/probe_com.c ****     Mem_Copy((void *)pdest, (void *)&pbuf->DataPtr[ix_rd], cnt_copy);
 383              	 .loc 1 2392 0
 384 002a 9E42     	 cmp r6,r3
 385 002c 00D9     	 bls .L29
 386 002e 1E1C     	 mov r6,r3
 387              	.L29:
 388              	.LVL34:
2393:../Dave/Generated/UCPROBE/probe_com.c **** 
 389              	 .loc 1 2393 0
 390 0030 FB68     	 ldr r3,[r7,#12]
 391              	.LVL35:
 392 0032 5846     	 mov r0,fp
 393              	.LVL36:
 394 0034 1919     	 add r1,r3,r4
 395 0036 321C     	 mov r2,r6
 396 0038 FFF7FEFF 	 bl Mem_Copy
 397              	.LVL37:
 398              	.L30:
2397:../Dave/Generated/UCPROBE/probe_com.c ****         if (ix_rd == len_buf) {
 399              	 .loc 1 2397 0
 400 003c 3419     	 add r4,r6,r4
 401              	.LVL38:
2399:../Dave/Generated/UCPROBE/probe_com.c ****         } else {
 402              	 .loc 1 2399 0
 403 003e 2D1B     	 sub r5,r5,r4
 404              	.LVL39:
 405 0040 6B1E     	 sub r3,r5,#1
 406 0042 9D41     	 sbc r5,r5,r3
 407 0044 6D42     	 neg r5,r5
2403:../Dave/Generated/UCPROBE/probe_com.c **** 
 408              	 .loc 1 2403 0
 409 0046 4046     	 mov r0,r8
2399:../Dave/Generated/UCPROBE/probe_com.c ****         } else {
 410              	 .loc 1 2399 0
 411 0048 2C40     	 and r4,r5
 412              	.LVL40:
 413 004a 7C60     	 str r4,[r7,#4]
2403:../Dave/Generated/UCPROBE/probe_com.c **** 
 414              	 .loc 1 2403 0
 415 004c FFF7FEFF 	 bl CPU_SR_Restore
 416              	.LVL41:
 417 0050 301C     	 mov r0,r6
 418              	.LVL42:
 419              	.L27:
 420              	.LBE800:
 421              	.LBE799:
 459:../Dave/Generated/UCPROBE/probe_com.c **** #endif
 422              	 .loc 1 459 0
 423              	 
 424              	.LVL43:
 425              	.LVL44:
 426              	.LVL45:
 427 0052 3CBC     	 pop {r2,r3,r4,r5}
 428 0054 9046     	 mov r8,r2
 429 0056 9946     	 mov r9,r3
 430 0058 A246     	 mov r10,r4
 431 005a AB46     	 mov fp,r5
 432 005c F8BD     	 pop {r3,r4,r5,r6,r7,pc}
 433              	.LVL46:
 434              	.L28:
 435              	.LBB802:
 436              	.LBB801:
2389:../Dave/Generated/UCPROBE/probe_com.c ****     }
 437              	 .loc 1 2389 0
 438 005e 2B1B     	 sub r3,r5,r4
 439              	.LVL47:
2392:../Dave/Generated/UCPROBE/probe_com.c ****     Mem_Copy((void *)pdest, (void *)&pbuf->DataPtr[ix_rd], cnt_copy);
 440              	 .loc 1 2392 0
 441 0060 5646     	 mov r6,r10
 442 0062 9A45     	 cmp r10,r3
 443 0064 00D9     	 bls .L31
 444              	.LVL48:
 445 0066 1E1C     	 mov r6,r3
 446              	.LVL49:
 447              	.L31:
2393:../Dave/Generated/UCPROBE/probe_com.c **** 
 448              	 .loc 1 2393 0
 449 0068 FB68     	 ldr r3,[r7,#12]
 450              	.LVL50:
 451 006a 5846     	 mov r0,fp
 452              	.LVL51:
 453 006c 1919     	 add r1,r3,r4
 454 006e 321C     	 mov r2,r6
 455 0070 FFF7FEFF 	 bl Mem_Copy
 456              	.LVL52:
2396:../Dave/Generated/UCPROBE/probe_com.c ****         ix_rd += cnt_copy;
 457              	 .loc 1 2396 0
 458 0074 4B46     	 mov r3,r9
 459 0076 002B     	 cmp r3,#0
 460 0078 E0D0     	 beq .L30
 461              	.LVL53:
2413:../Dave/Generated/UCPROBE/probe_com.c ****     cnt_copy  = DEF_MIN(ix_wr, cnt_rem);
 462              	 .loc 1 2413 0
 463 007a 5346     	 mov r3,r10
 464              	.LVL54:
 465 007c 9B1B     	 sub r3,r3,r6
 466 007e 9A46     	 mov r10,r3
 467              	.LVL55:
2414:../Dave/Generated/UCPROBE/probe_com.c **** 
 468              	 .loc 1 2414 0
 469 0080 4B45     	 cmp r3,r9
 470 0082 0CD8     	 bhi .L40
 471              	.LVL56:
2416:../Dave/Generated/UCPROBE/probe_com.c ****                                                                 /* Copy data.                      
 472              	 .loc 1 2416 0
 473 0084 5346     	 mov r3,r10
 474 0086 002B     	 cmp r3,#0
 475 0088 0DD1     	 bne .L41
 476              	.L35:
2411:../Dave/Generated/UCPROBE/probe_com.c ****     pdest    += cnt_copy;                                       /* Adj buf ptr.                    
 477              	 .loc 1 2411 0
 478 008a 3419     	 add r4,r6,r4
 479              	.LVL57:
2421:../Dave/Generated/UCPROBE/probe_com.c ****             pbuf->IxRd = 0u;
 480              	 .loc 1 2421 0
 481 008c A542     	 cmp r5,r4
 482 008e 17D0     	 beq .L42
2424:../Dave/Generated/UCPROBE/probe_com.c ****         }
 483              	 .loc 1 2424 0
 484 0090 7C60     	 str r4,[r7,#4]
 485              	.L36:
2427:../Dave/Generated/UCPROBE/probe_com.c **** 
 486              	 .loc 1 2427 0
 487 0092 4046     	 mov r0,r8
 488 0094 FFF7FEFF 	 bl CPU_SR_Restore
 489              	.LVL58:
2429:../Dave/Generated/UCPROBE/probe_com.c **** }
 490              	 .loc 1 2429 0
 491 0098 301C     	 mov r0,r6
 492 009a 5044     	 add r0,r0,r10
 493 009c D9E7     	 b .L27
 494              	.LVL59:
 495              	.L40:
2414:../Dave/Generated/UCPROBE/probe_com.c **** 
 496              	 .loc 1 2414 0
 497 009e CA46     	 mov r10,r9
 498              	.LVL60:
2416:../Dave/Generated/UCPROBE/probe_com.c ****                                                                 /* Copy data.                      
 499              	 .loc 1 2416 0
 500 00a0 5346     	 mov r3,r10
 501 00a2 002B     	 cmp r3,#0
 502 00a4 F1D0     	 beq .L35
 503              	.LVL61:
 504              	.L41:
2412:../Dave/Generated/UCPROBE/probe_com.c ****     cnt_rem   = len - cnt_copy;                                 /* Calc nbr data octets to copy fro
 505              	 .loc 1 2412 0
 506 00a6 5B46     	 mov r3,fp
 507              	.LVL62:
