   1              	 .cpu cortex-m0
   2              	 .fpu softvfp
   3              	 .eabi_attribute 20,1
   4              	 .eabi_attribute 21,1
   5              	 .eabi_attribute 23,3
   6              	 .eabi_attribute 24,1
   7              	 .eabi_attribute 25,1
   8              	 .eabi_attribute 26,1
   9              	 .eabi_attribute 30,2
  10              	 .eabi_attribute 34,0
  11              	 .eabi_attribute 18,4
  12              	 .code 16
  13              	 .file "xmc_math.c"
  14              	 .text
  15              	.Ltext0:
  16              	 .cfi_sections .debug_frame
  17              	 .section .text.XMC_MATH_DIV_IsBusy,"ax",%progbits
  18              	 .align 2
  19              	 .global XMC_MATH_DIV_IsBusy
  20              	 .code 16
  21              	 .thumb_func
  23              	XMC_MATH_DIV_IsBusy:
  24              	.LFB67:
  25              	 .file 1 "../Libraries/XMCLib/src/xmc_math.c"
   1:../Libraries/XMCLib/src/xmc_math.c **** 
   2:../Libraries/XMCLib/src/xmc_math.c **** /**
   3:../Libraries/XMCLib/src/xmc_math.c ****  * @file xmc_math.c
   4:../Libraries/XMCLib/src/xmc_math.c ****  * @date 2017-04-20
   5:../Libraries/XMCLib/src/xmc_math.c ****  *
   6:../Libraries/XMCLib/src/xmc_math.c ****  * @cond
   7:../Libraries/XMCLib/src/xmc_math.c ****  **********************************************************************************
   8:../Libraries/XMCLib/src/xmc_math.c ****  * XMClib v2.1.16 - XMC Peripheral Driver Library 
   9:../Libraries/XMCLib/src/xmc_math.c ****  *
  10:../Libraries/XMCLib/src/xmc_math.c ****  * Copyright (c) 2015-2017, Infineon Technologies AG
  11:../Libraries/XMCLib/src/xmc_math.c ****  * All rights reserved.                        
  12:../Libraries/XMCLib/src/xmc_math.c ****  *                                             
  13:../Libraries/XMCLib/src/xmc_math.c ****  * Redistribution and use in source and binary forms, with or without           
  14:../Libraries/XMCLib/src/xmc_math.c ****  * modification,are permitted provided that the following conditions are met:   
  15:../Libraries/XMCLib/src/xmc_math.c ****  *                                                                              
  16:../Libraries/XMCLib/src/xmc_math.c ****  *   Redistributions of source code must retain the above copyright notice,      
  17:../Libraries/XMCLib/src/xmc_math.c ****  *   this list of conditions and the following disclaimer.                        
  18:../Libraries/XMCLib/src/xmc_math.c ****  * 
  19:../Libraries/XMCLib/src/xmc_math.c ****  *   Redistributions in binary form must reproduce the above copyright notice,   
  20:../Libraries/XMCLib/src/xmc_math.c ****  *   this list of conditions and the following disclaimer in the documentation    
  21:../Libraries/XMCLib/src/xmc_math.c ****  *   and/or other materials provided with the distribution.                       
  22:../Libraries/XMCLib/src/xmc_math.c ****  * 
  23:../Libraries/XMCLib/src/xmc_math.c ****  *   Neither the name of the copyright holders nor the names of its contributors 
  24:../Libraries/XMCLib/src/xmc_math.c ****  *   may be used to endorse or promote products derived from this software without
  25:../Libraries/XMCLib/src/xmc_math.c ****  *   specific prior written permission.                                           
  26:../Libraries/XMCLib/src/xmc_math.c ****  *                                                                              
  27:../Libraries/XMCLib/src/xmc_math.c ****  * THIS SOFTWARE IS PROVIDED BY THE COPYRIGHT HOLDERS AND CONTRIBUTORS "AS IS"  
  28:../Libraries/XMCLib/src/xmc_math.c ****  * AND ANY EXPRESS OR IMPLIED WARRANTIES, INCLUDING, BUT NOT LIMITED TO, THE    
  29:../Libraries/XMCLib/src/xmc_math.c ****  * IMPLIED WARRANTIES OF MERCHANTABILITY AND FITNESS FOR A PARTICULAR PURPOSE   
  30:../Libraries/XMCLib/src/xmc_math.c ****  * ARE  DISCLAIMED. IN NO EVENT SHALL THE COPYRIGHT HOLDER OR CONTRIBUTORS BE   
  31:../Libraries/XMCLib/src/xmc_math.c ****  * LIABLE  FOR ANY DIRECT, INDIRECT, INCIDENTAL, SPECIAL, EXEMPLARY, OR         
  32:../Libraries/XMCLib/src/xmc_math.c ****  * CONSEQUENTIAL DAMAGES (INCLUDING, BUT NOT LIMITED TO, PROCUREMENT OF         
  33:../Libraries/XMCLib/src/xmc_math.c ****  * SUBSTITUTE GOODS OR  SERVICES; LOSS OF USE, DATA, OR PROFITS; OR BUSINESS    
  34:../Libraries/XMCLib/src/xmc_math.c ****  * INTERRUPTION) HOWEVER CAUSED AND ON ANY THEORY OF LIABILITY, WHETHER IN      
  35:../Libraries/XMCLib/src/xmc_math.c ****  * CONTRACT, STRICT LIABILITY,OR TORT (INCLUDING NEGLIGENCE OR OTHERWISE)       
  36:../Libraries/XMCLib/src/xmc_math.c ****  * ARISING IN ANY WAY OUT OF THE USE OF THIS SOFTWARE, EVEN IF ADVISED OF THE   
  37:../Libraries/XMCLib/src/xmc_math.c ****  * POSSIBILITY OF SUCH DAMAGE.                                                  
  38:../Libraries/XMCLib/src/xmc_math.c ****  *                                                                              
  39:../Libraries/XMCLib/src/xmc_math.c ****  * To improve the quality of the software, users are encouraged to share        
  40:../Libraries/XMCLib/src/xmc_math.c ****  * modifications, enhancements or bug fixes with Infineon Technologies AG       
  41:../Libraries/XMCLib/src/xmc_math.c ****  * dave@infineon.com).                                                          
  42:../Libraries/XMCLib/src/xmc_math.c ****  **********************************************************************************
  43:../Libraries/XMCLib/src/xmc_math.c ****  *
  44:../Libraries/XMCLib/src/xmc_math.c ****  * Change History
  45:../Libraries/XMCLib/src/xmc_math.c ****  * --------------
  46:../Libraries/XMCLib/src/xmc_math.c ****  *
  47:../Libraries/XMCLib/src/xmc_math.c ****  * 2015-06-20: 
  48:../Libraries/XMCLib/src/xmc_math.c ****  *     - Removed version macros and declaration of GetDriverVersion API <br>
  49:../Libraries/XMCLib/src/xmc_math.c ****  *     - Updated copyright and change history section.
  50:../Libraries/XMCLib/src/xmc_math.c ****  *
  51:../Libraries/XMCLib/src/xmc_math.c ****  * 2015-09-23: 
  52:../Libraries/XMCLib/src/xmc_math.c ****  *     - Added SQRT functions
  53:../Libraries/XMCLib/src/xmc_math.c ****  *
  54:../Libraries/XMCLib/src/xmc_math.c ****  * 2015-10-08:
  55:../Libraries/XMCLib/src/xmc_math.c ****  *     - Return values for sin(), cos(), sinh(), cosh(), arctan() are corrected.
  56:../Libraries/XMCLib/src/xmc_math.c ****  *
  57:../Libraries/XMCLib/src/xmc_math.c ****  * 2017-04-20:
  58:../Libraries/XMCLib/src/xmc_math.c ****  *     - Foward declaration of __aeabi_* to fix link time optimization (-flto) compilation errors
  59:../Libraries/XMCLib/src/xmc_math.c ****  * 
  60:../Libraries/XMCLib/src/xmc_math.c ****  * @endcond
  61:../Libraries/XMCLib/src/xmc_math.c ****  *
  62:../Libraries/XMCLib/src/xmc_math.c ****  */
  63:../Libraries/XMCLib/src/xmc_math.c **** 
  64:../Libraries/XMCLib/src/xmc_math.c **** /**
  65:../Libraries/XMCLib/src/xmc_math.c ****  *
  66:../Libraries/XMCLib/src/xmc_math.c ****  * @brief MATH driver - API implementation for XMC13 family MATH libraries. <br>
  67:../Libraries/XMCLib/src/xmc_math.c ****  * 
  68:../Libraries/XMCLib/src/xmc_math.c ****  * <b>Detailed description of file</b> <br>
  69:../Libraries/XMCLib/src/xmc_math.c ****  * APIs provided in this file cover the following functional blocks of MATH: <br>
  70:../Libraries/XMCLib/src/xmc_math.c ****  *
  71:../Libraries/XMCLib/src/xmc_math.c ****  */
  72:../Libraries/XMCLib/src/xmc_math.c **** 
  73:../Libraries/XMCLib/src/xmc_math.c **** /**************************************************************************************************
  74:../Libraries/XMCLib/src/xmc_math.c ****  * HEADER FILES
  75:../Libraries/XMCLib/src/xmc_math.c ****  **************************************************************************************************
  76:../Libraries/XMCLib/src/xmc_math.c **** #include <xmc_math.h>
  77:../Libraries/XMCLib/src/xmc_math.c **** 
  78:../Libraries/XMCLib/src/xmc_math.c **** #if defined (MATH)
  79:../Libraries/XMCLib/src/xmc_math.c **** /**************************************************************************************************
  80:../Libraries/XMCLib/src/xmc_math.c ****  * MACROS
  81:../Libraries/XMCLib/src/xmc_math.c ****  **************************************************************************************************
  82:../Libraries/XMCLib/src/xmc_math.c **** /* Reciprocal of Circular gain in XMC_MATH_Q0_23_t format ((2^23)/1.646760258121) */
  83:../Libraries/XMCLib/src/xmc_math.c **** #define XMC_MATH_RECIPROC_CIRCULAR_GAIN_IN_Q023       (0x4DBA76U)
  84:../Libraries/XMCLib/src/xmc_math.c **** /* Reciprocal of Hyperbolic gain in XMC_MATH_Q1_22_t format ((2^22)/0.828159360960) */
  85:../Libraries/XMCLib/src/xmc_math.c **** #define XMC_MATH_RECIPROC_HYPERBOLIC_GAIN_IN_Q1_22    (0x4D47A1U)
  86:../Libraries/XMCLib/src/xmc_math.c **** /* Signed division is selected */
  87:../Libraries/XMCLib/src/xmc_math.c **** #define XMC_MATH_SIGNED_DIVISION                      ((uint32_t) 0 << MATH_DIVCON_USIGN_Pos)
  88:../Libraries/XMCLib/src/xmc_math.c **** /* Unsigned division is selected */
  89:../Libraries/XMCLib/src/xmc_math.c **** #define XMC_MATH_UNSIGNED_DIVISION                    ((uint32_t) 1 << MATH_DIVCON_USIGN_Pos)
  90:../Libraries/XMCLib/src/xmc_math.c **** 
  91:../Libraries/XMCLib/src/xmc_math.c **** /**************************************************************************************************
  92:../Libraries/XMCLib/src/xmc_math.c ****  * ENUMS
  93:../Libraries/XMCLib/src/xmc_math.c ****  **************************************************************************************************
  94:../Libraries/XMCLib/src/xmc_math.c **** 
  95:../Libraries/XMCLib/src/xmc_math.c **** /**************************************************************************************************
  96:../Libraries/XMCLib/src/xmc_math.c ****  * GLOBAL DATA
  97:../Libraries/XMCLib/src/xmc_math.c ****  **************************************************************************************************
  98:../Libraries/XMCLib/src/xmc_math.c **** 
  99:../Libraries/XMCLib/src/xmc_math.c **** /**************************************************************************************************
 100:../Libraries/XMCLib/src/xmc_math.c ****  * DATA STRUCTURES
 101:../Libraries/XMCLib/src/xmc_math.c ****  **************************************************************************************************
 102:../Libraries/XMCLib/src/xmc_math.c **** 
 103:../Libraries/XMCLib/src/xmc_math.c **** /**************************************************************************************************
 104:../Libraries/XMCLib/src/xmc_math.c ****  * LOCAL ROUTINES
 105:../Libraries/XMCLib/src/xmc_math.c ****  **************************************************************************************************
 106:../Libraries/XMCLib/src/xmc_math.c **** 
 107:../Libraries/XMCLib/src/xmc_math.c **** /**************************************************************************************************
 108:../Libraries/XMCLib/src/xmc_math.c ****  * API IMPLEMENTATION - Utility functions
 109:../Libraries/XMCLib/src/xmc_math.c ****  **************************************************************************************************
 110:../Libraries/XMCLib/src/xmc_math.c **** 
 111:../Libraries/XMCLib/src/xmc_math.c **** /* Utility function to check if the DIV unit is busy */
 112:../Libraries/XMCLib/src/xmc_math.c **** bool XMC_MATH_DIV_IsBusy(void)
 113:../Libraries/XMCLib/src/xmc_math.c **** {
  26              	 .loc 1 113 0
  27              	 .cfi_startproc
 114:../Libraries/XMCLib/src/xmc_math.c ****   bool status;
 115:../Libraries/XMCLib/src/xmc_math.c ****   if (MATH->DIVST & MATH_DIVST_BSY_Msk)
 116:../Libraries/XMCLib/src/xmc_math.c ****   {
 117:../Libraries/XMCLib/src/xmc_math.c ****     status = true;  /* DIV unit is busy running a division operation */ 
 118:../Libraries/XMCLib/src/xmc_math.c ****   }
 119:../Libraries/XMCLib/src/xmc_math.c ****   else
 120:../Libraries/XMCLib/src/xmc_math.c ****   {
 121:../Libraries/XMCLib/src/xmc_math.c ****     status = false; /* DIV unit is idle */ 
 122:../Libraries/XMCLib/src/xmc_math.c ****   }
 123:../Libraries/XMCLib/src/xmc_math.c **** 
 124:../Libraries/XMCLib/src/xmc_math.c ****   return (status);
  28              	 .loc 1 124 0
  29 0000 0120     	 mov r0,#1
 115:../Libraries/XMCLib/src/xmc_math.c ****   {
  30              	 .loc 1 115 0
  31 0002 024B     	 ldr r3,.L2
 125:../Libraries/XMCLib/src/xmc_math.c **** }
  32              	 .loc 1 125 0
  33              	 
 115:../Libraries/XMCLib/src/xmc_math.c ****   {
  34              	 .loc 1 115 0
  35 0004 1B6B     	 ldr r3,[r3,#48]
  36              	.LVL0:
 124:../Libraries/XMCLib/src/xmc_math.c **** }
  37              	 .loc 1 124 0
  38 0006 1840     	 and r0,r3
  39              	 .loc 1 125 0
  40 0008 7047     	 bx lr
  41              	.L3:
  42 000a C046     	 .align 2
  43              	.L2:
  44 000c 00000340 	 .word 1073938432
  45              	 .cfi_endproc
  46              	.LFE67:
  48              	 .section .text.XMC_MATH_CORDIC_IsBusy,"ax",%progbits
  49              	 .align 2
  50              	 .global XMC_MATH_CORDIC_IsBusy
  51              	 .code 16
  52              	 .thumb_func
  54              	XMC_MATH_CORDIC_IsBusy:
  55              	.LFB68:
 126:../Libraries/XMCLib/src/xmc_math.c **** 
 127:../Libraries/XMCLib/src/xmc_math.c **** /* Utility function to check if the CORDIC unit is busy */
 128:../Libraries/XMCLib/src/xmc_math.c **** bool XMC_MATH_CORDIC_IsBusy(void)
 129:../Libraries/XMCLib/src/xmc_math.c **** {
  56              	 .loc 1 129 0
  57              	 .cfi_startproc
 130:../Libraries/XMCLib/src/xmc_math.c ****   bool status;
 131:../Libraries/XMCLib/src/xmc_math.c ****   if (MATH->STATC & MATH_STATC_BSY_Msk)
 132:../Libraries/XMCLib/src/xmc_math.c ****   {
 133:../Libraries/XMCLib/src/xmc_math.c ****     status = true;  /* CORDIC unit is busy running an operation */  
 134:../Libraries/XMCLib/src/xmc_math.c ****   }
 135:../Libraries/XMCLib/src/xmc_math.c ****   else
 136:../Libraries/XMCLib/src/xmc_math.c ****   {
 137:../Libraries/XMCLib/src/xmc_math.c ****     status = false; /* CORDIC unit is idle */   
 138:../Libraries/XMCLib/src/xmc_math.c ****   }
 139:../Libraries/XMCLib/src/xmc_math.c **** 
 140:../Libraries/XMCLib/src/xmc_math.c ****   return (status);
  58              	 .loc 1 140 0
  59 0000 0120     	 mov r0,#1
 131:../Libraries/XMCLib/src/xmc_math.c ****   {
  60              	 .loc 1 131 0
  61 0002 024B     	 ldr r3,.L5
 141:../Libraries/XMCLib/src/xmc_math.c **** }
  62              	 .loc 1 141 0
  63              	 
 131:../Libraries/XMCLib/src/xmc_math.c ****   {
  64              	 .loc 1 131 0
  65 0004 1B6C     	 ldr r3,[r3,#64]
  66              	.LVL1:
 140:../Libraries/XMCLib/src/xmc_math.c **** }
  67              	 .loc 1 140 0
  68 0006 1840     	 and r0,r3
  69              	 .loc 1 141 0
  70 0008 7047     	 bx lr
  71              	.L6:
  72 000a C046     	 .align 2
  73              	.L5:
  74 000c 00000340 	 .word 1073938432
  75              	 .cfi_endproc
  76              	.LFE68:
  78              	 .section .text.XMC_MATH_GetEventStatus,"ax",%progbits
  79              	 .align 2
  80              	 .global XMC_MATH_GetEventStatus
  81              	 .code 16
  82              	 .thumb_func
  84              	XMC_MATH_GetEventStatus:
  85              	.LFB69:
 142:../Libraries/XMCLib/src/xmc_math.c **** 
 143:../Libraries/XMCLib/src/xmc_math.c **** /* This functions returns the status of a requested event */
 144:../Libraries/XMCLib/src/xmc_math.c **** bool XMC_MATH_GetEventStatus(const XMC_MATH_EVENT_t event)
 145:../Libraries/XMCLib/src/xmc_math.c **** {
  86              	 .loc 1 145 0
  87              	 .cfi_startproc
  88              	.LVL2:
 146:../Libraries/XMCLib/src/xmc_math.c ****   bool status;
 147:../Libraries/XMCLib/src/xmc_math.c ****   if (MATH->EVFR & (uint32_t) event)
  89              	 .loc 1 147 0
  90 0000 034B     	 ldr r3,.L8
 148:../Libraries/XMCLib/src/xmc_math.c ****   {
 149:../Libraries/XMCLib/src/xmc_math.c ****     status = true; /* Requested event has been detected */
 150:../Libraries/XMCLib/src/xmc_math.c ****   }
 151:../Libraries/XMCLib/src/xmc_math.c ****   else
 152:../Libraries/XMCLib/src/xmc_math.c ****   {
 153:../Libraries/XMCLib/src/xmc_math.c ****     status = false; /* Requested event has not been detected */
 154:../Libraries/XMCLib/src/xmc_math.c ****   }
 155:../Libraries/XMCLib/src/xmc_math.c ****   return (status);
 156:../Libraries/XMCLib/src/xmc_math.c **** }
  91              	 .loc 1 156 0
  92              	 
 147:../Libraries/XMCLib/src/xmc_math.c ****   {
  93              	 .loc 1 147 0
  94 0002 1B69     	 ldr r3,[r3,#16]
  95              	.LVL3:
  96 0004 1840     	 and r0,r3
  97              	.LVL4:
  98 0006 431E     	 sub r3,r0,#1
  99 0008 9841     	 sbc r0,r0,r3
 100              	.LVL5:
 155:../Libraries/XMCLib/src/xmc_math.c **** }
 101              	 .loc 1 155 0
 102 000a C0B2     	 uxtb r0,r0
 103              	 .loc 1 156 0
 104 000c 7047     	 bx lr
 105              	.L9:
 106 000e C046     	 .align 2
 107              	.L8:
 108 0010 00000340 	 .word 1073938432
 109              	 .cfi_endproc
 110              	.LFE69:
 112              	 .section .text.__aeabi_uidiv,"ax",%progbits
 113              	 .align 2
 114              	 .global __aeabi_uidiv
 115              	 .code 16
 116              	 .thumb_func
 118              	__aeabi_uidiv:
 119              	.LFB70:
 157:../Libraries/XMCLib/src/xmc_math.c **** 
 158:../Libraries/XMCLib/src/xmc_math.c **** #ifndef XMC_MATH_DISABLE_DIV_ABI
 159:../Libraries/XMCLib/src/xmc_math.c **** 
 160:../Libraries/XMCLib/src/xmc_math.c **** /* Forward prototypes.  */
 161:../Libraries/XMCLib/src/xmc_math.c **** uint32_t __aeabi_uidiv(uint32_t dividend, uint32_t divisor) __attribute__((externally_visible));
 162:../Libraries/XMCLib/src/xmc_math.c **** int32_t __aeabi_idiv(int32_t dividend, int32_t divisor) __attribute__((externally_visible));
 163:../Libraries/XMCLib/src/xmc_math.c **** uint64_t __aeabi_uidivmod(uint32_t dividend, uint32_t divisor) __attribute__((externally_visible));
 164:../Libraries/XMCLib/src/xmc_math.c **** int64_t __aeabi_idivmod(int32_t dividend, int32_t divisor) __attribute__((externally_visible));
 165:../Libraries/XMCLib/src/xmc_math.c **** 
 166:../Libraries/XMCLib/src/xmc_math.c **** /**************************************************************************************************
 167:../Libraries/XMCLib/src/xmc_math.c ****  * API IMPLEMENTATION - aeabi routines
 168:../Libraries/XMCLib/src/xmc_math.c ****  **************************************************************************************************
 169:../Libraries/XMCLib/src/xmc_math.c **** /* This function performs unsigned integer division */
 170:../Libraries/XMCLib/src/xmc_math.c **** uint32_t __aeabi_uidiv(uint32_t dividend, uint32_t divisor)
 171:../Libraries/XMCLib/src/xmc_math.c **** {
 120              	 .loc 1 171 0
 121              	 .cfi_startproc
 122              	.LVL6:
 172:../Libraries/XMCLib/src/xmc_math.c ****   MATH->DIVCON  = XMC_MATH_UNSIGNED_DIVISION;
 123              	 .loc 1 172 0
 124 0000 0422     	 mov r2,#4
 125 0002 034B     	 ldr r3,.L11
 173:../Libraries/XMCLib/src/xmc_math.c ****   MATH->DVD     = dividend;
 174:../Libraries/XMCLib/src/xmc_math.c ****   MATH->DVS     = divisor;
 175:../Libraries/XMCLib/src/xmc_math.c **** 
 176:../Libraries/XMCLib/src/xmc_math.c ****   return ((uint32_t) MATH->QUOT);
 177:../Libraries/XMCLib/src/xmc_math.c **** }
 126              	 .loc 1 177 0
 127              	 
 172:../Libraries/XMCLib/src/xmc_math.c ****   MATH->DIVCON  = XMC_MATH_UNSIGNED_DIVISION;
 128              	 .loc 1 172 0
 129 0004 5A63     	 str r2,[r3,#52]
 173:../Libraries/XMCLib/src/xmc_math.c ****   MATH->DVD     = dividend;
 130              	 .loc 1 173 0
 131 0006 1862     	 str r0,[r3,#32]
 174:../Libraries/XMCLib/src/xmc_math.c **** 
 132              	 .loc 1 174 0
 133 0008 5962     	 str r1,[r3,#36]
 176:../Libraries/XMCLib/src/xmc_math.c **** }
 134              	 .loc 1 176 0
 135 000a 986A     	 ldr r0,[r3,#40]
 136              	.LVL7:
 137              	 .loc 1 177 0
 138 000c 7047     	 bx lr
 139              	.L12:
 140 000e C046     	 .align 2
 141              	.L11:
 142 0010 00000340 	 .word 1073938432
 143              	 .cfi_endproc
 144              	.LFE70:
 146              	 .section .text.__aeabi_idiv,"ax",%progbits
 147              	 .align 2
 148              	 .global __aeabi_idiv
 149              	 .code 16
 150              	 .thumb_func
 152              	__aeabi_idiv:
 153              	.LFB71:
 178:../Libraries/XMCLib/src/xmc_math.c **** 
 179:../Libraries/XMCLib/src/xmc_math.c **** /* This function performs signed integer division */
 180:../Libraries/XMCLib/src/xmc_math.c **** int32_t __aeabi_idiv(int32_t dividend, int32_t divisor)
 181:../Libraries/XMCLib/src/xmc_math.c **** {
 154              	 .loc 1 181 0
 155              	 .cfi_startproc
 156              	.LVL8:
 182:../Libraries/XMCLib/src/xmc_math.c ****   MATH->DIVCON  = XMC_MATH_SIGNED_DIVISION;
 157              	 .loc 1 182 0
 158 0000 0022     	 mov r2,#0
 159 0002 034B     	 ldr r3,.L14
 183:../Libraries/XMCLib/src/xmc_math.c ****   MATH->DVD     = dividend;
 184:../Libraries/XMCLib/src/xmc_math.c ****   MATH->DVS     = divisor;
 185:../Libraries/XMCLib/src/xmc_math.c **** 
 186:../Libraries/XMCLib/src/xmc_math.c ****   return ((int32_t) MATH->QUOT);
 187:../Libraries/XMCLib/src/xmc_math.c **** }
 160              	 .loc 1 187 0
 161              	 
 182:../Libraries/XMCLib/src/xmc_math.c ****   MATH->DIVCON  = XMC_MATH_SIGNED_DIVISION;
 162              	 .loc 1 182 0
 163 0004 5A63     	 str r2,[r3,#52]
 183:../Libraries/XMCLib/src/xmc_math.c ****   MATH->DVD     = dividend;
 164              	 .loc 1 183 0
 165 0006 1862     	 str r0,[r3,#32]
 184:../Libraries/XMCLib/src/xmc_math.c **** 
 166              	 .loc 1 184 0
 167 0008 5962     	 str r1,[r3,#36]
 186:../Libraries/XMCLib/src/xmc_math.c **** }
 168              	 .loc 1 186 0
 169 000a 986A     	 ldr r0,[r3,#40]
 170              	.LVL9:
 171              	 .loc 1 187 0
 172 000c 7047     	 bx lr
 173              	.L15:
 174 000e C046     	 .align 2
 175              	.L14:
 176 0010 00000340 	 .word 1073938432
 177              	 .cfi_endproc
 178              	.LFE71:
 180              	 .section .text.__aeabi_uidivmod,"ax",%progbits
 181              	 .align 2
 182              	 .global __aeabi_uidivmod
 183              	 .code 16
 184              	 .thumb_func
 186              	__aeabi_uidivmod:
 187              	.LFB72:
 188:../Libraries/XMCLib/src/xmc_math.c **** 
 189:../Libraries/XMCLib/src/xmc_math.c **** /* This function performs unsigned integer division modulo */
 190:../Libraries/XMCLib/src/xmc_math.c **** uint64_t __aeabi_uidivmod(uint32_t dividend, uint32_t divisor)
 191:../Libraries/XMCLib/src/xmc_math.c **** {
 188              	 .loc 1 191 0
 189              	 .cfi_startproc
 190              	.LVL10:
 192:../Libraries/XMCLib/src/xmc_math.c ****   uint64_t remainder;
 193:../Libraries/XMCLib/src/xmc_math.c **** 
 194:../Libraries/XMCLib/src/xmc_math.c ****   MATH->DIVCON  = XMC_MATH_UNSIGNED_DIVISION;
 191              	 .loc 1 194 0
 192 0000 0422     	 mov r2,#4
 193 0002 034B     	 ldr r3,.L17
 195:../Libraries/XMCLib/src/xmc_math.c ****   MATH->DVD     = dividend;
 196:../Libraries/XMCLib/src/xmc_math.c ****   MATH->DVS     = divisor;
 197:../Libraries/XMCLib/src/xmc_math.c **** 
 198:../Libraries/XMCLib/src/xmc_math.c ****   remainder = ((uint64_t) MATH->RMD) << 32U;
 199:../Libraries/XMCLib/src/xmc_math.c ****   return (remainder | MATH->QUOT);
 200:../Libraries/XMCLib/src/xmc_math.c **** }
 194              	 .loc 1 200 0
 195              	 
 194:../Libraries/XMCLib/src/xmc_math.c ****   MATH->DVD     = dividend;
 196              	 .loc 1 194 0
 197 0004 5A63     	 str r2,[r3,#52]
 195:../Libraries/XMCLib/src/xmc_math.c ****   MATH->DVD     = dividend;
 198              	 .loc 1 195 0
 199 0006 1862     	 str r0,[r3,#32]
 196:../Libraries/XMCLib/src/xmc_math.c **** 
 200              	 .loc 1 196 0
 201 0008 5962     	 str r1,[r3,#36]
 198:../Libraries/XMCLib/src/xmc_math.c ****   return (remainder | MATH->QUOT);
 202              	 .loc 1 198 0
 203 000a D96A     	 ldr r1,[r3,#44]
 204              	.LVL11:
 199:../Libraries/XMCLib/src/xmc_math.c **** }
 205              	 .loc 1 199 0
 206 000c 986A     	 ldr r0,[r3,#40]
 207              	.LVL12:
 208              	 .loc 1 200 0
 209 000e 7047     	 bx lr
 210              	.L18:
 211              	 .align 2
 212              	.L17:
 213 0010 00000340 	 .word 1073938432
 214              	 .cfi_endproc
 215              	.LFE72:
 217              	 .section .text.__aeabi_idivmod,"ax",%progbits
 218              	 .align 2
 219              	 .global __aeabi_idivmod
 220              	 .code 16
 221              	 .thumb_func
 223              	__aeabi_idivmod:
 224              	.LFB73:
 201:../Libraries/XMCLib/src/xmc_math.c **** 
 202:../Libraries/XMCLib/src/xmc_math.c **** /* This function performs signed integer division modulo */
 203:../Libraries/XMCLib/src/xmc_math.c **** int64_t __aeabi_idivmod(int32_t dividend, int32_t divisor)
 204:../Libraries/XMCLib/src/xmc_math.c **** {
 225              	 .loc 1 204 0
 226              	 .cfi_startproc
 227              	.LVL13:
 205:../Libraries/XMCLib/src/xmc_math.c ****   uint64_t remainder;
 206:../Libraries/XMCLib/src/xmc_math.c ****   uint64_t result;
 207:../Libraries/XMCLib/src/xmc_math.c **** 
 208:../Libraries/XMCLib/src/xmc_math.c ****   MATH->DIVCON  = XMC_MATH_SIGNED_DIVISION;
 228              	 .loc 1 208 0
 229 0000 0022     	 mov r2,#0
 230 0002 034B     	 ldr r3,.L20
 209:../Libraries/XMCLib/src/xmc_math.c ****   MATH->DVD     = dividend;
 210:../Libraries/XMCLib/src/xmc_math.c ****   MATH->DVS     = divisor;
 211:../Libraries/XMCLib/src/xmc_math.c **** 
 212:../Libraries/XMCLib/src/xmc_math.c ****   remainder = ((uint64_t) MATH->RMD) << 32U;
 213:../Libraries/XMCLib/src/xmc_math.c ****   result    = (remainder | MATH->QUOT);
 214:../Libraries/XMCLib/src/xmc_math.c ****   return ((int64_t) result);
 215:../Libraries/XMCLib/src/xmc_math.c **** }
 231              	 .loc 1 215 0
 232              	 
 208:../Libraries/XMCLib/src/xmc_math.c ****   MATH->DVD     = dividend;
 233              	 .loc 1 208 0
 234 0004 5A63     	 str r2,[r3,#52]
 209:../Libraries/XMCLib/src/xmc_math.c ****   MATH->DVD     = dividend;
 235              	 .loc 1 209 0
 236 0006 1862     	 str r0,[r3,#32]
 210:../Libraries/XMCLib/src/xmc_math.c **** 
 237              	 .loc 1 210 0
 238 0008 5962     	 str r1,[r3,#36]
 212:../Libraries/XMCLib/src/xmc_math.c ****   result    = (remainder | MATH->QUOT);
 239              	 .loc 1 212 0
 240 000a D96A     	 ldr r1,[r3,#44]
 241              	.LVL14:
 213:../Libraries/XMCLib/src/xmc_math.c ****   return ((int64_t) result);
 242              	 .loc 1 213 0
 243 000c 986A     	 ldr r0,[r3,#40]
 244              	.LVL15:
 245              	 .loc 1 215 0
 246 000e 7047     	 bx lr
 247              	.L21:
 248              	 .align 2
 249              	.L20:
 250 0010 00000340 	 .word 1073938432
 251              	 .cfi_endproc
 252              	.LFE73:
 254              	 .section .text.XMC_MATH_CORDIC_Cos,"ax",%progbits
 255              	 .align 2
 256              	 .global XMC_MATH_CORDIC_Cos
 257              	 .code 16
 258              	 .thumb_func
 260              	XMC_MATH_CORDIC_Cos:
 261              	.LFB74:
 216:../Libraries/XMCLib/src/xmc_math.c **** #endif
 217:../Libraries/XMCLib/src/xmc_math.c **** 
 218:../Libraries/XMCLib/src/xmc_math.c **** /**************************************************************************************************
 219:../Libraries/XMCLib/src/xmc_math.c ****  * API IMPLEMENTATION - Blocking functions
 220:../Libraries/XMCLib/src/xmc_math.c ****  **************************************************************************************************
 221:../Libraries/XMCLib/src/xmc_math.c **** /* This function computes the cosine of a given angle in radians */
 222:../Libraries/XMCLib/src/xmc_math.c **** XMC_MATH_Q0_23_t XMC_MATH_CORDIC_Cos(XMC_MATH_Q0_23_t angle_in_radians)
 223:../Libraries/XMCLib/src/xmc_math.c **** {
 262              	 .loc 1 223 0
 263              	 .cfi_startproc
 264              	.LVL16:
 224:../Libraries/XMCLib/src/xmc_math.c ****   int32_t result;
 225:../Libraries/XMCLib/src/xmc_math.c ****   MATH->STATC = 0U; /* Clear register */
 265              	 .loc 1 225 0
 266 0000 0022     	 mov r2,#0
 226:../Libraries/XMCLib/src/xmc_math.c ****   MATH->CON   = (uint32_t) XMC_MATH_CORDIC_OPERATING_MODE_CIRCULAR + \
 267              	 .loc 1 226 0
 268 0002 0A21     	 mov r1,#10
 225:../Libraries/XMCLib/src/xmc_math.c ****   MATH->CON   = (uint32_t) XMC_MATH_CORDIC_OPERATING_MODE_CIRCULAR + \
 269              	 .loc 1 225 0
 270 0004 054B     	 ldr r3,.L23
 227:../Libraries/XMCLib/src/xmc_math.c ****                 (uint32_t) XMC_MATH_CORDIC_ROTVEC_MODE_ROTATION;
 228:../Libraries/XMCLib/src/xmc_math.c ****   MATH->CORDZ = ((uint32_t) angle_in_radians) << MATH_CORDZ_DATA_Pos;
 271              	 .loc 1 228 0
 272 0006 0002     	 lsl r0,r0,#8
 273              	.LVL17:
 225:../Libraries/XMCLib/src/xmc_math.c ****   MATH->CON   = (uint32_t) XMC_MATH_CORDIC_OPERATING_MODE_CIRCULAR + \
 274              	 .loc 1 225 0
 275 0008 1A64     	 str r2,[r3,#64]
 226:../Libraries/XMCLib/src/xmc_math.c ****                 (uint32_t) XMC_MATH_CORDIC_ROTVEC_MODE_ROTATION;
 276              	 .loc 1 226 0
 277 000a 5964     	 str r1,[r3,#68]
 278              	 .loc 1 228 0
 279 000c 1865     	 str r0,[r3,#80]
 229:../Libraries/XMCLib/src/xmc_math.c ****   MATH->CORDY = 0U;  /* Clear register */
 280              	 .loc 1 229 0
 281 000e DA64     	 str r2,[r3,#76]
 230:../Libraries/XMCLib/src/xmc_math.c ****   MATH->CORDX = XMC_MATH_RECIPROC_CIRCULAR_GAIN_IN_Q023 << MATH_CORDX_DATA_Pos;
 282              	 .loc 1 230 0
 283 0010 034A     	 ldr r2,.L23+4
 231:../Libraries/XMCLib/src/xmc_math.c ****   result      = ((int32_t)MATH->CORRX) >> MATH_CORRX_RESULT_Pos;
 232:../Libraries/XMCLib/src/xmc_math.c ****   return ((XMC_MATH_Q0_23_t) result);
 233:../Libraries/XMCLib/src/xmc_math.c **** }
 284              	 .loc 1 233 0
 285              	 
 230:../Libraries/XMCLib/src/xmc_math.c ****   MATH->CORDX = XMC_MATH_RECIPROC_CIRCULAR_GAIN_IN_Q023 << MATH_CORDX_DATA_Pos;
 286              	 .loc 1 230 0
 287 0012 9A64     	 str r2,[r3,#72]
 231:../Libraries/XMCLib/src/xmc_math.c ****   result      = ((int32_t)MATH->CORRX) >> MATH_CORRX_RESULT_Pos;
 288              	 .loc 1 231 0
 289 0014 586D     	 ldr r0,[r3,#84]
 290              	.LVL18:
 291 0016 0012     	 asr r0,r0,#8
 292              	.LVL19:
 293              	 .loc 1 233 0
 294 0018 7047     	 bx lr
 295              	.L24:
 296 001a C046     	 .align 2
 297              	.L23:
 298 001c 00000340 	 .word 1073938432
 299 0020 0076BA4D 	 .word 1304065536
 300              	 .cfi_endproc
 301              	.LFE74:
 303              	 .section .text.XMC_MATH_CORDIC_Sin,"ax",%progbits
 304              	 .align 2
 305              	 .global XMC_MATH_CORDIC_Sin
 306              	 .code 16
 307              	 .thumb_func
 309              	XMC_MATH_CORDIC_Sin:
 310              	.LFB75:
 234:../Libraries/XMCLib/src/xmc_math.c **** 
 235:../Libraries/XMCLib/src/xmc_math.c **** /* This function computes the sine of a given angle in radians */
 236:../Libraries/XMCLib/src/xmc_math.c **** XMC_MATH_Q0_23_t XMC_MATH_CORDIC_Sin(XMC_MATH_Q0_23_t angle_in_radians)
 237:../Libraries/XMCLib/src/xmc_math.c **** {
 311              	 .loc 1 237 0
 312              	 .cfi_startproc
 313              	.LVL20:
 238:../Libraries/XMCLib/src/xmc_math.c ****   int32_t result;
 239:../Libraries/XMCLib/src/xmc_math.c ****   MATH->STATC = 0U; /* Clear register */
 314              	 .loc 1 239 0
 315 0000 0022     	 mov r2,#0
 240:../Libraries/XMCLib/src/xmc_math.c ****   MATH->CON   = (uint32_t) XMC_MATH_CORDIC_OPERATING_MODE_CIRCULAR + \
 316              	 .loc 1 240 0
 317 0002 0A21     	 mov r1,#10
 239:../Libraries/XMCLib/src/xmc_math.c ****   MATH->CON   = (uint32_t) XMC_MATH_CORDIC_OPERATING_MODE_CIRCULAR + \
 318              	 .loc 1 239 0
 319 0004 054B     	 ldr r3,.L26
 241:../Libraries/XMCLib/src/xmc_math.c ****                 (uint32_t) XMC_MATH_CORDIC_ROTVEC_MODE_ROTATION;
 242:../Libraries/XMCLib/src/xmc_math.c ****   MATH->CORDZ = ((uint32_t)angle_in_radians) << MATH_CORDZ_DATA_Pos;
 320              	 .loc 1 242 0
 321 0006 0002     	 lsl r0,r0,#8
 322              	.LVL21:
 239:../Libraries/XMCLib/src/xmc_math.c ****   MATH->CON   = (uint32_t) XMC_MATH_CORDIC_OPERATING_MODE_CIRCULAR + \
 323              	 .loc 1 239 0
 324 0008 1A64     	 str r2,[r3,#64]
 240:../Libraries/XMCLib/src/xmc_math.c ****                 (uint32_t) XMC_MATH_CORDIC_ROTVEC_MODE_ROTATION;
 325              	 .loc 1 240 0
 326 000a 5964     	 str r1,[r3,#68]
 327              	 .loc 1 242 0
 328 000c 1865     	 str r0,[r3,#80]
 243:../Libraries/XMCLib/src/xmc_math.c ****   MATH->CORDY = 0U; /* Clear register */
 329              	 .loc 1 243 0
 330 000e DA64     	 str r2,[r3,#76]
 244:../Libraries/XMCLib/src/xmc_math.c ****   MATH->CORDX = XMC_MATH_RECIPROC_CIRCULAR_GAIN_IN_Q023 << MATH_CORDX_DATA_Pos;
 331              	 .loc 1 244 0
 332 0010 034A     	 ldr r2,.L26+4
 245:../Libraries/XMCLib/src/xmc_math.c ****   result      = ((int32_t)MATH->CORRY) >> MATH_CORRY_RESULT_Pos;
 246:../Libraries/XMCLib/src/xmc_math.c ****   return ((XMC_MATH_Q0_23_t) result);
 247:../Libraries/XMCLib/src/xmc_math.c **** }
 333              	 .loc 1 247 0
 334              	 
 244:../Libraries/XMCLib/src/xmc_math.c ****   MATH->CORDX = XMC_MATH_RECIPROC_CIRCULAR_GAIN_IN_Q023 << MATH_CORDX_DATA_Pos;
 335              	 .loc 1 244 0
 336 0012 9A64     	 str r2,[r3,#72]
 245:../Libraries/XMCLib/src/xmc_math.c ****   result      = ((int32_t)MATH->CORRY) >> MATH_CORRY_RESULT_Pos;
 337              	 .loc 1 245 0
 338 0014 986D     	 ldr r0,[r3,#88]
 339              	.LVL22:
 340 0016 0012     	 asr r0,r0,#8
 341              	.LVL23:
 342              	 .loc 1 247 0
 343 0018 7047     	 bx lr
 344              	.L27:
 345 001a C046     	 .align 2
 346              	.L26:
 347 001c 00000340 	 .word 1073938432
 348 0020 0076BA4D 	 .word 1304065536
 349              	 .cfi_endproc
 350              	.LFE75:
 352              	 .section .text.XMC_MATH_CORDIC_Tan,"ax",%progbits
 353              	 .align 2
 354              	 .global XMC_MATH_CORDIC_Tan
 355              	 .code 16
 356              	 .thumb_func
 358              	XMC_MATH_CORDIC_Tan:
 359              	.LFB76:
 248:../Libraries/XMCLib/src/xmc_math.c **** 
 249:../Libraries/XMCLib/src/xmc_math.c **** /* This function computes the tangent of a given angle in radians */
 250:../Libraries/XMCLib/src/xmc_math.c **** XMC_MATH_Q0_11_t XMC_MATH_CORDIC_Tan(XMC_MATH_Q0_23_t angle_in_radians)
 251:../Libraries/XMCLib/src/xmc_math.c **** {
 360              	 .loc 1 251 0
 361              	 .cfi_startproc
 362              	.LVL24:
 252:../Libraries/XMCLib/src/xmc_math.c ****   uint32_t result;
 253:../Libraries/XMCLib/src/xmc_math.c ****   MATH->GLBCON = (uint32_t) XMC_MATH_DIV_DVDRC_CORRY_IS_SOURCE + \
 363              	 .loc 1 253 0
 364 0000 1C22     	 mov r2,#28
 365 0002 084B     	 ldr r3,.L29
 254:../Libraries/XMCLib/src/xmc_math.c ****                  (uint32_t) XMC_MATH_DIV_DVSRC_CORRX_IS_SOURCE;      /* Chain the results of CORDIC
 255:../Libraries/XMCLib/src/xmc_math.c ****   MATH->DIVCON = (uint32_t) 11 << MATH_DIVCON_DVSSRC_Pos;            /* Right Shifts Divisor by 11 
 256:../Libraries/XMCLib/src/xmc_math.c ****   MATH->STATC  = 0U; /* Clear register */
 257:../Libraries/XMCLib/src/xmc_math.c ****   MATH->CON    = (uint32_t) XMC_MATH_CORDIC_OPERATING_MODE_CIRCULAR + \
 366              	 .loc 1 257 0
 367 0004 0A21     	 mov r1,#10
 253:../Libraries/XMCLib/src/xmc_math.c ****                  (uint32_t) XMC_MATH_DIV_DVSRC_CORRX_IS_SOURCE;      /* Chain the results of CORDIC
 368              	 .loc 1 253 0
 369 0006 5A60     	 str r2,[r3,#4]
 255:../Libraries/XMCLib/src/xmc_math.c ****   MATH->STATC  = 0U; /* Clear register */
 370              	 .loc 1 255 0
 371 0008 B022     	 mov r2,#176
 372 000a 1205     	 lsl r2,r2,#20
 373 000c 5A63     	 str r2,[r3,#52]
 256:../Libraries/XMCLib/src/xmc_math.c ****   MATH->CON    = (uint32_t) XMC_MATH_CORDIC_OPERATING_MODE_CIRCULAR + \
 374              	 .loc 1 256 0
 375 000e 0022     	 mov r2,#0
 258:../Libraries/XMCLib/src/xmc_math.c ****                  (uint32_t) XMC_MATH_CORDIC_ROTVEC_MODE_ROTATION;
 259:../Libraries/XMCLib/src/xmc_math.c ****   MATH->CORDZ  = ((uint32_t)angle_in_radians) << MATH_CORDZ_DATA_Pos;
 376              	 .loc 1 259 0
 377 0010 0002     	 lsl r0,r0,#8
 378              	.LVL25:
 256:../Libraries/XMCLib/src/xmc_math.c ****   MATH->CON    = (uint32_t) XMC_MATH_CORDIC_OPERATING_MODE_CIRCULAR + \
 379              	 .loc 1 256 0
 380 0012 1A64     	 str r2,[r3,#64]
 257:../Libraries/XMCLib/src/xmc_math.c ****                  (uint32_t) XMC_MATH_CORDIC_ROTVEC_MODE_ROTATION;
 381              	 .loc 1 257 0
 382 0014 5964     	 str r1,[r3,#68]
 383              	 .loc 1 259 0
 384 0016 1865     	 str r0,[r3,#80]
 260:../Libraries/XMCLib/src/xmc_math.c ****   MATH->CORDY  = 0U; /* Clear register */
 385              	 .loc 1 260 0
 386 0018 DA64     	 str r2,[r3,#76]
 261:../Libraries/XMCLib/src/xmc_math.c ****   MATH->CORDX  = XMC_MATH_RECIPROC_CIRCULAR_GAIN_IN_Q023 << MATH_CORDX_DATA_Pos;
 387              	 .loc 1 261 0
 388 001a 034A     	 ldr r2,.L29+4
 262:../Libraries/XMCLib/src/xmc_math.c ****   result       = MATH->QUOT;
 263:../Libraries/XMCLib/src/xmc_math.c ****   return ((XMC_MATH_Q0_11_t) result);
 264:../Libraries/XMCLib/src/xmc_math.c **** }
 389              	 .loc 1 264 0
 390              	 
 261:../Libraries/XMCLib/src/xmc_math.c ****   MATH->CORDX  = XMC_MATH_RECIPROC_CIRCULAR_GAIN_IN_Q023 << MATH_CORDX_DATA_Pos;
 391              	 .loc 1 261 0
 392 001c 9A64     	 str r2,[r3,#72]
 262:../Libraries/XMCLib/src/xmc_math.c ****   result       = MATH->QUOT;
 393              	 .loc 1 262 0
 394 001e 986A     	 ldr r0,[r3,#40]
 395              	.LVL26:
 396              	 .loc 1 264 0
 397 0020 7047     	 bx lr
 398              	.L30:
 399 0022 C046     	 .align 2
 400              	.L29:
 401 0024 00000340 	 .word 1073938432
 402 0028 0076BA4D 	 .word 1304065536
 403              	 .cfi_endproc
 404              	.LFE76:
 406              	 .section .text.XMC_MATH_CORDIC_ArcTan,"ax",%progbits
 407              	 .align 2
 408              	 .global XMC_MATH_CORDIC_ArcTan
 409              	 .code 16
 410              	 .thumb_func
 412              	XMC_MATH_CORDIC_ArcTan:
 413              	.LFB77:
 265:../Libraries/XMCLib/src/xmc_math.c **** 
 266:../Libraries/XMCLib/src/xmc_math.c **** /* This function computes the arc tangent of a given angle in radians */
 267:../Libraries/XMCLib/src/xmc_math.c **** XMC_MATH_Q0_23_t XMC_MATH_CORDIC_ArcTan(XMC_MATH_Q8_15_t x, XMC_MATH_Q8_15_t y)
 268:../Libraries/XMCLib/src/xmc_math.c **** {
 414              	 .loc 1 268 0
 415              	 .cfi_startproc
 416              	.LVL27:
 417 0000 10B5     	 push {r4,lr}
 418              	.LCFI0:
 419              	 .cfi_def_cfa_offset 8
 420              	 .cfi_offset 4,-8
 421              	 .cfi_offset 14,-4
 269:../Libraries/XMCLib/src/xmc_math.c ****   uint32_t result;
 270:../Libraries/XMCLib/src/xmc_math.c ****   MATH->STATC = 0U; /* Clear register */
 422              	 .loc 1 270 0
 423 0002 0022     	 mov r2,#0
 271:../Libraries/XMCLib/src/xmc_math.c ****   MATH->CON   = (uint32_t) XMC_MATH_CORDIC_OPERATING_MODE_CIRCULAR;
 424              	 .loc 1 271 0
 425 0004 0224     	 mov r4,#2
 270:../Libraries/XMCLib/src/xmc_math.c ****   MATH->CON   = (uint32_t) XMC_MATH_CORDIC_OPERATING_MODE_CIRCULAR;
 426              	 .loc 1 270 0
 427 0006 054B     	 ldr r3,.L32
 272:../Libraries/XMCLib/src/xmc_math.c ****   MATH->CORDZ = 0U; /* Clear register */
 273:../Libraries/XMCLib/src/xmc_math.c ****   MATH->CORDY = ((uint32_t) y) << MATH_CORDY_DATA_Pos;
 428              	 .loc 1 273 0
 429 0008 0902     	 lsl r1,r1,#8
 430              	.LVL28:
 274:../Libraries/XMCLib/src/xmc_math.c ****   MATH->CORDX = ((uint32_t) x) << MATH_CORDX_DATA_Pos;
 431              	 .loc 1 274 0
 432 000a 0002     	 lsl r0,r0,#8
 433              	.LVL29:
 270:../Libraries/XMCLib/src/xmc_math.c ****   MATH->CON   = (uint32_t) XMC_MATH_CORDIC_OPERATING_MODE_CIRCULAR;
 434              	 .loc 1 270 0
 435 000c 1A64     	 str r2,[r3,#64]
 271:../Libraries/XMCLib/src/xmc_math.c ****   MATH->CORDZ = 0U; /* Clear register */
 436              	 .loc 1 271 0
 437 000e 5C64     	 str r4,[r3,#68]
 272:../Libraries/XMCLib/src/xmc_math.c ****   MATH->CORDZ = 0U; /* Clear register */
 438              	 .loc 1 272 0
 439 0010 1A65     	 str r2,[r3,#80]
 273:../Libraries/XMCLib/src/xmc_math.c ****   MATH->CORDX = ((uint32_t) x) << MATH_CORDX_DATA_Pos;
 440              	 .loc 1 273 0
 441 0012 D964     	 str r1,[r3,#76]
 442              	 .loc 1 274 0
 443 0014 9864     	 str r0,[r3,#72]
 275:../Libraries/XMCLib/src/xmc_math.c ****   result      = ((int32_t)MATH->CORRZ) >> MATH_CORRZ_RESULT_Pos;
 444              	 .loc 1 275 0
 445 0016 D86D     	 ldr r0,[r3,#92]
 446              	.LVL30:
 276:../Libraries/XMCLib/src/xmc_math.c ****   return ((XMC_MATH_Q0_23_t) result);
 277:../Libraries/XMCLib/src/xmc_math.c **** }
 447              	 .loc 1 277 0
 448              	 
 275:../Libraries/XMCLib/src/xmc_math.c ****   result      = ((int32_t)MATH->CORRZ) >> MATH_CORRZ_RESULT_Pos;
 449              	 .loc 1 275 0
 450 0018 0012     	 asr r0,r0,#8
 451              	.LVL31:
 452              	 .loc 1 277 0
 453 001a 10BD     	 pop {r4,pc}
 454              	.L33:
 455              	 .align 2
 456              	.L32:
 457 001c 00000340 	 .word 1073938432
 458              	 .cfi_endproc
 459              	.LFE77:
 461              	 .section .text.XMC_MATH_CORDIC_Cosh,"ax",%progbits
 462              	 .align 2
 463              	 .global XMC_MATH_CORDIC_Cosh
 464              	 .code 16
 465              	 .thumb_func
 467              	XMC_MATH_CORDIC_Cosh:
 468              	.LFB78:
 278:../Libraries/XMCLib/src/xmc_math.c **** 
 279:../Libraries/XMCLib/src/xmc_math.c **** /* This function computes the hyperbolic cosine of a given angle in radians */
 280:../Libraries/XMCLib/src/xmc_math.c **** XMC_MATH_Q1_22_t XMC_MATH_CORDIC_Cosh(XMC_MATH_Q0_23_t angle_in_radians)
 281:../Libraries/XMCLib/src/xmc_math.c **** {
 469              	 .loc 1 281 0
 470              	 .cfi_startproc
 471              	.LVL32:
 282:../Libraries/XMCLib/src/xmc_math.c ****   int32_t result;
 283:../Libraries/XMCLib/src/xmc_math.c ****   MATH->STATC = 0U; /* Clear register */
 472              	 .loc 1 283 0
 473 0000 0022     	 mov r2,#0
 284:../Libraries/XMCLib/src/xmc_math.c ****   MATH->CON   = (uint32_t) XMC_MATH_CORDIC_OPERATING_MODE_HYPERBOLIC + \
 474              	 .loc 1 284 0
 475 0002 0E21     	 mov r1,#14
 283:../Libraries/XMCLib/src/xmc_math.c ****   MATH->CON   = (uint32_t) XMC_MATH_CORDIC_OPERATING_MODE_HYPERBOLIC + \
 476              	 .loc 1 283 0
 477 0004 054B     	 ldr r3,.L35
 285:../Libraries/XMCLib/src/xmc_math.c ****                 (uint32_t) XMC_MATH_CORDIC_ROTVEC_MODE_ROTATION;
 286:../Libraries/XMCLib/src/xmc_math.c ****   MATH->CORDZ = ((uint32_t) angle_in_radians) << MATH_CORDZ_DATA_Pos;
 478              	 .loc 1 286 0
 479 0006 0002     	 lsl r0,r0,#8
 480              	.LVL33:
 283:../Libraries/XMCLib/src/xmc_math.c ****   MATH->CON   = (uint32_t) XMC_MATH_CORDIC_OPERATING_MODE_HYPERBOLIC + \
 481              	 .loc 1 283 0
 482 0008 1A64     	 str r2,[r3,#64]
 284:../Libraries/XMCLib/src/xmc_math.c ****                 (uint32_t) XMC_MATH_CORDIC_ROTVEC_MODE_ROTATION;
 483              	 .loc 1 284 0
 484 000a 5964     	 str r1,[r3,#68]
 485              	 .loc 1 286 0
 486 000c 1865     	 str r0,[r3,#80]
 287:../Libraries/XMCLib/src/xmc_math.c ****   MATH->CORDY = 0U; /* Clear register */
 487              	 .loc 1 287 0
 488 000e DA64     	 str r2,[r3,#76]
 288:../Libraries/XMCLib/src/xmc_math.c ****   MATH->CORDX = XMC_MATH_RECIPROC_HYPERBOLIC_GAIN_IN_Q1_22 << MATH_CORDX_DATA_Pos;
 489              	 .loc 1 288 0
 490 0010 034A     	 ldr r2,.L35+4
 289:../Libraries/XMCLib/src/xmc_math.c ****   result      = ((int32_t)MATH->CORRX) >> MATH_CORRX_RESULT_Pos;
 290:../Libraries/XMCLib/src/xmc_math.c ****   return ((XMC_MATH_Q1_22_t) result);
 291:../Libraries/XMCLib/src/xmc_math.c **** }
 491              	 .loc 1 291 0
 492              	 
 288:../Libraries/XMCLib/src/xmc_math.c ****   MATH->CORDX = XMC_MATH_RECIPROC_HYPERBOLIC_GAIN_IN_Q1_22 << MATH_CORDX_DATA_Pos;
 493              	 .loc 1 288 0
 494 0012 9A64     	 str r2,[r3,#72]
 289:../Libraries/XMCLib/src/xmc_math.c ****   result      = ((int32_t)MATH->CORRX) >> MATH_CORRX_RESULT_Pos;
 495              	 .loc 1 289 0
 496 0014 586D     	 ldr r0,[r3,#84]
 497              	.LVL34:
 498 0016 0012     	 asr r0,r0,#8
 499              	.LVL35:
 500              	 .loc 1 291 0
 501 0018 7047     	 bx lr
 502              	.L36:
 503 001a C046     	 .align 2
 504              	.L35:
 505 001c 00000340 	 .word 1073938432
 506 0020 00A1474D 	 .word 1296539904
 507              	 .cfi_endproc
 508              	.LFE78:
 510              	 .section .text.XMC_MATH_CORDIC_Sinh,"ax",%progbits
 511              	 .align 2
 512              	 .global XMC_MATH_CORDIC_Sinh
 513              	 .code 16
 514              	 .thumb_func
 516              	XMC_MATH_CORDIC_Sinh:
 517              	.LFB79:
 292:../Libraries/XMCLib/src/xmc_math.c **** 
 293:../Libraries/XMCLib/src/xmc_math.c **** /* This function computes the hyperbolic sine of a given angle in radians */
 294:../Libraries/XMCLib/src/xmc_math.c **** XMC_MATH_Q1_22_t XMC_MATH_CORDIC_Sinh(XMC_MATH_Q0_23_t angle_in_radians)
 295:../Libraries/XMCLib/src/xmc_math.c **** {
 518              	 .loc 1 295 0
 519              	 .cfi_startproc
 520              	.LVL36:
 296:../Libraries/XMCLib/src/xmc_math.c ****   int32_t result;
 297:../Libraries/XMCLib/src/xmc_math.c ****   MATH->STATC = 0U; /* Clear register */
 521              	 .loc 1 297 0
 522 0000 0022     	 mov r2,#0
 298:../Libraries/XMCLib/src/xmc_math.c ****   MATH->CON   = (uint32_t) XMC_MATH_CORDIC_OPERATING_MODE_HYPERBOLIC + \
 523              	 .loc 1 298 0
 524 0002 0E21     	 mov r1,#14
 297:../Libraries/XMCLib/src/xmc_math.c ****   MATH->CON   = (uint32_t) XMC_MATH_CORDIC_OPERATING_MODE_HYPERBOLIC + \
 525              	 .loc 1 297 0
 526 0004 054B     	 ldr r3,.L38
 299:../Libraries/XMCLib/src/xmc_math.c ****                 (uint32_t) XMC_MATH_CORDIC_ROTVEC_MODE_ROTATION;
 300:../Libraries/XMCLib/src/xmc_math.c ****   MATH->CORDZ = ((uint32_t)angle_in_radians) << MATH_CORDZ_DATA_Pos;
 527              	 .loc 1 300 0
 528 0006 0002     	 lsl r0,r0,#8
 529              	.LVL37:
 297:../Libraries/XMCLib/src/xmc_math.c ****   MATH->CON   = (uint32_t) XMC_MATH_CORDIC_OPERATING_MODE_HYPERBOLIC + \
 530              	 .loc 1 297 0
 531 0008 1A64     	 str r2,[r3,#64]
 298:../Libraries/XMCLib/src/xmc_math.c ****                 (uint32_t) XMC_MATH_CORDIC_ROTVEC_MODE_ROTATION;
 532              	 .loc 1 298 0
 533 000a 5964     	 str r1,[r3,#68]
 534              	 .loc 1 300 0
 535 000c 1865     	 str r0,[r3,#80]
 301:../Libraries/XMCLib/src/xmc_math.c ****   MATH->CORDY = 0U; /* Clear register */
 536              	 .loc 1 301 0
 537 000e DA64     	 str r2,[r3,#76]
 302:../Libraries/XMCLib/src/xmc_math.c ****   MATH->CORDX = XMC_MATH_RECIPROC_HYPERBOLIC_GAIN_IN_Q1_22 << MATH_CORDX_DATA_Pos;
 538              	 .loc 1 302 0
 539 0010 034A     	 ldr r2,.L38+4
 303:../Libraries/XMCLib/src/xmc_math.c ****   result      = ((int32_t)MATH->CORRY) >> MATH_CORRY_RESULT_Pos;
 304:../Libraries/XMCLib/src/xmc_math.c ****   return ((XMC_MATH_Q1_22_t) result);
 305:../Libraries/XMCLib/src/xmc_math.c **** }
 540              	 .loc 1 305 0
 541              	 
 302:../Libraries/XMCLib/src/xmc_math.c ****   MATH->CORDX = XMC_MATH_RECIPROC_HYPERBOLIC_GAIN_IN_Q1_22 << MATH_CORDX_DATA_Pos;
 542              	 .loc 1 302 0
 543 0012 9A64     	 str r2,[r3,#72]
 303:../Libraries/XMCLib/src/xmc_math.c ****   result      = ((int32_t)MATH->CORRY) >> MATH_CORRY_RESULT_Pos;
 544              	 .loc 1 303 0
 545 0014 986D     	 ldr r0,[r3,#88]
 546              	.LVL38:
 547 0016 0012     	 asr r0,r0,#8
 548              	.LVL39:
 549              	 .loc 1 305 0
 550 0018 7047     	 bx lr
 551              	.L39:
 552 001a C046     	 .align 2
 553              	.L38:
 554 001c 00000340 	 .word 1073938432
 555 0020 00A1474D 	 .word 1296539904
 556              	 .cfi_endproc
 557              	.LFE79:
 559              	 .section .text.XMC_MATH_CORDIC_Tanh,"ax",%progbits
 560              	 .align 2
 561              	 .global XMC_MATH_CORDIC_Tanh
 562              	 .code 16
 563              	 .thumb_func
 565              	XMC_MATH_CORDIC_Tanh:
 566              	.LFB80:
 306:../Libraries/XMCLib/src/xmc_math.c **** 
 307:../Libraries/XMCLib/src/xmc_math.c **** /* This function computes the hyperbolic tangent of a given angle in radians */
 308:../Libraries/XMCLib/src/xmc_math.c **** XMC_MATH_Q0_11_t XMC_MATH_CORDIC_Tanh(XMC_MATH_Q0_23_t angle_in_radians)
 309:../Libraries/XMCLib/src/xmc_math.c **** {
 567              	 .loc 1 309 0
 568              	 .cfi_startproc
 569              	.LVL40:
 310:../Libraries/XMCLib/src/xmc_math.c ****   uint32_t result;
 311:../Libraries/XMCLib/src/xmc_math.c ****   MATH->GLBCON = (uint32_t) XMC_MATH_DIV_DVDRC_CORRY_IS_SOURCE + \
 570              	 .loc 1 311 0
 571 0000 1C22     	 mov r2,#28
 572 0002 084B     	 ldr r3,.L41
 312:../Libraries/XMCLib/src/xmc_math.c ****                  (uint32_t) XMC_MATH_DIV_DVSRC_CORRX_IS_SOURCE;      /* Chain the results of CORDIC
 313:../Libraries/XMCLib/src/xmc_math.c ****   MATH->DIVCON = (uint32_t) 11 << MATH_DIVCON_DVSSRC_Pos;            /* Right Shifts Divisor by 11 
 314:../Libraries/XMCLib/src/xmc_math.c ****   MATH->STATC  = 0U; /* Clear register */
 315:../Libraries/XMCLib/src/xmc_math.c ****   MATH->CON    = (uint32_t) XMC_MATH_CORDIC_OPERATING_MODE_HYPERBOLIC + \
 573              	 .loc 1 315 0
 574 0004 0E21     	 mov r1,#14
 311:../Libraries/XMCLib/src/xmc_math.c ****                  (uint32_t) XMC_MATH_DIV_DVSRC_CORRX_IS_SOURCE;      /* Chain the results of CORDIC
 575              	 .loc 1 311 0
 576 0006 5A60     	 str r2,[r3,#4]
 313:../Libraries/XMCLib/src/xmc_math.c ****   MATH->STATC  = 0U; /* Clear register */
 577              	 .loc 1 313 0
 578 0008 B022     	 mov r2,#176
 579 000a 1205     	 lsl r2,r2,#20
 580 000c 5A63     	 str r2,[r3,#52]
 314:../Libraries/XMCLib/src/xmc_math.c ****   MATH->CON    = (uint32_t) XMC_MATH_CORDIC_OPERATING_MODE_HYPERBOLIC + \
 581              	 .loc 1 314 0
 582 000e 0022     	 mov r2,#0
 316:../Libraries/XMCLib/src/xmc_math.c ****                  (uint32_t) XMC_MATH_CORDIC_ROTVEC_MODE_ROTATION;
 317:../Libraries/XMCLib/src/xmc_math.c ****   MATH->CORDZ  = ((uint32_t) angle_in_radians) << MATH_CORDZ_DATA_Pos;
 583              	 .loc 1 317 0
 584 0010 0002     	 lsl r0,r0,#8
 585              	.LVL41:
 314:../Libraries/XMCLib/src/xmc_math.c ****   MATH->CON    = (uint32_t) XMC_MATH_CORDIC_OPERATING_MODE_HYPERBOLIC + \
 586              	 .loc 1 314 0
 587 0012 1A64     	 str r2,[r3,#64]
 315:../Libraries/XMCLib/src/xmc_math.c ****                  (uint32_t) XMC_MATH_CORDIC_ROTVEC_MODE_ROTATION;
 588              	 .loc 1 315 0
 589 0014 5964     	 str r1,[r3,#68]
 590              	 .loc 1 317 0
 591 0016 1865     	 str r0,[r3,#80]
 318:../Libraries/XMCLib/src/xmc_math.c ****   MATH->CORDY  = 0U; /* Clear register */
 592              	 .loc 1 318 0
 593 0018 DA64     	 str r2,[r3,#76]
 319:../Libraries/XMCLib/src/xmc_math.c ****   MATH->CORDX  = XMC_MATH_RECIPROC_HYPERBOLIC_GAIN_IN_Q1_22 << MATH_CORDX_DATA_Pos;
 594              	 .loc 1 319 0
 595 001a 034A     	 ldr r2,.L41+4
 320:../Libraries/XMCLib/src/xmc_math.c ****   result       = MATH->QUOT;
 321:../Libraries/XMCLib/src/xmc_math.c ****   return ((XMC_MATH_Q0_11_t) result);
 322:../Libraries/XMCLib/src/xmc_math.c **** }
 596              	 .loc 1 322 0
 597              	 
 319:../Libraries/XMCLib/src/xmc_math.c ****   MATH->CORDX  = XMC_MATH_RECIPROC_HYPERBOLIC_GAIN_IN_Q1_22 << MATH_CORDX_DATA_Pos;
 598              	 .loc 1 319 0
 599 001c 9A64     	 str r2,[r3,#72]
 320:../Libraries/XMCLib/src/xmc_math.c ****   result       = MATH->QUOT;
 600              	 .loc 1 320 0
 601 001e 986A     	 ldr r0,[r3,#40]
 602              	.LVL42:
 603              	 .loc 1 322 0
 604 0020 7047     	 bx lr
 605              	.L42:
 606 0022 C046     	 .align 2
 607              	.L41:
 608 0024 00000340 	 .word 1073938432
 609 0028 00A1474D 	 .word 1296539904
 610              	 .cfi_endproc
 611              	.LFE80:
 613              	 .section .text.XMC_MATH_CORDIC_CosNB,"ax",%progbits
 614              	 .align 2
 615              	 .global XMC_MATH_CORDIC_CosNB
 616              	 .code 16
 617              	 .thumb_func
 619              	XMC_MATH_CORDIC_CosNB:
 620              	.LFB81:
 323:../Libraries/XMCLib/src/xmc_math.c **** 
 324:../Libraries/XMCLib/src/xmc_math.c **** /**************************************************************************************************
 325:../Libraries/XMCLib/src/xmc_math.c ****  * API IMPLEMENTATION - Non blocking functions
 326:../Libraries/XMCLib/src/xmc_math.c ****  **************************************************************************************************
 327:../Libraries/XMCLib/src/xmc_math.c **** /* This function computes the cosine of a given angle in radians */
 328:../Libraries/XMCLib/src/xmc_math.c **** void XMC_MATH_CORDIC_CosNB(XMC_MATH_Q0_23_t angle_in_radians)
 329:../Libraries/XMCLib/src/xmc_math.c **** {
 621              	 .loc 1 329 0
 622              	 .cfi_startproc
 623              	.LVL43:
 330:../Libraries/XMCLib/src/xmc_math.c ****   MATH->STATC = 0U; /* Clear register */
 624              	 .loc 1 330 0
 625 0000 0022     	 mov r2,#0
 331:../Libraries/XMCLib/src/xmc_math.c ****   MATH->CON   = (uint32_t) XMC_MATH_CORDIC_OPERATING_MODE_CIRCULAR + \
 626              	 .loc 1 331 0
 627 0002 0A21     	 mov r1,#10
 330:../Libraries/XMCLib/src/xmc_math.c ****   MATH->STATC = 0U; /* Clear register */
 628              	 .loc 1 330 0
 629 0004 044B     	 ldr r3,.L44
 332:../Libraries/XMCLib/src/xmc_math.c ****                 (uint32_t) XMC_MATH_CORDIC_ROTVEC_MODE_ROTATION;
 333:../Libraries/XMCLib/src/xmc_math.c ****   MATH->CORDZ = ((uint32_t) angle_in_radians) << MATH_CORDZ_DATA_Pos;
 630              	 .loc 1 333 0
 631 0006 0002     	 lsl r0,r0,#8
 632              	.LVL44:
 330:../Libraries/XMCLib/src/xmc_math.c ****   MATH->CON   = (uint32_t) XMC_MATH_CORDIC_OPERATING_MODE_CIRCULAR + \
 633              	 .loc 1 330 0
 634 0008 1A64     	 str r2,[r3,#64]
 331:../Libraries/XMCLib/src/xmc_math.c ****   MATH->CON   = (uint32_t) XMC_MATH_CORDIC_OPERATING_MODE_CIRCULAR + \
 635              	 .loc 1 331 0
 636 000a 5964     	 str r1,[r3,#68]
 637              	 .loc 1 333 0
 638 000c 1865     	 str r0,[r3,#80]
 334:../Libraries/XMCLib/src/xmc_math.c ****   MATH->CORDY = 0U;  /* Clear register */
 639              	 .loc 1 334 0
 640 000e DA64     	 str r2,[r3,#76]
 335:../Libraries/XMCLib/src/xmc_math.c ****   MATH->CORDX = XMC_MATH_RECIPROC_CIRCULAR_GAIN_IN_Q023 << MATH_CORDX_DATA_Pos;
 641              	 .loc 1 335 0
 642 0010 024A     	 ldr r2,.L44+4
 336:../Libraries/XMCLib/src/xmc_math.c **** }
 643              	 .loc 1 336 0
 644              	 
 335:../Libraries/XMCLib/src/xmc_math.c ****   MATH->CORDX = XMC_MATH_RECIPROC_CIRCULAR_GAIN_IN_Q023 << MATH_CORDX_DATA_Pos;
 645              	 .loc 1 335 0
 646 0012 9A64     	 str r2,[r3,#72]
 647              	 .loc 1 336 0
 648 0014 7047     	 bx lr
 649              	.L45:
 650 0016 C046     	 .align 2
 651              	.L44:
 652 0018 00000340 	 .word 1073938432
 653 001c 0076BA4D 	 .word 1304065536
 654              	 .cfi_endproc
 655              	.LFE81:
 657              	 .section .text.XMC_MATH_CORDIC_SinNB,"ax",%progbits
 658              	 .align 2
 659              	 .global XMC_MATH_CORDIC_SinNB
 660              	 .code 16
 661              	 .thumb_func
 663              	XMC_MATH_CORDIC_SinNB:
 664              	.LFB82:
 337:../Libraries/XMCLib/src/xmc_math.c **** 
 338:../Libraries/XMCLib/src/xmc_math.c **** /* This function computes the sine of a given angle in radians */
 339:../Libraries/XMCLib/src/xmc_math.c **** void XMC_MATH_CORDIC_SinNB(XMC_MATH_Q0_23_t angle_in_radians)
 340:../Libraries/XMCLib/src/xmc_math.c **** {
 665              	 .loc 1 340 0
 666              	 .cfi_startproc
 667              	.LVL45:
 341:../Libraries/XMCLib/src/xmc_math.c ****   MATH->STATC = 0U; /* Clear register */
 668              	 .loc 1 341 0
 669 0000 0022     	 mov r2,#0
 342:../Libraries/XMCLib/src/xmc_math.c ****   MATH->CON   = (uint32_t) XMC_MATH_CORDIC_OPERATING_MODE_CIRCULAR + \
 670              	 .loc 1 342 0
 671 0002 0A21     	 mov r1,#10
 341:../Libraries/XMCLib/src/xmc_math.c ****   MATH->STATC = 0U; /* Clear register */
 672              	 .loc 1 341 0
 673 0004 044B     	 ldr r3,.L47
 343:../Libraries/XMCLib/src/xmc_math.c ****                 (uint32_t) XMC_MATH_CORDIC_ROTVEC_MODE_ROTATION;
 344:../Libraries/XMCLib/src/xmc_math.c ****   MATH->CORDZ = ((uint32_t)angle_in_radians) << MATH_CORDZ_DATA_Pos;
 674              	 .loc 1 344 0
 675 0006 0002     	 lsl r0,r0,#8
 676              	.LVL46:
 341:../Libraries/XMCLib/src/xmc_math.c ****   MATH->CON   = (uint32_t) XMC_MATH_CORDIC_OPERATING_MODE_CIRCULAR + \
 677              	 .loc 1 341 0
 678 0008 1A64     	 str r2,[r3,#64]
 342:../Libraries/XMCLib/src/xmc_math.c ****   MATH->CON   = (uint32_t) XMC_MATH_CORDIC_OPERATING_MODE_CIRCULAR + \
 679              	 .loc 1 342 0
 680 000a 5964     	 str r1,[r3,#68]
 681              	 .loc 1 344 0
 682 000c 1865     	 str r0,[r3,#80]
 345:../Libraries/XMCLib/src/xmc_math.c ****   MATH->CORDY = 0U; /* Clear register */
 683              	 .loc 1 345 0
 684 000e DA64     	 str r2,[r3,#76]
 346:../Libraries/XMCLib/src/xmc_math.c ****   MATH->CORDX = XMC_MATH_RECIPROC_CIRCULAR_GAIN_IN_Q023 << MATH_CORDX_DATA_Pos;
 685              	 .loc 1 346 0
 686 0010 024A     	 ldr r2,.L47+4
 347:../Libraries/XMCLib/src/xmc_math.c **** }
 687              	 .loc 1 347 0
 688              	 
 346:../Libraries/XMCLib/src/xmc_math.c ****   MATH->CORDX = XMC_MATH_RECIPROC_CIRCULAR_GAIN_IN_Q023 << MATH_CORDX_DATA_Pos;
 689              	 .loc 1 346 0
 690 0012 9A64     	 str r2,[r3,#72]
 691              	 .loc 1 347 0
 692 0014 7047     	 bx lr
 693              	.L48:
 694 0016 C046     	 .align 2
 695              	.L47:
 696 0018 00000340 	 .word 1073938432
 697 001c 0076BA4D 	 .word 1304065536
 698              	 .cfi_endproc
 699              	.LFE82:
 701              	 .section .text.XMC_MATH_CORDIC_TanNB,"ax",%progbits
 702              	 .align 2
 703              	 .global XMC_MATH_CORDIC_TanNB
 704              	 .code 16
 705              	 .thumb_func
 707              	XMC_MATH_CORDIC_TanNB:
 708              	.LFB83:
 348:../Libraries/XMCLib/src/xmc_math.c **** 
 349:../Libraries/XMCLib/src/xmc_math.c **** /* This function computes the tangent of a given angle in radians */
 350:../Libraries/XMCLib/src/xmc_math.c **** void XMC_MATH_CORDIC_TanNB(XMC_MATH_Q0_23_t angle_in_radians)
 351:../Libraries/XMCLib/src/xmc_math.c **** {
 709              	 .loc 1 351 0
 710              	 .cfi_startproc
 711              	.LVL47:
 352:../Libraries/XMCLib/src/xmc_math.c ****   MATH->GLBCON = (uint32_t) XMC_MATH_DIV_DVDRC_CORRY_IS_SOURCE + \
 712              	 .loc 1 352 0
 713 0000 1C22     	 mov r2,#28
 714 0002 074B     	 ldr r3,.L50
 353:../Libraries/XMCLib/src/xmc_math.c ****                  (uint32_t) XMC_MATH_DIV_DVSRC_CORRX_IS_SOURCE;      /* Chain the results of CORDIC
 354:../Libraries/XMCLib/src/xmc_math.c ****   MATH->DIVCON = (uint32_t) 11 << MATH_DIVCON_DVSSRC_Pos;            /* Right Shifts Divisor by 11 
 355:../Libraries/XMCLib/src/xmc_math.c **** 
 356:../Libraries/XMCLib/src/xmc_math.c ****   MATH->STATC  = 0U; /* Clear register */
 357:../Libraries/XMCLib/src/xmc_math.c ****   MATH->CON    = (uint32_t) XMC_MATH_CORDIC_OPERATING_MODE_CIRCULAR + \
 715              	 .loc 1 357 0
 716 0004 0A21     	 mov r1,#10
 352:../Libraries/XMCLib/src/xmc_math.c ****   MATH->GLBCON = (uint32_t) XMC_MATH_DIV_DVDRC_CORRY_IS_SOURCE + \
 717              	 .loc 1 352 0
 718 0006 5A60     	 str r2,[r3,#4]
 354:../Libraries/XMCLib/src/xmc_math.c **** 
 719              	 .loc 1 354 0
 720 0008 B022     	 mov r2,#176
 721 000a 1205     	 lsl r2,r2,#20
 722 000c 5A63     	 str r2,[r3,#52]
 356:../Libraries/XMCLib/src/xmc_math.c ****   MATH->CON    = (uint32_t) XMC_MATH_CORDIC_OPERATING_MODE_CIRCULAR + \
 723              	 .loc 1 356 0
 724 000e 0022     	 mov r2,#0
 358:../Libraries/XMCLib/src/xmc_math.c ****                  (uint32_t) XMC_MATH_CORDIC_ROTVEC_MODE_ROTATION;
 359:../Libraries/XMCLib/src/xmc_math.c ****   MATH->CORDZ  = ((uint32_t)angle_in_radians) << MATH_CORDZ_DATA_Pos;
 725              	 .loc 1 359 0
 726 0010 0002     	 lsl r0,r0,#8
 727              	.LVL48:
 356:../Libraries/XMCLib/src/xmc_math.c ****   MATH->CON    = (uint32_t) XMC_MATH_CORDIC_OPERATING_MODE_CIRCULAR + \
 728              	 .loc 1 356 0
 729 0012 1A64     	 str r2,[r3,#64]
 357:../Libraries/XMCLib/src/xmc_math.c ****                  (uint32_t) XMC_MATH_CORDIC_ROTVEC_MODE_ROTATION;
 730              	 .loc 1 357 0
 731 0014 5964     	 str r1,[r3,#68]
 732              	 .loc 1 359 0
 733 0016 1865     	 str r0,[r3,#80]
 360:../Libraries/XMCLib/src/xmc_math.c ****   MATH->CORDY  = 0U; /* Clear register */
 734              	 .loc 1 360 0
 735 0018 DA64     	 str r2,[r3,#76]
 361:../Libraries/XMCLib/src/xmc_math.c ****   MATH->CORDX  = XMC_MATH_RECIPROC_CIRCULAR_GAIN_IN_Q023 << MATH_CORDX_DATA_Pos;
 736              	 .loc 1 361 0
 737 001a 024A     	 ldr r2,.L50+4
 362:../Libraries/XMCLib/src/xmc_math.c **** }
 738              	 .loc 1 362 0
 739              	 
 361:../Libraries/XMCLib/src/xmc_math.c ****   MATH->CORDX  = XMC_MATH_RECIPROC_CIRCULAR_GAIN_IN_Q023 << MATH_CORDX_DATA_Pos;
 740              	 .loc 1 361 0
 741 001c 9A64     	 str r2,[r3,#72]
 742              	 .loc 1 362 0
 743 001e 7047     	 bx lr
 744              	.L51:
 745              	 .align 2
 746              	.L50:
 747 0020 00000340 	 .word 1073938432
 748 0024 0076BA4D 	 .word 1304065536
 749              	 .cfi_endproc
 750              	.LFE83:
 752              	 .section .text.XMC_MATH_CORDIC_ArcTanNB,"ax",%progbits
 753              	 .align 2
 754              	 .global XMC_MATH_CORDIC_ArcTanNB
 755              	 .code 16
 756              	 .thumb_func
 758              	XMC_MATH_CORDIC_ArcTanNB:
 759              	.LFB84:
 363:../Libraries/XMCLib/src/xmc_math.c **** 
 364:../Libraries/XMCLib/src/xmc_math.c **** /* This function computes the arc tangent of a given value */
 365:../Libraries/XMCLib/src/xmc_math.c **** void XMC_MATH_CORDIC_ArcTanNB(XMC_MATH_Q8_15_t x, XMC_MATH_Q8_15_t y)
 366:../Libraries/XMCLib/src/xmc_math.c **** {
 760              	 .loc 1 366 0
 761              	 .cfi_startproc
 762              	.LVL49:
 763 0000 10B5     	 push {r4,lr}
 764              	.LCFI1:
 765              	 .cfi_def_cfa_offset 8
 766              	 .cfi_offset 4,-8
 767              	 .cfi_offset 14,-4
 367:../Libraries/XMCLib/src/xmc_math.c ****   MATH->STATC = 0U; /* Clear register */
 768              	 .loc 1 367 0
 769 0002 0022     	 mov r2,#0
 368:../Libraries/XMCLib/src/xmc_math.c ****   MATH->CON   = (uint32_t) XMC_MATH_CORDIC_OPERATING_MODE_CIRCULAR;
 770              	 .loc 1 368 0
 771 0004 0224     	 mov r4,#2
 367:../Libraries/XMCLib/src/xmc_math.c ****   MATH->STATC = 0U; /* Clear register */
 772              	 .loc 1 367 0
 773 0006 044B     	 ldr r3,.L53
 369:../Libraries/XMCLib/src/xmc_math.c ****   MATH->CORDZ = 0U; /* Clear register */
 370:../Libraries/XMCLib/src/xmc_math.c ****   MATH->CORDY = ((uint32_t) y) << MATH_CORDY_DATA_Pos;
 774              	 .loc 1 370 0
 775 0008 0902     	 lsl r1,r1,#8
 776              	.LVL50:
 371:../Libraries/XMCLib/src/xmc_math.c ****   MATH->CORDX = ((uint32_t) x) << MATH_CORDX_DATA_Pos;
 777              	 .loc 1 371 0
 778 000a 0002     	 lsl r0,r0,#8
 779              	.LVL51:
 367:../Libraries/XMCLib/src/xmc_math.c ****   MATH->CON   = (uint32_t) XMC_MATH_CORDIC_OPERATING_MODE_CIRCULAR;
 780              	 .loc 1 367 0
 781 000c 1A64     	 str r2,[r3,#64]
 372:../Libraries/XMCLib/src/xmc_math.c **** }
 782              	 .loc 1 372 0
 783              	 
 368:../Libraries/XMCLib/src/xmc_math.c ****   MATH->CORDZ = 0U; /* Clear register */
 784              	 .loc 1 368 0
 785 000e 5C64     	 str r4,[r3,#68]
 369:../Libraries/XMCLib/src/xmc_math.c ****   MATH->CORDY = ((uint32_t) y) << MATH_CORDY_DATA_Pos;
 786              	 .loc 1 369 0
 787 0010 1A65     	 str r2,[r3,#80]
 370:../Libraries/XMCLib/src/xmc_math.c ****   MATH->CORDX = ((uint32_t) x) << MATH_CORDX_DATA_Pos;
 788              	 .loc 1 370 0
 789 0012 D964     	 str r1,[r3,#76]
 371:../Libraries/XMCLib/src/xmc_math.c **** }
 790              	 .loc 1 371 0
 791 0014 9864     	 str r0,[r3,#72]
 792              	 .loc 1 372 0
 793 0016 10BD     	 pop {r4,pc}
 794              	.L54:
 795              	 .align 2
 796              	.L53:
 797 0018 00000340 	 .word 1073938432
 798              	 .cfi_endproc
 799              	.LFE84:
 801              	 .section .text.XMC_MATH_CORDIC_CoshNB,"ax",%progbits
 802              	 .align 2
 803              	 .global XMC_MATH_CORDIC_CoshNB
 804              	 .code 16
 805              	 .thumb_func
 807              	XMC_MATH_CORDIC_CoshNB:
 808              	.LFB85:
 373:../Libraries/XMCLib/src/xmc_math.c **** 
 374:../Libraries/XMCLib/src/xmc_math.c **** /* This function computes the hyperbolic cosine of a given angle in radians */
 375:../Libraries/XMCLib/src/xmc_math.c **** void XMC_MATH_CORDIC_CoshNB(XMC_MATH_Q0_23_t angle_in_radians)
 376:../Libraries/XMCLib/src/xmc_math.c **** {
 809              	 .loc 1 376 0
 810              	 .cfi_startproc
 811              	.LVL52:
 377:../Libraries/XMCLib/src/xmc_math.c ****   MATH->STATC = 0U; /* Clear register */
 812              	 .loc 1 377 0
 813 0000 0022     	 mov r2,#0
 378:../Libraries/XMCLib/src/xmc_math.c ****   MATH->CON   = (uint32_t) XMC_MATH_CORDIC_OPERATING_MODE_HYPERBOLIC + \
 814              	 .loc 1 378 0
 815 0002 0E21     	 mov r1,#14
 377:../Libraries/XMCLib/src/xmc_math.c ****   MATH->STATC = 0U; /* Clear register */
 816              	 .loc 1 377 0
 817 0004 044B     	 ldr r3,.L56
 379:../Libraries/XMCLib/src/xmc_math.c ****                 (uint32_t) XMC_MATH_CORDIC_ROTVEC_MODE_ROTATION;
 380:../Libraries/XMCLib/src/xmc_math.c ****   MATH->CORDZ = ((uint32_t)angle_in_radians) << MATH_CORDZ_DATA_Pos;
 818              	 .loc 1 380 0
 819 0006 0002     	 lsl r0,r0,#8
 820              	.LVL53:
 377:../Libraries/XMCLib/src/xmc_math.c ****   MATH->CON   = (uint32_t) XMC_MATH_CORDIC_OPERATING_MODE_HYPERBOLIC + \
 821              	 .loc 1 377 0
 822 0008 1A64     	 str r2,[r3,#64]
 378:../Libraries/XMCLib/src/xmc_math.c ****   MATH->CON   = (uint32_t) XMC_MATH_CORDIC_OPERATING_MODE_HYPERBOLIC + \
 823              	 .loc 1 378 0
 824 000a 5964     	 str r1,[r3,#68]
 825              	 .loc 1 380 0
 826 000c 1865     	 str r0,[r3,#80]
 381:../Libraries/XMCLib/src/xmc_math.c ****   MATH->CORDY = 0U; /* Clear register */
 827              	 .loc 1 381 0
 828 000e DA64     	 str r2,[r3,#76]
 382:../Libraries/XMCLib/src/xmc_math.c ****   MATH->CORDX = XMC_MATH_RECIPROC_HYPERBOLIC_GAIN_IN_Q1_22 << MATH_CORDX_DATA_Pos;
 829              	 .loc 1 382 0
 830 0010 024A     	 ldr r2,.L56+4
 383:../Libraries/XMCLib/src/xmc_math.c **** }
 831              	 .loc 1 383 0
 832              	 
 382:../Libraries/XMCLib/src/xmc_math.c ****   MATH->CORDX = XMC_MATH_RECIPROC_HYPERBOLIC_GAIN_IN_Q1_22 << MATH_CORDX_DATA_Pos;
 833              	 .loc 1 382 0
 834 0012 9A64     	 str r2,[r3,#72]
 835              	 .loc 1 383 0
 836 0014 7047     	 bx lr
 837              	.L57:
 838 0016 C046     	 .align 2
 839              	.L56:
 840 0018 00000340 	 .word 1073938432
 841 001c 00A1474D 	 .word 1296539904
 842              	 .cfi_endproc
 843              	.LFE85:
 845              	 .section .text.XMC_MATH_CORDIC_SinhNB,"ax",%progbits
 846              	 .align 2
 847              	 .global XMC_MATH_CORDIC_SinhNB
 848              	 .code 16
 849              	 .thumb_func
 851              	XMC_MATH_CORDIC_SinhNB:
 852              	.LFB86:
 384:../Libraries/XMCLib/src/xmc_math.c **** 
 385:../Libraries/XMCLib/src/xmc_math.c **** /* This function computes the hyperbolic sine of a given angle in radians */
 386:../Libraries/XMCLib/src/xmc_math.c **** void XMC_MATH_CORDIC_SinhNB(XMC_MATH_Q0_23_t angle_in_radians)
 387:../Libraries/XMCLib/src/xmc_math.c **** {
 853              	 .loc 1 387 0
 854              	 .cfi_startproc
 855              	.LVL54:
 388:../Libraries/XMCLib/src/xmc_math.c ****   MATH->STATC = 0U; /* Clear register */
 856              	 .loc 1 388 0
 857 0000 0022     	 mov r2,#0
 389:../Libraries/XMCLib/src/xmc_math.c ****   MATH->CON   = (uint32_t) XMC_MATH_CORDIC_OPERATING_MODE_HYPERBOLIC + \
 858              	 .loc 1 389 0
 859 0002 0E21     	 mov r1,#14
 388:../Libraries/XMCLib/src/xmc_math.c ****   MATH->STATC = 0U; /* Clear register */
 860              	 .loc 1 388 0
 861 0004 044B     	 ldr r3,.L59
 390:../Libraries/XMCLib/src/xmc_math.c ****                 (uint32_t) XMC_MATH_CORDIC_ROTVEC_MODE_ROTATION;
 391:../Libraries/XMCLib/src/xmc_math.c ****   MATH->CORDZ = ((uint32_t)angle_in_radians) << MATH_CORDZ_DATA_Pos;
 862              	 .loc 1 391 0
 863 0006 0002     	 lsl r0,r0,#8
 864              	.LVL55:
 388:../Libraries/XMCLib/src/xmc_math.c ****   MATH->CON   = (uint32_t) XMC_MATH_CORDIC_OPERATING_MODE_HYPERBOLIC + \
 865              	 .loc 1 388 0
 866 0008 1A64     	 str r2,[r3,#64]
 389:../Libraries/XMCLib/src/xmc_math.c ****   MATH->CON   = (uint32_t) XMC_MATH_CORDIC_OPERATING_MODE_HYPERBOLIC + \
 867              	 .loc 1 389 0
 868 000a 5964     	 str r1,[r3,#68]
 869              	 .loc 1 391 0
 870 000c 1865     	 str r0,[r3,#80]
 392:../Libraries/XMCLib/src/xmc_math.c ****   MATH->CORDY = 0U; /* Clear register */
 871              	 .loc 1 392 0
 872 000e DA64     	 str r2,[r3,#76]
 393:../Libraries/XMCLib/src/xmc_math.c ****   MATH->CORDX = XMC_MATH_RECIPROC_HYPERBOLIC_GAIN_IN_Q1_22 << MATH_CORDX_DATA_Pos;
 873              	 .loc 1 393 0
 874 0010 024A     	 ldr r2,.L59+4
 394:../Libraries/XMCLib/src/xmc_math.c **** }
 875              	 .loc 1 394 0
 876              	 
 393:../Libraries/XMCLib/src/xmc_math.c ****   MATH->CORDX = XMC_MATH_RECIPROC_HYPERBOLIC_GAIN_IN_Q1_22 << MATH_CORDX_DATA_Pos;
 877              	 .loc 1 393 0
 878 0012 9A64     	 str r2,[r3,#72]
 879              	 .loc 1 394 0
 880 0014 7047     	 bx lr
 881              	.L60:
 882 0016 C046     	 .align 2
 883              	.L59:
 884 0018 00000340 	 .word 1073938432
 885 001c 00A1474D 	 .word 1296539904
 886              	 .cfi_endproc
 887              	.LFE86:
 889              	 .section .text.XMC_MATH_CORDIC_TanhNB,"ax",%progbits
 890              	 .align 2
 891              	 .global XMC_MATH_CORDIC_TanhNB
 892              	 .code 16
 893              	 .thumb_func
 895              	XMC_MATH_CORDIC_TanhNB:
 896              	.LFB87:
 395:../Libraries/XMCLib/src/xmc_math.c **** 
 396:../Libraries/XMCLib/src/xmc_math.c **** /* This function computes the hyperbolic tangent of a given angle in radians */
 397:../Libraries/XMCLib/src/xmc_math.c **** void XMC_MATH_CORDIC_TanhNB(XMC_MATH_Q0_23_t angle_in_radians)
 398:../Libraries/XMCLib/src/xmc_math.c **** {
 897              	 .loc 1 398 0
 898              	 .cfi_startproc
 899              	.LVL56:
 399:../Libraries/XMCLib/src/xmc_math.c ****   MATH->GLBCON = (uint32_t) XMC_MATH_DIV_DVDRC_CORRY_IS_SOURCE + \
 900              	 .loc 1 399 0
 901 0000 1C22     	 mov r2,#28
 902 0002 074B     	 ldr r3,.L62
 400:../Libraries/XMCLib/src/xmc_math.c ****                  (uint32_t) XMC_MATH_DIV_DVSRC_CORRX_IS_SOURCE;      /* Chain the results of CORDIC
 401:../Libraries/XMCLib/src/xmc_math.c ****   MATH->DIVCON = (uint32_t) 11 << MATH_DIVCON_DVSSRC_Pos;            /* Right Shifts Divisor by 11 
 402:../Libraries/XMCLib/src/xmc_math.c ****   MATH->STATC  = 0U; /* Clear register */
 403:../Libraries/XMCLib/src/xmc_math.c ****   MATH->CON    = (uint32_t) XMC_MATH_CORDIC_OPERATING_MODE_HYPERBOLIC + \
 903              	 .loc 1 403 0
 904 0004 0E21     	 mov r1,#14
 399:../Libraries/XMCLib/src/xmc_math.c ****   MATH->GLBCON = (uint32_t) XMC_MATH_DIV_DVDRC_CORRY_IS_SOURCE + \
 905              	 .loc 1 399 0
 906 0006 5A60     	 str r2,[r3,#4]
 401:../Libraries/XMCLib/src/xmc_math.c ****   MATH->STATC  = 0U; /* Clear register */
 907              	 .loc 1 401 0
 908 0008 B022     	 mov r2,#176
 909 000a 1205     	 lsl r2,r2,#20
 910 000c 5A63     	 str r2,[r3,#52]
 402:../Libraries/XMCLib/src/xmc_math.c ****   MATH->CON    = (uint32_t) XMC_MATH_CORDIC_OPERATING_MODE_HYPERBOLIC + \
 911              	 .loc 1 402 0
 912 000e 0022     	 mov r2,#0
 404:../Libraries/XMCLib/src/xmc_math.c ****                  (uint32_t) XMC_MATH_CORDIC_ROTVEC_MODE_ROTATION;
 405:../Libraries/XMCLib/src/xmc_math.c ****   MATH->CORDZ  = ((uint32_t) angle_in_radians) << MATH_CORDZ_DATA_Pos;
 913              	 .loc 1 405 0
 914 0010 0002     	 lsl r0,r0,#8
 915              	.LVL57:
 402:../Libraries/XMCLib/src/xmc_math.c ****   MATH->CON    = (uint32_t) XMC_MATH_CORDIC_OPERATING_MODE_HYPERBOLIC + \
 916              	 .loc 1 402 0
 917 0012 1A64     	 str r2,[r3,#64]
 403:../Libraries/XMCLib/src/xmc_math.c ****                  (uint32_t) XMC_MATH_CORDIC_ROTVEC_MODE_ROTATION;
 918              	 .loc 1 403 0
 919 0014 5964     	 str r1,[r3,#68]
 920              	 .loc 1 405 0
 921 0016 1865     	 str r0,[r3,#80]
 406:../Libraries/XMCLib/src/xmc_math.c ****   MATH->CORDY  = 0U; /* Clear register */
 922              	 .loc 1 406 0
 923 0018 DA64     	 str r2,[r3,#76]
 407:../Libraries/XMCLib/src/xmc_math.c ****   MATH->CORDX  = XMC_MATH_RECIPROC_HYPERBOLIC_GAIN_IN_Q1_22 << MATH_CORDX_DATA_Pos;
 924              	 .loc 1 407 0
 925 001a 024A     	 ldr r2,.L62+4
 408:../Libraries/XMCLib/src/xmc_math.c **** }
 926              	 .loc 1 408 0
 927              	 
 407:../Libraries/XMCLib/src/xmc_math.c ****   MATH->CORDX  = XMC_MATH_RECIPROC_HYPERBOLIC_GAIN_IN_Q1_22 << MATH_CORDX_DATA_Pos;
 928              	 .loc 1 407 0
 929 001c 9A64     	 str r2,[r3,#72]
 930              	 .loc 1 408 0
 931 001e 7047     	 bx lr
 932              	.L63:
 933              	 .align 2
 934              	.L62:
 935 0020 00000340 	 .word 1073938432
 936 0024 00A1474D 	 .word 1296539904
 937              	 .cfi_endproc
 938              	.LFE87:
 940              	 .section .text.XMC_MATH_DIV_UnsignedDivNB,"ax",%progbits
 941              	 .align 2
 942              	 .global XMC_MATH_DIV_UnsignedDivNB
 943              	 .code 16
 944              	 .thumb_func
 946              	XMC_MATH_DIV_UnsignedDivNB:
 947              	.LFB88:
 409:../Libraries/XMCLib/src/xmc_math.c **** 
 410:../Libraries/XMCLib/src/xmc_math.c **** /* This function performs division for given two unsigned arguments */
 411:../Libraries/XMCLib/src/xmc_math.c **** void XMC_MATH_DIV_UnsignedDivNB(uint32_t dividend, uint32_t divisor)
 412:../Libraries/XMCLib/src/xmc_math.c **** {
 948              	 .loc 1 412 0
 949              	 .cfi_startproc
 950              	.LVL58:
 413:../Libraries/XMCLib/src/xmc_math.c ****   MATH->DIVCON = XMC_MATH_UNSIGNED_DIVISION;
 951              	 .loc 1 413 0
 952 0000 0422     	 mov r2,#4
 953 0002 024B     	 ldr r3,.L65
 414:../Libraries/XMCLib/src/xmc_math.c ****   MATH->DVD    = dividend;
 415:../Libraries/XMCLib/src/xmc_math.c ****   MATH->DVS    = divisor;
 416:../Libraries/XMCLib/src/xmc_math.c **** }
 954              	 .loc 1 416 0
 955              	 
 413:../Libraries/XMCLib/src/xmc_math.c ****   MATH->DIVCON = XMC_MATH_UNSIGNED_DIVISION;
 956              	 .loc 1 413 0
 957 0004 5A63     	 str r2,[r3,#52]
 414:../Libraries/XMCLib/src/xmc_math.c ****   MATH->DVD    = dividend;
 958              	 .loc 1 414 0
 959 0006 1862     	 str r0,[r3,#32]
 415:../Libraries/XMCLib/src/xmc_math.c **** }
 960              	 .loc 1 415 0
 961 0008 5962     	 str r1,[r3,#36]
 962              	 .loc 1 416 0
 963 000a 7047     	 bx lr
 964              	.L66:
 965              	 .align 2
 966              	.L65:
 967 000c 00000340 	 .word 1073938432
 968              	 .cfi_endproc
 969              	.LFE88:
 971              	 .section .text.XMC_MATH_DIV_SignedDivNB,"ax",%progbits
 972              	 .align 2
 973              	 .global XMC_MATH_DIV_SignedDivNB
 974              	 .code 16
 975              	 .thumb_func
 977              	XMC_MATH_DIV_SignedDivNB:
 978              	.LFB89:
 417:../Libraries/XMCLib/src/xmc_math.c **** 
 418:../Libraries/XMCLib/src/xmc_math.c **** /* This function performs division for given two signed arguments */
 419:../Libraries/XMCLib/src/xmc_math.c **** void XMC_MATH_DIV_SignedDivNB(int32_t dividend, int32_t divisor)
 420:../Libraries/XMCLib/src/xmc_math.c **** {
 979              	 .loc 1 420 0
 980              	 .cfi_startproc
 981              	.LVL59:
 421:../Libraries/XMCLib/src/xmc_math.c ****   MATH->DIVCON = XMC_MATH_SIGNED_DIVISION;
 982              	 .loc 1 421 0
 983 0000 0022     	 mov r2,#0
 984 0002 024B     	 ldr r3,.L68
 422:../Libraries/XMCLib/src/xmc_math.c ****   MATH->DVD    = dividend;
 423:../Libraries/XMCLib/src/xmc_math.c ****   MATH->DVS    = divisor;
 424:../Libraries/XMCLib/src/xmc_math.c **** }
 985              	 .loc 1 424 0
 986              	 
 421:../Libraries/XMCLib/src/xmc_math.c ****   MATH->DIVCON = XMC_MATH_SIGNED_DIVISION;
 987              	 .loc 1 421 0
 988 0004 5A63     	 str r2,[r3,#52]
 422:../Libraries/XMCLib/src/xmc_math.c ****   MATH->DVD    = dividend;
 989              	 .loc 1 422 0
 990 0006 1862     	 str r0,[r3,#32]
 423:../Libraries/XMCLib/src/xmc_math.c **** }
 991              	 .loc 1 423 0
 992 0008 5962     	 str r1,[r3,#36]
 993              	 .loc 1 424 0
 994 000a 7047     	 bx lr
 995              	.L69:
 996              	 .align 2
 997              	.L68:
 998 000c 00000340 	 .word 1073938432
 999              	 .cfi_endproc
 1000              	.LFE89:
 1002              	 .section .text.XMC_MATH_DIV_UnsignedModNB,"ax",%progbits
 1003              	 .align 2
 1004              	 .global XMC_MATH_DIV_UnsignedModNB
 1005              	 .code 16
 1006              	 .thumb_func
 1008              	XMC_MATH_DIV_UnsignedModNB:
 1009              	.LFB90:
 425:../Libraries/XMCLib/src/xmc_math.c **** 
 426:../Libraries/XMCLib/src/xmc_math.c **** /* This function performs modulo operation for given two unsigned arguments */
 427:../Libraries/XMCLib/src/xmc_math.c **** void XMC_MATH_DIV_UnsignedModNB(uint32_t dividend, uint32_t divisor)
 428:../Libraries/XMCLib/src/xmc_math.c **** {
 1010              	 .loc 1 428 0
 1011              	 .cfi_startproc
 1012              	.LVL60:
 429:../Libraries/XMCLib/src/xmc_math.c ****   MATH->DIVCON = XMC_MATH_UNSIGNED_DIVISION;
 1013              	 .loc 1 429 0
 1014 0000 0422     	 mov r2,#4
 1015 0002 024B     	 ldr r3,.L71
 430:../Libraries/XMCLib/src/xmc_math.c ****   MATH->DVD    = dividend;
 431:../Libraries/XMCLib/src/xmc_math.c ****   MATH->DVS    = divisor;
 432:../Libraries/XMCLib/src/xmc_math.c **** }
 1016              	 .loc 1 432 0
 1017              	 
 429:../Libraries/XMCLib/src/xmc_math.c ****   MATH->DIVCON = XMC_MATH_UNSIGNED_DIVISION;
 1018              	 .loc 1 429 0
 1019 0004 5A63     	 str r2,[r3,#52]
 430:../Libraries/XMCLib/src/xmc_math.c ****   MATH->DVD    = dividend;
 1020              	 .loc 1 430 0
 1021 0006 1862     	 str r0,[r3,#32]
 431:../Libraries/XMCLib/src/xmc_math.c **** }
 1022              	 .loc 1 431 0
 1023 0008 5962     	 str r1,[r3,#36]
 1024              	 .loc 1 432 0
 1025 000a 7047     	 bx lr
 1026              	.L72:
 1027              	 .align 2
 1028              	.L71:
 1029 000c 00000340 	 .word 1073938432
 1030              	 .cfi_endproc
 1031              	.LFE90:
 1033              	 .section .text.XMC_MATH_DIV_SignedModNB,"ax",%progbits
 1034              	 .align 2
 1035              	 .global XMC_MATH_DIV_SignedModNB
 1036              	 .code 16
 1037              	 .thumb_func
 1039              	XMC_MATH_DIV_SignedModNB:
 1040              	.LFB91:
 433:../Libraries/XMCLib/src/xmc_math.c **** 
 434:../Libraries/XMCLib/src/xmc_math.c **** /* This function performs modulo operation for given two signed arguments */
 435:../Libraries/XMCLib/src/xmc_math.c **** void XMC_MATH_DIV_SignedModNB(int32_t dividend, int32_t divisor)
 436:../Libraries/XMCLib/src/xmc_math.c **** {
 1041              	 .loc 1 436 0
 1042              	 .cfi_startproc
 1043              	.LVL61:
 437:../Libraries/XMCLib/src/xmc_math.c ****   MATH->DIVCON = XMC_MATH_SIGNED_DIVISION;
 1044              	 .loc 1 437 0
 1045 0000 0022     	 mov r2,#0
 1046 0002 024B     	 ldr r3,.L74
 438:../Libraries/XMCLib/src/xmc_math.c ****   MATH->DVD    = dividend;
 439:../Libraries/XMCLib/src/xmc_math.c ****   MATH->DVS    = divisor;
 440:../Libraries/XMCLib/src/xmc_math.c **** }
 1047              	 .loc 1 440 0
 1048              	 
 437:../Libraries/XMCLib/src/xmc_math.c ****   MATH->DIVCON = XMC_MATH_SIGNED_DIVISION;
 1049              	 .loc 1 437 0
 1050 0004 5A63     	 str r2,[r3,#52]
 438:../Libraries/XMCLib/src/xmc_math.c ****   MATH->DVD    = dividend;
 1051              	 .loc 1 438 0
 1052 0006 1862     	 str r0,[r3,#32]
 439:../Libraries/XMCLib/src/xmc_math.c **** }
 1053              	 .loc 1 439 0
 1054 0008 5962     	 str r1,[r3,#36]
 1055              	 .loc 1 440 0
 1056 000a 7047     	 bx lr
 1057              	.L75:
 1058              	 .align 2
 1059              	.L74:
 1060 000c 00000340 	 .word 1073938432
 1061              	 .cfi_endproc
 1062              	.LFE91:
 1064              	 .section .text.XMC_MATH_CORDIC_Q15_Sqrt,"ax",%progbits
 1065              	 .align 2
 1066              	 .global XMC_MATH_CORDIC_Q15_Sqrt
 1067              	 .code 16
 1068              	 .thumb_func
 1070              	XMC_MATH_CORDIC_Q15_Sqrt:
 1071              	.LFB92:
 441:../Libraries/XMCLib/src/xmc_math.c **** 
 442:../Libraries/XMCLib/src/xmc_math.c **** int16_t XMC_MATH_CORDIC_Q15_Sqrt(int16_t x)
 443:../Libraries/XMCLib/src/xmc_math.c **** {
 1072              	 .loc 1 443 0
 1073              	 .cfi_startproc
 1074              	.LVL62:
 444:../Libraries/XMCLib/src/xmc_math.c ****   int32_t temp;
 445:../Libraries/XMCLib/src/xmc_math.c ****   MATH->STATC = 0U; /* Clear register */
 1075              	 .loc 1 445 0
 1076 0000 0022     	 mov r2,#0
 1077 0002 0A4B     	 ldr r3,.L77
 446:../Libraries/XMCLib/src/xmc_math.c **** 
 447:../Libraries/XMCLib/src/xmc_math.c ****   MATH->CON   = (uint32_t)XMC_MATH_CORDIC_OPERATING_MODE_HYPERBOLIC |
 448:../Libraries/XMCLib/src/xmc_math.c ****                 (uint32_t)XMC_MATH_CORDIC_ROTVEC_MODE_VECTORING;
 449:../Libraries/XMCLib/src/xmc_math.c **** 
 450:../Libraries/XMCLib/src/xmc_math.c ****   temp = (int32_t)x << 15; /* Q30 to handle numbers > 1.0 */
 1078              	 .loc 1 450 0
 1079 0004 C003     	 lsl r0,r0,#15
 1080              	.LVL63:
 445:../Libraries/XMCLib/src/xmc_math.c **** 
 1081              	 .loc 1 445 0
 1082 0006 1A64     	 str r2,[r3,#64]
 447:../Libraries/XMCLib/src/xmc_math.c ****                 (uint32_t)XMC_MATH_CORDIC_ROTVEC_MODE_VECTORING;
 1083              	 .loc 1 447 0
 1084 0008 0632     	 add r2,r2,#6
 1085 000a 5A64     	 str r2,[r3,#68]
 451:../Libraries/XMCLib/src/xmc_math.c **** 
 452:../Libraries/XMCLib/src/xmc_math.c ****   MATH->CORDY = (temp - 0x10000000U); /* x - 0.25 */
 1086              	 .loc 1 452 0
 1087 000c F022     	 mov r2,#240
 1088 000e 1206     	 lsl r2,r2,#24
 1089 0010 8218     	 add r2,r0,r2
 1090 0012 DA64     	 str r2,[r3,#76]
 453:../Libraries/XMCLib/src/xmc_math.c ****   MATH->CORDX = (temp + 0x10000000U); /* x + 0.25 */
 1091              	 .loc 1 453 0
 1092 0014 8022     	 mov r2,#128
 1093 0016 5205     	 lsl r2,r2,#21
 1094 0018 9446     	 mov ip,r2
 1095 001a 6044     	 add r0,r0,ip
 1096 001c 9864     	 str r0,[r3,#72]
 454:../Libraries/XMCLib/src/xmc_math.c **** 
 455:../Libraries/XMCLib/src/xmc_math.c ****   return (int16_t)(((MATH->CORRX >> 14) * 39568) >> 16); /* Q16 * Q15 */
 1097              	 .loc 1 455 0
 1098 001e 586D     	 ldr r0,[r3,#84]
 1099 0020 034B     	 ldr r3,.L77+4
 1100 0022 800B     	 lsr r0,r0,#14
 1101 0024 5843     	 mul r0,r3
 456:../Libraries/XMCLib/src/xmc_math.c **** }
 1102              	 .loc 1 456 0
 1103              	 
 455:../Libraries/XMCLib/src/xmc_math.c **** }
 1104              	 .loc 1 455 0
 1105 0026 0014     	 asr r0,r0,#16
 1106              	 .loc 1 456 0
 1107 0028 7047     	 bx lr
 1108              	.L78:
 1109 002a C046     	 .align 2
 1110              	.L77:
 1111 002c 00000340 	 .word 1073938432
 1112 0030 909A0000 	 .word 39568
 1113              	 .cfi_endproc
 1114              	.LFE92:
 1116              	 .section .text.XMC_MATH_CORDIC_Q31_Sqrt,"ax",%progbits
 1117              	 .align 2
 1118              	 .global XMC_MATH_CORDIC_Q31_Sqrt
 1119              	 .code 16
 1120              	 .thumb_func
 1122              	XMC_MATH_CORDIC_Q31_Sqrt:
 1123              	.LFB93:
 457:../Libraries/XMCLib/src/xmc_math.c **** 
 458:../Libraries/XMCLib/src/xmc_math.c **** int32_t XMC_MATH_CORDIC_Q31_Sqrt(int32_t x)
 459:../Libraries/XMCLib/src/xmc_math.c **** {
 1124              	 .loc 1 459 0
 1125              	 .cfi_startproc
 1126              	.LVL64:
 460:../Libraries/XMCLib/src/xmc_math.c ****   MATH->STATC = 0U; /* Clear register */
 1127              	 .loc 1 460 0
 1128 0000 0022     	 mov r2,#0
 1129 0002 094B     	 ldr r3,.L80
 461:../Libraries/XMCLib/src/xmc_math.c **** 
 462:../Libraries/XMCLib/src/xmc_math.c ****   MATH->CON   = (uint32_t)XMC_MATH_CORDIC_OPERATING_MODE_HYPERBOLIC |
 463:../Libraries/XMCLib/src/xmc_math.c ****                 (uint32_t)XMC_MATH_CORDIC_ROTVEC_MODE_VECTORING;
 464:../Libraries/XMCLib/src/xmc_math.c **** 
 465:../Libraries/XMCLib/src/xmc_math.c ****   x >>= 1;  /* Q30 to handle numbers > 1.0 */
 1130              	 .loc 1 465 0
 1131 0004 4010     	 asr r0,r0,#1
 1132              	.LVL65:
 460:../Libraries/XMCLib/src/xmc_math.c ****   MATH->STATC = 0U; /* Clear register */
 1133              	 .loc 1 460 0
 1134 0006 1A64     	 str r2,[r3,#64]
 462:../Libraries/XMCLib/src/xmc_math.c ****                 (uint32_t)XMC_MATH_CORDIC_ROTVEC_MODE_VECTORING;
 1135              	 .loc 1 462 0
 1136 0008 0632     	 add r2,r2,#6
 1137 000a 5A64     	 str r2,[r3,#68]
 1138              	.LVL66:
 466:../Libraries/XMCLib/src/xmc_math.c **** 
 467:../Libraries/XMCLib/src/xmc_math.c ****   MATH->CORDY = (x - 0x10000000U); /* x - 0.25 */
 1139              	 .loc 1 467 0
 1140 000c F022     	 mov r2,#240
 1141 000e 1206     	 lsl r2,r2,#24
 1142 0010 8218     	 add r2,r0,r2
 1143 0012 DA64     	 str r2,[r3,#76]
 468:../Libraries/XMCLib/src/xmc_math.c ****   MATH->CORDX = (x + 0x10000000U); /* x + 0.25 */
 1144              	 .loc 1 468 0
 1145 0014 8022     	 mov r2,#128
 1146 0016 5205     	 lsl r2,r2,#21
 1147 0018 9446     	 mov ip,r2
 1148 001a 6044     	 add r0,r0,ip
 1149 001c 9864     	 str r0,[r3,#72]
 469:../Libraries/XMCLib/src/xmc_math.c **** 
 470:../Libraries/XMCLib/src/xmc_math.c ****   return ((MATH->CORRX >> 14) * 39568); /* Q16 * Q15 */
 1150              	 .loc 1 470 0
 1151 001e 586D     	 ldr r0,[r3,#84]
 1152 0020 024B     	 ldr r3,.L80+4
 1153 0022 800B     	 lsr r0,r0,#14
 1154 0024 5843     	 mul r0,r3
 471:../Libraries/XMCLib/src/xmc_math.c **** }
 1155              	 .loc 1 471 0
 1156              	 
 1157 0026 7047     	 bx lr
 1158              	.L81:
 1159              	 .align 2
 1160              	.L80:
 1161 0028 00000340 	 .word 1073938432
 1162 002c 909A0000 	 .word 39568
 1163              	 .cfi_endproc
 1164              	.LFE93:
 1166              	 .text
 1167              	.Letext0:
 1168              	 .file 2 "c:\\users\\jutta.schuerba\\desktop\\dave-ide-4.4.2-64bit\\eclipse\\arm-gcc-49\\arm-none-eabi\\include\\machine\\_default_types.h"
 1169              	 .file 3 "c:\\users\\jutta.schuerba\\desktop\\dave-ide-4.4.2-64bit\\eclipse\\arm-gcc-49\\arm-none-eabi\\include\\stdint.h"
 1170              	 .file 4 "C:/Workspaces/DAVE-4.4.2-64Bit/WIRELESS_CHARGER_RECVEIVER_delivered/Libraries/CMSIS/Infineon/XMC1300_series/Include/XMC1300.h"
 1171              	 .file 5 "C:/Workspaces/DAVE-4.4.2-64Bit/WIRELESS_CHARGER_RECVEIVER_delivered/Libraries/XMCLib/inc/xmc_math.h"
 1172              	 .file 6 "C:/Workspaces/DAVE-4.4.2-64Bit/WIRELESS_CHARGER_RECVEIVER_delivered/Libraries/CMSIS/Infineon/XMC1300_series/Include/system_XMC1300.h"