   1              	 .cpu cortex-m0
   2              	 .fpu softvfp
   3              	 .eabi_attribute 20,1
   4              	 .eabi_attribute 21,1
   5              	 .eabi_attribute 23,3
   6              	 .eabi_attribute 24,1
   7              	 .eabi_attribute 25,1
   8              	 .eabi_attribute 26,1
   9              	 .eabi_attribute 30,2
  10              	 .eabi_attribute 34,0
  11              	 .eabi_attribute 18,4
  12              	 .code 16
  13              	 .file "xmc_ccu4.c"
  14              	 .text
  15              	.Ltext0:
  16              	 .cfi_sections .debug_frame
  17              	 .section .text.XMC_CCU4_EnableModule,"ax",%progbits
  18              	 .align 2
  19              	 .global XMC_CCU4_EnableModule
  20              	 .code 16
  21              	 .thumb_func
  23              	XMC_CCU4_EnableModule:
  24              	.LFB93:
  25              	 .file 1 "../Libraries/XMCLib/src/xmc_ccu4.c"
   1:../Libraries/XMCLib/src/xmc_ccu4.c **** /**
   2:../Libraries/XMCLib/src/xmc_ccu4.c ****  * @file xmc_ccu4.c
   3:../Libraries/XMCLib/src/xmc_ccu4.c ****  * @date 2017-04-27
   4:../Libraries/XMCLib/src/xmc_ccu4.c ****  *
   5:../Libraries/XMCLib/src/xmc_ccu4.c ****  * @cond
   6:../Libraries/XMCLib/src/xmc_ccu4.c ****  **************************************************************************************************
   7:../Libraries/XMCLib/src/xmc_ccu4.c ****  * XMClib v2.1.16 - XMC Peripheral Driver Library 
   8:../Libraries/XMCLib/src/xmc_ccu4.c ****  *
   9:../Libraries/XMCLib/src/xmc_ccu4.c ****  * Copyright (c) 2015-2017, Infineon Technologies AG
  10:../Libraries/XMCLib/src/xmc_ccu4.c ****  * All rights reserved.                        
  11:../Libraries/XMCLib/src/xmc_ccu4.c ****  *                                             
  12:../Libraries/XMCLib/src/xmc_ccu4.c ****  * Redistribution and use in source and binary forms, with or without modification,are permitted pr
  13:../Libraries/XMCLib/src/xmc_ccu4.c ****  * following conditions are met:   
  14:../Libraries/XMCLib/src/xmc_ccu4.c ****  *                                                                              
  15:../Libraries/XMCLib/src/xmc_ccu4.c ****  * Redistributions of source code must retain the above copyright notice, this list of conditions a
  16:../Libraries/XMCLib/src/xmc_ccu4.c ****  * disclaimer.                        
  17:../Libraries/XMCLib/src/xmc_ccu4.c ****  * 
  18:../Libraries/XMCLib/src/xmc_ccu4.c ****  * Redistributions in binary form must reproduce the above copyright notice, this list of condition
  19:../Libraries/XMCLib/src/xmc_ccu4.c ****  * disclaimer in the documentation and/or other materials provided with the distribution.          
  20:../Libraries/XMCLib/src/xmc_ccu4.c ****  * 
  21:../Libraries/XMCLib/src/xmc_ccu4.c ****  * Neither the name of the copyright holders nor the names of its contributors may be used to endor
  22:../Libraries/XMCLib/src/xmc_ccu4.c ****  * products derived from this software without specific prior written permission.                  
  23:../Libraries/XMCLib/src/xmc_ccu4.c ****  *                                                                              
  24:../Libraries/XMCLib/src/xmc_ccu4.c ****  * THIS SOFTWARE IS PROVIDED BY THE COPYRIGHT HOLDERS AND CONTRIBUTORS "AS IS" AND ANY EXPRESS OR I
  25:../Libraries/XMCLib/src/xmc_ccu4.c ****  * INCLUDING, BUT NOT LIMITED TO, THE IMPLIED WARRANTIES OF MERCHANTABILITY AND FITNESS FOR A PARTI
  26:../Libraries/XMCLib/src/xmc_ccu4.c ****  * DISCLAIMED. IN NO EVENT SHALL THE COPYRIGHT HOLDER OR CONTRIBUTORS BE LIABLE  FOR ANY DIRECT, IN
  27:../Libraries/XMCLib/src/xmc_ccu4.c ****  * SPECIAL, EXEMPLARY, OR CONSEQUENTIAL DAMAGES (INCLUDING, BUT NOT LIMITED TO, PROCUREMENT OF SUBS
  28:../Libraries/XMCLib/src/xmc_ccu4.c ****  * SERVICES; LOSS OF USE, DATA, OR PROFITS; OR BUSINESS INTERRUPTION) HOWEVER CAUSED AND ON ANY THE
  29:../Libraries/XMCLib/src/xmc_ccu4.c ****  * WHETHER IN CONTRACT, STRICT LIABILITY,OR TORT (INCLUDING NEGLIGENCE OR OTHERWISE) ARISING IN ANY
  30:../Libraries/XMCLib/src/xmc_ccu4.c ****  * OF THIS SOFTWARE, EVEN IF ADVISED OF THE POSSIBILITY OF SUCH DAMAGE.                            
  31:../Libraries/XMCLib/src/xmc_ccu4.c ****  *                                                                              
  32:../Libraries/XMCLib/src/xmc_ccu4.c ****  * To improve the quality of the software, users are encouraged to share modifications, enhancement
  33:../Libraries/XMCLib/src/xmc_ccu4.c ****  * Infineon Technologies AG dave@infineon.com).                                                    
  34:../Libraries/XMCLib/src/xmc_ccu4.c ****  **************************************************************************************************
  35:../Libraries/XMCLib/src/xmc_ccu4.c ****  *
  36:../Libraries/XMCLib/src/xmc_ccu4.c ****  * Change History
  37:../Libraries/XMCLib/src/xmc_ccu4.c ****  * --------------
  38:../Libraries/XMCLib/src/xmc_ccu4.c ****  *
  39:../Libraries/XMCLib/src/xmc_ccu4.c ****  * 2015-02-20:
  40:../Libraries/XMCLib/src/xmc_ccu4.c ****  *     - Initial <br>
  41:../Libraries/XMCLib/src/xmc_ccu4.c ****  *
  42:../Libraries/XMCLib/src/xmc_ccu4.c ****  * 2015-06-20:
  43:../Libraries/XMCLib/src/xmc_ccu4.c ****  *     - Removed definition of GetDriverVersion API <br>
  44:../Libraries/XMCLib/src/xmc_ccu4.c ****  *
  45:../Libraries/XMCLib/src/xmc_ccu4.c ****  * 2015-07-01:
  46:../Libraries/XMCLib/src/xmc_ccu4.c ****  *     - In XMC_CCU4_SLICE_StartConfig(), Options in XMC_ASSERT check for start mode is corrected. 
  47:../Libraries/XMCLib/src/xmc_ccu4.c ****  *
  48:../Libraries/XMCLib/src/xmc_ccu4.c ****  * 2015-07-24:
  49:../Libraries/XMCLib/src/xmc_ccu4.c ****  *     - XMC_CCU4_SLICE_ConfigureStatusBitOverrideEvent() is updated to support XMC14 device. <br>
  50:../Libraries/XMCLib/src/xmc_ccu4.c ****  *
  51:../Libraries/XMCLib/src/xmc_ccu4.c ****  * 2015-08-17:
  52:../Libraries/XMCLib/src/xmc_ccu4.c ****  *     - Start of prescaler XMC_CCU4_StartPrescaler() is invoked in XMC_CCU4_Init() API. <br>
  53:../Libraries/XMCLib/src/xmc_ccu4.c ****  *     - Bug fix XMC_CCU4_SLICE_ConfigureEvent() during the level setting for XMC14 devices. <br>
  54:../Libraries/XMCLib/src/xmc_ccu4.c ****  *     - XMC_CCU4_EnableShadowTransfer() definition is removed, since the API is made as inline. <b
  55:../Libraries/XMCLib/src/xmc_ccu4.c ****  *
  56:../Libraries/XMCLib/src/xmc_ccu4.c ****  * 2015-10-07:
  57:../Libraries/XMCLib/src/xmc_ccu4.c ****  *     - XMC_CCU4_SLICE_GetEvent() is made as inline.
  58:../Libraries/XMCLib/src/xmc_ccu4.c ****  *     - DOC updates for the newly added APIs.
  59:../Libraries/XMCLib/src/xmc_ccu4.c ****  *
  60:../Libraries/XMCLib/src/xmc_ccu4.c ****  * 2017-02-25:
  61:../Libraries/XMCLib/src/xmc_ccu4.c ****  *     - XMC_CCU4_lAssertReset(), XMC_CCU4_lDeassertReset(), XMC_CCU4_lGateClock() and XMC_CCU4_lUn
  62:../Libraries/XMCLib/src/xmc_ccu4.c ****  *
  63:../Libraries/XMCLib/src/xmc_ccu4.c ****  * 2017-04-27:
  64:../Libraries/XMCLib/src/xmc_ccu4.c ****  *     - XMC_CCU4_SLICE_SetPrescaler() changed div_val parameter to type XMC_CCU4_SLICE_PRESCALER_t
  65:../Libraries/XMCLib/src/xmc_ccu4.c ****  *
  66:../Libraries/XMCLib/src/xmc_ccu4.c ****  * @endcond
  67:../Libraries/XMCLib/src/xmc_ccu4.c ****  */
  68:../Libraries/XMCLib/src/xmc_ccu4.c ****  
  69:../Libraries/XMCLib/src/xmc_ccu4.c **** /**************************************************************************************************
  70:../Libraries/XMCLib/src/xmc_ccu4.c ****  * HEADER FILES
  71:../Libraries/XMCLib/src/xmc_ccu4.c ****  **************************************************************************************************
  72:../Libraries/XMCLib/src/xmc_ccu4.c **** #include "xmc_ccu4.h"
  73:../Libraries/XMCLib/src/xmc_ccu4.c **** 
  74:../Libraries/XMCLib/src/xmc_ccu4.c **** #if defined(CCU40)
  75:../Libraries/XMCLib/src/xmc_ccu4.c **** #include "xmc_scu.h"
  76:../Libraries/XMCLib/src/xmc_ccu4.c **** /**************************************************************************************************
  77:../Libraries/XMCLib/src/xmc_ccu4.c ****  * MACROS
  78:../Libraries/XMCLib/src/xmc_ccu4.c ****  **************************************************************************************************
  79:../Libraries/XMCLib/src/xmc_ccu4.c **** #define XMC_CCU4_NUM_SLICES_PER_MODULE          (4U)
  80:../Libraries/XMCLib/src/xmc_ccu4.c **** #define XMC_CCU4_SLICE_DITHER_PERIOD_MASK       (1U)
  81:../Libraries/XMCLib/src/xmc_ccu4.c **** #define XMC_CCU4_SLICE_DITHER_DUTYCYCLE_MASK    (2U)
  82:../Libraries/XMCLib/src/xmc_ccu4.c **** #define XMC_CCU4_SLICE_EVENT_EDGE_CONFIG_MASK   (3U)
  83:../Libraries/XMCLib/src/xmc_ccu4.c **** #define XMC_CCU4_SLICE_EVENT_LEVEL_CONFIG_MASK  (1U)
  84:../Libraries/XMCLib/src/xmc_ccu4.c **** #define XMC_CCU4_SLICE_EVENT_FILTER_CONFIG_MASK (3U)
  85:../Libraries/XMCLib/src/xmc_ccu4.c **** #if defined(CCU4V3) /* Defined for XMC1400 devices only */
  86:../Libraries/XMCLib/src/xmc_ccu4.c **** #define XMC_CCU4_SLICE_EVENT_INPUT_CONFIG_MASK  CCU4_CC4_INS1_EV0IS_Msk
  87:../Libraries/XMCLib/src/xmc_ccu4.c **** #else
  88:../Libraries/XMCLib/src/xmc_ccu4.c **** #define XMC_CCU4_SLICE_EVENT_INPUT_CONFIG_MASK  CCU4_CC4_INS_EV0IS_Msk
  89:../Libraries/XMCLib/src/xmc_ccu4.c **** #endif
  90:../Libraries/XMCLib/src/xmc_ccu4.c **** #define XMC_CCU4_GIDLC_CLOCK_MASK               (15U)
  91:../Libraries/XMCLib/src/xmc_ccu4.c **** #define XMC_CCU4_GCSS_SLICE0_MASK               (1U)
  92:../Libraries/XMCLib/src/xmc_ccu4.c **** #define XMC_CCU4_GCSS_SLICE1_MASK               (16U)
  93:../Libraries/XMCLib/src/xmc_ccu4.c **** #define XMC_CCU4_GCSS_SLICE2_MASK               (256U)
  94:../Libraries/XMCLib/src/xmc_ccu4.c **** #define XMC_CCU4_GCSS_SLICE3_MASK               (4096U)
  95:../Libraries/XMCLib/src/xmc_ccu4.c **** 
  96:../Libraries/XMCLib/src/xmc_ccu4.c **** /** Macro to check if the clock selected enum passed is valid */
  97:../Libraries/XMCLib/src/xmc_ccu4.c **** #define XMC_CCU4_SLICE_CHECK_CLOCK(clock) \
  98:../Libraries/XMCLib/src/xmc_ccu4.c ****     ((clock == XMC_CCU4_CLOCK_SCU)        || \
  99:../Libraries/XMCLib/src/xmc_ccu4.c ****      (clock == XMC_CCU4_CLOCK_EXTERNAL_A) || \
 100:../Libraries/XMCLib/src/xmc_ccu4.c ****      (clock == XMC_CCU4_CLOCK_EXTERNAL_B) || \
 101:../Libraries/XMCLib/src/xmc_ccu4.c ****      (clock == XMC_CCU4_CLOCK_EXTERNAL_C))
 102:../Libraries/XMCLib/src/xmc_ccu4.c **** 
 103:../Libraries/XMCLib/src/xmc_ccu4.c **** /** Macro used to check if the event ID is valid*/
 104:../Libraries/XMCLib/src/xmc_ccu4.c **** #define XMC_CCU4_SLICE_CHECK_EVENT_ID(event_id) \
 105:../Libraries/XMCLib/src/xmc_ccu4.c ****     ((event_id == XMC_CCU4_SLICE_EVENT_NONE)|| \
 106:../Libraries/XMCLib/src/xmc_ccu4.c ****      (event_id == XMC_CCU4_SLICE_EVENT_0)   || \
 107:../Libraries/XMCLib/src/xmc_ccu4.c ****      (event_id == XMC_CCU4_SLICE_EVENT_1)   || \
 108:../Libraries/XMCLib/src/xmc_ccu4.c ****      (event_id == XMC_CCU4_SLICE_EVENT_2))
 109:../Libraries/XMCLib/src/xmc_ccu4.c **** 
 110:../Libraries/XMCLib/src/xmc_ccu4.c **** /** Macro used to check if the edge sensitivity is valid*/
 111:../Libraries/XMCLib/src/xmc_ccu4.c **** #define XMC_CCU4_SLICE_CHECK_EDGE_SENSITIVITY(edge) \
 112:../Libraries/XMCLib/src/xmc_ccu4.c ****     ((edge == XMC_CCU4_SLICE_EVENT_EDGE_SENSITIVITY_NONE)        || \
 113:../Libraries/XMCLib/src/xmc_ccu4.c ****      (edge == XMC_CCU4_SLICE_EVENT_EDGE_SENSITIVITY_RISING_EDGE) || \
 114:../Libraries/XMCLib/src/xmc_ccu4.c ****      (edge == XMC_CCU4_SLICE_EVENT_EDGE_SENSITIVITY_FALLING_EDGE)|| \
 115:../Libraries/XMCLib/src/xmc_ccu4.c ****      (edge == XMC_CCU4_SLICE_EVENT_EDGE_SENSITIVITY_DUAL_EDGE))
 116:../Libraries/XMCLib/src/xmc_ccu4.c **** 
 117:../Libraries/XMCLib/src/xmc_ccu4.c **** /** Macro used to check if the filter clock cycles are valid */
 118:../Libraries/XMCLib/src/xmc_ccu4.c **** #define XMC_CCU4_SLICE_CHECK_EVENT_FILTER(cycles) \
 119:../Libraries/XMCLib/src/xmc_ccu4.c ****     ((cycles == XMC_CCU4_SLICE_EVENT_FILTER_DISABLED) || \
 120:../Libraries/XMCLib/src/xmc_ccu4.c ****      (cycles == XMC_CCU4_SLICE_EVENT_FILTER_3_CYCLES) || \
 121:../Libraries/XMCLib/src/xmc_ccu4.c ****      (cycles == XMC_CCU4_SLICE_EVENT_FILTER_5_CYCLES) || \
 122:../Libraries/XMCLib/src/xmc_ccu4.c ****      (cycles == XMC_CCU4_SLICE_EVENT_FILTER_7_CYCLES))
 123:../Libraries/XMCLib/src/xmc_ccu4.c **** 
 124:../Libraries/XMCLib/src/xmc_ccu4.c **** /** Macro used to check if the Multi-channel input related action is valid*/
 125:../Libraries/XMCLib/src/xmc_ccu4.c **** #define XMC_CCU4_SLICE_CHECK_MCS_ACTION(mcs_action) \
 126:../Libraries/XMCLib/src/xmc_ccu4.c ****     ((mcs_action == XMC_CCU4_SLICE_MCMS_ACTION_TRANSFER_PR_CR)      || \
 127:../Libraries/XMCLib/src/xmc_ccu4.c ****      (mcs_action == XMC_CCU4_SLICE_MCMS_ACTION_TRANSFER_PR_CR_PCMP) || \
 128:../Libraries/XMCLib/src/xmc_ccu4.c ****      (mcs_action == XMC_CCU4_SLICE_MCMS_ACTION_TRANSFER_PR_CR_PCMP_DIT))
 129:../Libraries/XMCLib/src/xmc_ccu4.c **** 
 130:../Libraries/XMCLib/src/xmc_ccu4.c **** /** Macro used to check if the SR line is valid*/
 131:../Libraries/XMCLib/src/xmc_ccu4.c **** #define XMC_CCU4_SLICE_CHECK_SR_ID(id) \
 132:../Libraries/XMCLib/src/xmc_ccu4.c ****     ((id == XMC_CCU4_SLICE_SR_ID_0) || \
 133:../Libraries/XMCLib/src/xmc_ccu4.c ****      (id == XMC_CCU4_SLICE_SR_ID_1) || \
 134:../Libraries/XMCLib/src/xmc_ccu4.c ****      (id == XMC_CCU4_SLICE_SR_ID_2) || \
 135:../Libraries/XMCLib/src/xmc_ccu4.c ****      (id == XMC_CCU4_SLICE_SR_ID_3))
 136:../Libraries/XMCLib/src/xmc_ccu4.c **** 
 137:../Libraries/XMCLib/src/xmc_ccu4.c **** /** Macro to check if the end mode enum passed is valid */
 138:../Libraries/XMCLib/src/xmc_ccu4.c **** #define XMC_CCU4_CHECK_END_MODE(end_mode) \
 139:../Libraries/XMCLib/src/xmc_ccu4.c ****     ((end_mode == XMC_CCU4_SLICE_END_MODE_TIMER_STOP) || \
 140:../Libraries/XMCLib/src/xmc_ccu4.c ****      (end_mode == XMC_CCU4_SLICE_END_MODE_TIMER_CLEAR) || \
 141:../Libraries/XMCLib/src/xmc_ccu4.c ****      (end_mode == XMC_CCU4_SLICE_END_MODE_TIMER_STOP_CLEAR))
 142:../Libraries/XMCLib/src/xmc_ccu4.c **** 
 143:../Libraries/XMCLib/src/xmc_ccu4.c **** /**************************************************************************************************
 144:../Libraries/XMCLib/src/xmc_ccu4.c ****  * LOCAL ROUTINES
 145:../Libraries/XMCLib/src/xmc_ccu4.c ****  **************************************************************************************************
 146:../Libraries/XMCLib/src/xmc_ccu4.c **** #if defined(PERIPHERAL_RESET_SUPPORTED)
 147:../Libraries/XMCLib/src/xmc_ccu4.c **** __STATIC_INLINE void XMC_CCU4_lAssertReset(const XMC_CCU4_MODULE_t *const module)
 148:../Libraries/XMCLib/src/xmc_ccu4.c **** {
 149:../Libraries/XMCLib/src/xmc_ccu4.c ****   if (module == CCU40)
 150:../Libraries/XMCLib/src/xmc_ccu4.c ****   {
 151:../Libraries/XMCLib/src/xmc_ccu4.c ****     XMC_SCU_RESET_AssertPeripheralReset(XMC_SCU_PERIPHERAL_RESET_CCU40);
 152:../Libraries/XMCLib/src/xmc_ccu4.c ****   }
 153:../Libraries/XMCLib/src/xmc_ccu4.c **** #if defined(CCU41)
 154:../Libraries/XMCLib/src/xmc_ccu4.c ****   else if (module == CCU41)
 155:../Libraries/XMCLib/src/xmc_ccu4.c ****   {
 156:../Libraries/XMCLib/src/xmc_ccu4.c ****     XMC_SCU_RESET_AssertPeripheralReset(XMC_SCU_PERIPHERAL_RESET_CCU41);
 157:../Libraries/XMCLib/src/xmc_ccu4.c ****   }
 158:../Libraries/XMCLib/src/xmc_ccu4.c **** #endif
 159:../Libraries/XMCLib/src/xmc_ccu4.c **** #if defined(CCU42)
 160:../Libraries/XMCLib/src/xmc_ccu4.c ****   else if (module == CCU42)
 161:../Libraries/XMCLib/src/xmc_ccu4.c ****   {
 162:../Libraries/XMCLib/src/xmc_ccu4.c ****     XMC_SCU_RESET_AssertPeripheralReset(XMC_SCU_PERIPHERAL_RESET_CCU42);
 163:../Libraries/XMCLib/src/xmc_ccu4.c ****   }
 164:../Libraries/XMCLib/src/xmc_ccu4.c **** #endif
 165:../Libraries/XMCLib/src/xmc_ccu4.c **** #if defined(CCU43)
 166:../Libraries/XMCLib/src/xmc_ccu4.c ****   else if (module == CCU43)
 167:../Libraries/XMCLib/src/xmc_ccu4.c ****   {
 168:../Libraries/XMCLib/src/xmc_ccu4.c ****     XMC_SCU_RESET_AssertPeripheralReset(XMC_SCU_PERIPHERAL_RESET_CCU43);
 169:../Libraries/XMCLib/src/xmc_ccu4.c ****   }
 170:../Libraries/XMCLib/src/xmc_ccu4.c **** #endif
 171:../Libraries/XMCLib/src/xmc_ccu4.c ****   else
 172:../Libraries/XMCLib/src/xmc_ccu4.c ****   {
 173:../Libraries/XMCLib/src/xmc_ccu4.c ****     XMC_ASSERT("XMC_CCU4_lAssertReset:Invalid Module Pointer", 0);
 174:../Libraries/XMCLib/src/xmc_ccu4.c ****   }
 175:../Libraries/XMCLib/src/xmc_ccu4.c **** }
 176:../Libraries/XMCLib/src/xmc_ccu4.c **** 
 177:../Libraries/XMCLib/src/xmc_ccu4.c **** __STATIC_INLINE void XMC_CCU4_lDeassertReset(const XMC_CCU4_MODULE_t *const module)
 178:../Libraries/XMCLib/src/xmc_ccu4.c **** {
 179:../Libraries/XMCLib/src/xmc_ccu4.c ****   if (module == CCU40)
 180:../Libraries/XMCLib/src/xmc_ccu4.c ****   {
 181:../Libraries/XMCLib/src/xmc_ccu4.c ****     XMC_SCU_RESET_DeassertPeripheralReset(XMC_SCU_PERIPHERAL_RESET_CCU40);
 182:../Libraries/XMCLib/src/xmc_ccu4.c ****   }
 183:../Libraries/XMCLib/src/xmc_ccu4.c **** #if defined(CCU41)
 184:../Libraries/XMCLib/src/xmc_ccu4.c ****   else if (module == CCU41)
 185:../Libraries/XMCLib/src/xmc_ccu4.c ****   {
 186:../Libraries/XMCLib/src/xmc_ccu4.c ****     XMC_SCU_RESET_DeassertPeripheralReset(XMC_SCU_PERIPHERAL_RESET_CCU41);
 187:../Libraries/XMCLib/src/xmc_ccu4.c ****   }
 188:../Libraries/XMCLib/src/xmc_ccu4.c **** #endif
 189:../Libraries/XMCLib/src/xmc_ccu4.c **** #if defined(CCU42)
 190:../Libraries/XMCLib/src/xmc_ccu4.c ****   else if (module == CCU42)
 191:../Libraries/XMCLib/src/xmc_ccu4.c ****   {
 192:../Libraries/XMCLib/src/xmc_ccu4.c ****     XMC_SCU_RESET_DeassertPeripheralReset(XMC_SCU_PERIPHERAL_RESET_CCU42);
 193:../Libraries/XMCLib/src/xmc_ccu4.c ****   }
 194:../Libraries/XMCLib/src/xmc_ccu4.c **** #endif
 195:../Libraries/XMCLib/src/xmc_ccu4.c **** #if defined(CCU43)
 196:../Libraries/XMCLib/src/xmc_ccu4.c ****   else if (module == CCU43)
 197:../Libraries/XMCLib/src/xmc_ccu4.c ****   {
 198:../Libraries/XMCLib/src/xmc_ccu4.c ****     XMC_SCU_RESET_DeassertPeripheralReset(XMC_SCU_PERIPHERAL_RESET_CCU43);
 199:../Libraries/XMCLib/src/xmc_ccu4.c ****   }
 200:../Libraries/XMCLib/src/xmc_ccu4.c **** #endif
 201:../Libraries/XMCLib/src/xmc_ccu4.c ****   else
 202:../Libraries/XMCLib/src/xmc_ccu4.c ****   {
 203:../Libraries/XMCLib/src/xmc_ccu4.c ****     XMC_ASSERT("XMC_CCU4_lDeassertReset:Invalid Module Pointer", 0);
 204:../Libraries/XMCLib/src/xmc_ccu4.c ****   }
 205:../Libraries/XMCLib/src/xmc_ccu4.c **** }
 206:../Libraries/XMCLib/src/xmc_ccu4.c **** #endif
 207:../Libraries/XMCLib/src/xmc_ccu4.c **** 
 208:../Libraries/XMCLib/src/xmc_ccu4.c **** #if defined(CLOCK_GATING_SUPPORTED)
 209:../Libraries/XMCLib/src/xmc_ccu4.c **** __STATIC_INLINE void XMC_CCU4_lGateClock(const XMC_CCU4_MODULE_t *const module)
 210:../Libraries/XMCLib/src/xmc_ccu4.c **** {
 211:../Libraries/XMCLib/src/xmc_ccu4.c **** 
 212:../Libraries/XMCLib/src/xmc_ccu4.c ****   if (module == CCU40)
 213:../Libraries/XMCLib/src/xmc_ccu4.c ****   {
 214:../Libraries/XMCLib/src/xmc_ccu4.c ****     XMC_SCU_CLOCK_GatePeripheralClock(XMC_SCU_PERIPHERAL_CLOCK_CCU40);
 215:../Libraries/XMCLib/src/xmc_ccu4.c ****   }
 216:../Libraries/XMCLib/src/xmc_ccu4.c **** #if defined(CCU41)
 217:../Libraries/XMCLib/src/xmc_ccu4.c ****   else if (module == CCU41)
 218:../Libraries/XMCLib/src/xmc_ccu4.c ****   {
 219:../Libraries/XMCLib/src/xmc_ccu4.c ****     XMC_SCU_CLOCK_GatePeripheralClock(XMC_SCU_PERIPHERAL_CLOCK_CCU41);
 220:../Libraries/XMCLib/src/xmc_ccu4.c ****   }
 221:../Libraries/XMCLib/src/xmc_ccu4.c **** #endif
 222:../Libraries/XMCLib/src/xmc_ccu4.c **** #if defined(CCU42)
 223:../Libraries/XMCLib/src/xmc_ccu4.c ****   else if (module == CCU42)
 224:../Libraries/XMCLib/src/xmc_ccu4.c ****   {
 225:../Libraries/XMCLib/src/xmc_ccu4.c ****     XMC_SCU_CLOCK_GatePeripheralClock(XMC_SCU_PERIPHERAL_CLOCK_CCU42);
 226:../Libraries/XMCLib/src/xmc_ccu4.c ****   }
 227:../Libraries/XMCLib/src/xmc_ccu4.c **** #endif
 228:../Libraries/XMCLib/src/xmc_ccu4.c **** #if defined(CCU43)
 229:../Libraries/XMCLib/src/xmc_ccu4.c ****   else if (module == CCU43)
 230:../Libraries/XMCLib/src/xmc_ccu4.c ****   {
 231:../Libraries/XMCLib/src/xmc_ccu4.c ****     XMC_SCU_CLOCK_GatePeripheralClock(XMC_SCU_PERIPHERAL_CLOCK_CCU43);
 232:../Libraries/XMCLib/src/xmc_ccu4.c ****   }
 233:../Libraries/XMCLib/src/xmc_ccu4.c **** #endif
 234:../Libraries/XMCLib/src/xmc_ccu4.c ****   else
 235:../Libraries/XMCLib/src/xmc_ccu4.c ****   {
 236:../Libraries/XMCLib/src/xmc_ccu4.c ****     XMC_ASSERT("XMC_CCU4_lGateClock:Invalid Module Pointer", 0);
 237:../Libraries/XMCLib/src/xmc_ccu4.c ****   }
 238:../Libraries/XMCLib/src/xmc_ccu4.c **** }
 239:../Libraries/XMCLib/src/xmc_ccu4.c **** 
 240:../Libraries/XMCLib/src/xmc_ccu4.c **** __STATIC_INLINE void XMC_CCU4_lUngateClock(const XMC_CCU4_MODULE_t *const module)
 241:../Libraries/XMCLib/src/xmc_ccu4.c **** {
 242:../Libraries/XMCLib/src/xmc_ccu4.c ****   if (module == CCU40)
 243:../Libraries/XMCLib/src/xmc_ccu4.c ****   {
 244:../Libraries/XMCLib/src/xmc_ccu4.c ****     XMC_SCU_CLOCK_UngatePeripheralClock(XMC_SCU_PERIPHERAL_CLOCK_CCU40);
 245:../Libraries/XMCLib/src/xmc_ccu4.c ****   }
 246:../Libraries/XMCLib/src/xmc_ccu4.c **** #if defined(CCU41)
 247:../Libraries/XMCLib/src/xmc_ccu4.c ****   else if (module == CCU41)
 248:../Libraries/XMCLib/src/xmc_ccu4.c ****   {
 249:../Libraries/XMCLib/src/xmc_ccu4.c ****     XMC_SCU_CLOCK_UngatePeripheralClock(XMC_SCU_PERIPHERAL_CLOCK_CCU41);
 250:../Libraries/XMCLib/src/xmc_ccu4.c ****   }
 251:../Libraries/XMCLib/src/xmc_ccu4.c **** #endif
 252:../Libraries/XMCLib/src/xmc_ccu4.c **** #if defined(CCU42)
 253:../Libraries/XMCLib/src/xmc_ccu4.c ****   else if (module == CCU42)
 254:../Libraries/XMCLib/src/xmc_ccu4.c ****   {
 255:../Libraries/XMCLib/src/xmc_ccu4.c ****     XMC_SCU_CLOCK_UngatePeripheralClock(XMC_SCU_PERIPHERAL_CLOCK_CCU42);
 256:../Libraries/XMCLib/src/xmc_ccu4.c ****   }
 257:../Libraries/XMCLib/src/xmc_ccu4.c **** #endif
 258:../Libraries/XMCLib/src/xmc_ccu4.c **** #if defined(CCU43)
 259:../Libraries/XMCLib/src/xmc_ccu4.c ****   else if (module == CCU43)
 260:../Libraries/XMCLib/src/xmc_ccu4.c ****   {
 261:../Libraries/XMCLib/src/xmc_ccu4.c ****     XMC_SCU_CLOCK_UngatePeripheralClock(XMC_SCU_PERIPHERAL_CLOCK_CCU43);
 262:../Libraries/XMCLib/src/xmc_ccu4.c ****   }
 263:../Libraries/XMCLib/src/xmc_ccu4.c **** #endif
 264:../Libraries/XMCLib/src/xmc_ccu4.c ****   else
 265:../Libraries/XMCLib/src/xmc_ccu4.c ****   {
 266:../Libraries/XMCLib/src/xmc_ccu4.c ****     XMC_ASSERT("XMC_CCU4_lUngateClock:Invalid Module Pointer", 0);
 267:../Libraries/XMCLib/src/xmc_ccu4.c ****   }
 268:../Libraries/XMCLib/src/xmc_ccu4.c **** }
 269:../Libraries/XMCLib/src/xmc_ccu4.c **** #endif
 270:../Libraries/XMCLib/src/xmc_ccu4.c **** 
 271:../Libraries/XMCLib/src/xmc_ccu4.c **** #if defined (XMC_ASSERT_ENABLE)
 272:../Libraries/XMCLib/src/xmc_ccu4.c **** __STATIC_INLINE bool XMC_CCU4_SLICE_IsInputvalid(XMC_CCU4_SLICE_INPUT_t input)
 273:../Libraries/XMCLib/src/xmc_ccu4.c **** {
 274:../Libraries/XMCLib/src/xmc_ccu4.c **** #if (UC_SERIES == XMC14)
 275:../Libraries/XMCLib/src/xmc_ccu4.c ****   return (input < 48U);
 276:../Libraries/XMCLib/src/xmc_ccu4.c **** #else
 277:../Libraries/XMCLib/src/xmc_ccu4.c ****   return (input < 16U);
 278:../Libraries/XMCLib/src/xmc_ccu4.c **** #endif
 279:../Libraries/XMCLib/src/xmc_ccu4.c **** }
 280:../Libraries/XMCLib/src/xmc_ccu4.c **** #endif
 281:../Libraries/XMCLib/src/xmc_ccu4.c **** /**************************************************************************************************
 282:../Libraries/XMCLib/src/xmc_ccu4.c ****  * API IMPLEMENTATION
 283:../Libraries/XMCLib/src/xmc_ccu4.c ****  **************************************************************************************************
 284:../Libraries/XMCLib/src/xmc_ccu4.c **** 
 285:../Libraries/XMCLib/src/xmc_ccu4.c **** void XMC_CCU4_EnableModule(XMC_CCU4_MODULE_t *const module)
 286:../Libraries/XMCLib/src/xmc_ccu4.c **** {
  26              	 .loc 1 286 0
  27              	 .cfi_startproc
  28              	.LVL0:
  29 0000 08B5     	 push {r3,lr}
  30              	.LCFI0:
  31              	 .cfi_def_cfa_offset 8
  32              	 .cfi_offset 3,-8
  33              	 .cfi_offset 14,-4
  34              	.LBB14:
  35              	.LBB15:
 242:../Libraries/XMCLib/src/xmc_ccu4.c ****   {
  36              	 .loc 1 242 0
  37 0002 044B     	 ldr r3,.L5
  38 0004 9842     	 cmp r0,r3
  39 0006 00D0     	 beq .L4
  40              	.LVL1:
  41              	.L1:
  42              	.LBE15:
  43              	.LBE14:
 287:../Libraries/XMCLib/src/xmc_ccu4.c ****   XMC_ASSERT("XMC_CCU4_EnableModule:Invalid Module Pointer", XMC_CCU4_IsValidModule(module));
 288:../Libraries/XMCLib/src/xmc_ccu4.c **** 
 289:../Libraries/XMCLib/src/xmc_ccu4.c **** #if UC_FAMILY == XMC4
 290:../Libraries/XMCLib/src/xmc_ccu4.c ****   /* Enable CCU4 module clock */
 291:../Libraries/XMCLib/src/xmc_ccu4.c ****   XMC_SCU_CLOCK_EnableClock(XMC_SCU_CLOCK_CCU);
 292:../Libraries/XMCLib/src/xmc_ccu4.c **** #endif
 293:../Libraries/XMCLib/src/xmc_ccu4.c ****   
 294:../Libraries/XMCLib/src/xmc_ccu4.c **** #if defined(CLOCK_GATING_SUPPORTED)
 295:../Libraries/XMCLib/src/xmc_ccu4.c ****   XMC_CCU4_lUngateClock(module);
 296:../Libraries/XMCLib/src/xmc_ccu4.c **** #endif
 297:../Libraries/XMCLib/src/xmc_ccu4.c **** 
 298:../Libraries/XMCLib/src/xmc_ccu4.c **** #if defined(PERIPHERAL_RESET_SUPPORTED)
 299:../Libraries/XMCLib/src/xmc_ccu4.c ****   XMC_CCU4_lDeassertReset(module);
 300:../Libraries/XMCLib/src/xmc_ccu4.c **** #endif
 301:../Libraries/XMCLib/src/xmc_ccu4.c **** }
  44              	 .loc 1 301 0
  45              	 
  46 0008 08BD     	 pop {r3,pc}
  47              	.LVL2:
  48              	.L4:
  49              	.LBB17:
  50              	.LBB16:
 244:../Libraries/XMCLib/src/xmc_ccu4.c ****   }
  51              	 .loc 1 244 0
  52 000a 0420     	 mov r0,#4
  53              	.LVL3:
  54 000c FFF7FEFF 	 bl XMC_SCU_CLOCK_UngatePeripheralClock
  55              	.LVL4:
  56 0010 FAE7     	 b .L1
  57              	.L6:
  58 0012 C046     	 .align 2
  59              	.L5:
  60 0014 00000448 	 .word 1208221696
  61              	.LBE16:
  62              	.LBE17:
  63              	 .cfi_endproc
  64              	.LFE93:
  66              	 .section .text.XMC_CCU4_DisableModule,"ax",%progbits
  67              	 .align 2
  68              	 .global XMC_CCU4_DisableModule
  69              	 .code 16
  70              	 .thumb_func
  72              	XMC_CCU4_DisableModule:
  73              	.LFB94:
 302:../Libraries/XMCLib/src/xmc_ccu4.c **** 
 303:../Libraries/XMCLib/src/xmc_ccu4.c **** void XMC_CCU4_DisableModule(XMC_CCU4_MODULE_t *const module)
 304:../Libraries/XMCLib/src/xmc_ccu4.c **** {
  74              	 .loc 1 304 0
  75              	 .cfi_startproc
  76              	.LVL5:
  77 0000 08B5     	 push {r3,lr}
  78              	.LCFI1:
  79              	 .cfi_def_cfa_offset 8
  80              	 .cfi_offset 3,-8
  81              	 .cfi_offset 14,-4
  82              	.LBB18:
  83              	.LBB19:
 212:../Libraries/XMCLib/src/xmc_ccu4.c ****   {
  84              	 .loc 1 212 0
  85 0002 044B     	 ldr r3,.L10
  86 0004 9842     	 cmp r0,r3
  87 0006 00D0     	 beq .L9
  88              	.LVL6:
  89              	.L7:
  90              	.LBE19:
  91              	.LBE18:
 305:../Libraries/XMCLib/src/xmc_ccu4.c ****   XMC_ASSERT("XMC_CCU4_DisableModule:Invalid Module Pointer", XMC_CCU4_IsValidModule(module));
 306:../Libraries/XMCLib/src/xmc_ccu4.c **** 
 307:../Libraries/XMCLib/src/xmc_ccu4.c **** #if defined(PERIPHERAL_RESET_SUPPORTED)
 308:../Libraries/XMCLib/src/xmc_ccu4.c ****   XMC_CCU4_lAssertReset(module);
 309:../Libraries/XMCLib/src/xmc_ccu4.c **** #endif
 310:../Libraries/XMCLib/src/xmc_ccu4.c ****   
 311:../Libraries/XMCLib/src/xmc_ccu4.c **** #if defined(CLOCK_GATING_SUPPORTED)
 312:../Libraries/XMCLib/src/xmc_ccu4.c ****   XMC_CCU4_lGateClock(module);
 313:../Libraries/XMCLib/src/xmc_ccu4.c **** #endif
 314:../Libraries/XMCLib/src/xmc_ccu4.c **** }
  92              	 .loc 1 314 0
  93              	 
  94 0008 08BD     	 pop {r3,pc}
  95              	.LVL7:
  96              	.L9:
  97              	.LBB21:
  98              	.LBB20:
 214:../Libraries/XMCLib/src/xmc_ccu4.c ****   }
  99              	 .loc 1 214 0
 100 000a 0420     	 mov r0,#4
 101              	.LVL8:
 102 000c FFF7FEFF 	 bl XMC_SCU_CLOCK_GatePeripheralClock
 103              	.LVL9:
 104 0010 FAE7     	 b .L7
 105              	.L11:
 106 0012 C046     	 .align 2
 107              	.L10:
 108 0014 00000448 	 .word 1208221696
 109              	.LBE20:
 110              	.LBE21:
 111              	 .cfi_endproc
 112              	.LFE94:
 114              	 .section .text.XMC_CCU4_Init,"ax",%progbits
 115              	 .align 2
 116              	 .global XMC_CCU4_Init
 117              	 .code 16
 118              	 .thumb_func
 120              	XMC_CCU4_Init:
 121              	.LFB95:
 315:../Libraries/XMCLib/src/xmc_ccu4.c **** 
 316:../Libraries/XMCLib/src/xmc_ccu4.c **** /* API to initialize CCU4 global resources  */
 317:../Libraries/XMCLib/src/xmc_ccu4.c **** void XMC_CCU4_Init(XMC_CCU4_MODULE_t *const module, const XMC_CCU4_SLICE_MCMS_ACTION_t mcs_action)
 318:../Libraries/XMCLib/src/xmc_ccu4.c **** {
 122              	 .loc 1 318 0
 123              	 .cfi_startproc
 124              	.LVL10:
 125 0000 38B5     	 push {r3,r4,r5,lr}
 126              	.LCFI2:
 127              	 .cfi_def_cfa_offset 16
 128              	 .cfi_offset 3,-16
 129              	 .cfi_offset 4,-12
 130              	 .cfi_offset 5,-8
 131              	 .cfi_offset 14,-4
 132              	.LBB22:
 133              	.LBB23:
 134              	.LBB24:
 242:../Libraries/XMCLib/src/xmc_ccu4.c ****   {
 135              	 .loc 1 242 0
 136 0002 0A4B     	 ldr r3,.L15
 137              	.LBE24:
 138              	.LBE23:
 139              	.LBE22:
 140              	 .loc 1 318 0
 141 0004 041C     	 mov r4,r0
 142 0006 0D1C     	 mov r5,r1
 143              	.LBB29:
 144              	.LBB27:
 145              	.LBB25:
 242:../Libraries/XMCLib/src/xmc_ccu4.c ****   {
 146              	 .loc 1 242 0
 147 0008 9842     	 cmp r0,r3
 148 000a 0BD0     	 beq .L14
 149              	.LVL11:
 150              	.L13:
 151              	.LBE25:
 152              	.LBE27:
 153              	.LBE29:
 154              	.LBB30:
 155              	.LBB31:
 156              	 .file 2 "C:/Workspaces/DAVE-4.4.2-64Bit/WIRELESS_CHARGER_RECVEIVER_delivered/Libraries/XMCLib/inc/xmc_ccu4.h"
   1:C:/Workspaces/DAVE-4.4.2-64Bit/WIRELESS_CHARGER_RECVEIVER_delivered/Libraries/XMCLib/inc\xmc_ccu4.h **** /**
   2:C:/Workspaces/DAVE-4.4.2-64Bit/WIRELESS_CHARGER_RECVEIVER_delivered/Libraries/XMCLib/inc\xmc_ccu4.h ****  * @file xmc_ccu4.h
   3:C:/Workspaces/DAVE-4.4.2-64Bit/WIRELESS_CHARGER_RECVEIVER_delivered/Libraries/XMCLib/inc\xmc_ccu4.h ****  * @date 2017-04-27
   4:C:/Workspaces/DAVE-4.4.2-64Bit/WIRELESS_CHARGER_RECVEIVER_delivered/Libraries/XMCLib/inc\xmc_ccu4.h ****  *
   5:C:/Workspaces/DAVE-4.4.2-64Bit/WIRELESS_CHARGER_RECVEIVER_delivered/Libraries/XMCLib/inc\xmc_ccu4.h ****  * @cond
   6:C:/Workspaces/DAVE-4.4.2-64Bit/WIRELESS_CHARGER_RECVEIVER_delivered/Libraries/XMCLib/inc\xmc_ccu4.h ****  **************************************************************************************************
   7:C:/Workspaces/DAVE-4.4.2-64Bit/WIRELESS_CHARGER_RECVEIVER_delivered/Libraries/XMCLib/inc\xmc_ccu4.h ****  * XMClib v2.1.16 - XMC Peripheral Driver Library 
   8:C:/Workspaces/DAVE-4.4.2-64Bit/WIRELESS_CHARGER_RECVEIVER_delivered/Libraries/XMCLib/inc\xmc_ccu4.h ****  *
   9:C:/Workspaces/DAVE-4.4.2-64Bit/WIRELESS_CHARGER_RECVEIVER_delivered/Libraries/XMCLib/inc\xmc_ccu4.h ****  * Copyright (c) 2015-2017, Infineon Technologies AG
  10:C:/Workspaces/DAVE-4.4.2-64Bit/WIRELESS_CHARGER_RECVEIVER_delivered/Libraries/XMCLib/inc\xmc_ccu4.h ****  * All rights reserved.                        
  11:C:/Workspaces/DAVE-4.4.2-64Bit/WIRELESS_CHARGER_RECVEIVER_delivered/Libraries/XMCLib/inc\xmc_ccu4.h ****  *                                             
  12:C:/Workspaces/DAVE-4.4.2-64Bit/WIRELESS_CHARGER_RECVEIVER_delivered/Libraries/XMCLib/inc\xmc_ccu4.h ****  * Redistribution and use in source and binary forms, with or without modification,are permitted pr
  13:C:/Workspaces/DAVE-4.4.2-64Bit/WIRELESS_CHARGER_RECVEIVER_delivered/Libraries/XMCLib/inc\xmc_ccu4.h ****  * following conditions are met:   
  14:C:/Workspaces/DAVE-4.4.2-64Bit/WIRELESS_CHARGER_RECVEIVER_delivered/Libraries/XMCLib/inc\xmc_ccu4.h ****  *                                                                              
  15:C:/Workspaces/DAVE-4.4.2-64Bit/WIRELESS_CHARGER_RECVEIVER_delivered/Libraries/XMCLib/inc\xmc_ccu4.h ****  * Redistributions of source code must retain the above copyright notice, this list of conditions a
  16:C:/Workspaces/DAVE-4.4.2-64Bit/WIRELESS_CHARGER_RECVEIVER_delivered/Libraries/XMCLib/inc\xmc_ccu4.h ****  * disclaimer.                        
  17:C:/Workspaces/DAVE-4.4.2-64Bit/WIRELESS_CHARGER_RECVEIVER_delivered/Libraries/XMCLib/inc\xmc_ccu4.h ****  * 
  18:C:/Workspaces/DAVE-4.4.2-64Bit/WIRELESS_CHARGER_RECVEIVER_delivered/Libraries/XMCLib/inc\xmc_ccu4.h ****  * Redistributions in binary form must reproduce the above copyright notice, this list of condition
  19:C:/Workspaces/DAVE-4.4.2-64Bit/WIRELESS_CHARGER_RECVEIVER_delivered/Libraries/XMCLib/inc\xmc_ccu4.h ****  * disclaimer in the documentation and/or other materials provided with the distribution.          
  20:C:/Workspaces/DAVE-4.4.2-64Bit/WIRELESS_CHARGER_RECVEIVER_delivered/Libraries/XMCLib/inc\xmc_ccu4.h ****  * 
  21:C:/Workspaces/DAVE-4.4.2-64Bit/WIRELESS_CHARGER_RECVEIVER_delivered/Libraries/XMCLib/inc\xmc_ccu4.h ****  * Neither the name of the copyright holders nor the names of its contributors may be used to endor
  22:C:/Workspaces/DAVE-4.4.2-64Bit/WIRELESS_CHARGER_RECVEIVER_delivered/Libraries/XMCLib/inc\xmc_ccu4.h ****  * products derived from this software without specific prior written permission.                  
  23:C:/Workspaces/DAVE-4.4.2-64Bit/WIRELESS_CHARGER_RECVEIVER_delivered/Libraries/XMCLib/inc\xmc_ccu4.h ****  *                                                                              
  24:C:/Workspaces/DAVE-4.4.2-64Bit/WIRELESS_CHARGER_RECVEIVER_delivered/Libraries/XMCLib/inc\xmc_ccu4.h ****  * THIS SOFTWARE IS PROVIDED BY THE COPYRIGHT HOLDERS AND CONTRIBUTORS "AS IS" AND ANY EXPRESS OR I
  25:C:/Workspaces/DAVE-4.4.2-64Bit/WIRELESS_CHARGER_RECVEIVER_delivered/Libraries/XMCLib/inc\xmc_ccu4.h ****  * INCLUDING, BUT NOT LIMITED TO, THE IMPLIED WARRANTIES OF MERCHANTABILITY AND FITNESS FOR A PARTI
  26:C:/Workspaces/DAVE-4.4.2-64Bit/WIRELESS_CHARGER_RECVEIVER_delivered/Libraries/XMCLib/inc\xmc_ccu4.h ****  * DISCLAIMED. IN NO EVENT SHALL THE COPYRIGHT HOLDER OR CONTRIBUTORS BE LIABLE  FOR ANY DIRECT, IN
  27:C:/Workspaces/DAVE-4.4.2-64Bit/WIRELESS_CHARGER_RECVEIVER_delivered/Libraries/XMCLib/inc\xmc_ccu4.h ****  * SPECIAL, EXEMPLARY, OR CONSEQUENTIAL DAMAGES (INCLUDING, BUT NOT LIMITED TO, PROCUREMENT OF SUBS
  28:C:/Workspaces/DAVE-4.4.2-64Bit/WIRELESS_CHARGER_RECVEIVER_delivered/Libraries/XMCLib/inc\xmc_ccu4.h ****  * SERVICES; LOSS OF USE, DATA, OR PROFITS; OR BUSINESS INTERRUPTION) HOWEVER CAUSED AND ON ANY THE
  29:C:/Workspaces/DAVE-4.4.2-64Bit/WIRELESS_CHARGER_RECVEIVER_delivered/Libraries/XMCLib/inc\xmc_ccu4.h ****  * WHETHER IN CONTRACT, STRICT LIABILITY,OR TORT (INCLUDING NEGLIGENCE OR OTHERWISE) ARISING IN ANY
  30:C:/Workspaces/DAVE-4.4.2-64Bit/WIRELESS_CHARGER_RECVEIVER_delivered/Libraries/XMCLib/inc\xmc_ccu4.h ****  * OF THIS SOFTWARE, EVEN IF ADVISED OF THE POSSIBILITY OF SUCH DAMAGE.                            
  31:C:/Workspaces/DAVE-4.4.2-64Bit/WIRELESS_CHARGER_RECVEIVER_delivered/Libraries/XMCLib/inc\xmc_ccu4.h ****  *                                                                              
  32:C:/Workspaces/DAVE-4.4.2-64Bit/WIRELESS_CHARGER_RECVEIVER_delivered/Libraries/XMCLib/inc\xmc_ccu4.h ****  * To improve the quality of the software, users are encouraged to share modifications, enhancement
  33:C:/Workspaces/DAVE-4.4.2-64Bit/WIRELESS_CHARGER_RECVEIVER_delivered/Libraries/XMCLib/inc\xmc_ccu4.h ****  * Infineon Technologies AG dave@infineon.com).                                                    
  34:C:/Workspaces/DAVE-4.4.2-64Bit/WIRELESS_CHARGER_RECVEIVER_delivered/Libraries/XMCLib/inc\xmc_ccu4.h ****  **************************************************************************************************
  35:C:/Workspaces/DAVE-4.4.2-64Bit/WIRELESS_CHARGER_RECVEIVER_delivered/Libraries/XMCLib/inc\xmc_ccu4.h ****  *
  36:C:/Workspaces/DAVE-4.4.2-64Bit/WIRELESS_CHARGER_RECVEIVER_delivered/Libraries/XMCLib/inc\xmc_ccu4.h ****  * Change History
  37:C:/Workspaces/DAVE-4.4.2-64Bit/WIRELESS_CHARGER_RECVEIVER_delivered/Libraries/XMCLib/inc\xmc_ccu4.h ****  * --------------
  38:C:/Workspaces/DAVE-4.4.2-64Bit/WIRELESS_CHARGER_RECVEIVER_delivered/Libraries/XMCLib/inc\xmc_ccu4.h ****  *
  39:C:/Workspaces/DAVE-4.4.2-64Bit/WIRELESS_CHARGER_RECVEIVER_delivered/Libraries/XMCLib/inc\xmc_ccu4.h ****  * 2015-02-20:
  40:C:/Workspaces/DAVE-4.4.2-64Bit/WIRELESS_CHARGER_RECVEIVER_delivered/Libraries/XMCLib/inc\xmc_ccu4.h ****  *     - Initial <br>
  41:C:/Workspaces/DAVE-4.4.2-64Bit/WIRELESS_CHARGER_RECVEIVER_delivered/Libraries/XMCLib/inc\xmc_ccu4.h ****  *     - Documentation updates <br>
  42:C:/Workspaces/DAVE-4.4.2-64Bit/WIRELESS_CHARGER_RECVEIVER_delivered/Libraries/XMCLib/inc\xmc_ccu4.h ****  *
  43:C:/Workspaces/DAVE-4.4.2-64Bit/WIRELESS_CHARGER_RECVEIVER_delivered/Libraries/XMCLib/inc\xmc_ccu4.h ****  * 2015-06-20:
  44:C:/Workspaces/DAVE-4.4.2-64Bit/WIRELESS_CHARGER_RECVEIVER_delivered/Libraries/XMCLib/inc\xmc_ccu4.h ****  *     - Removed version macros and declaration of GetDriverVersion API <br>
  45:C:/Workspaces/DAVE-4.4.2-64Bit/WIRELESS_CHARGER_RECVEIVER_delivered/Libraries/XMCLib/inc\xmc_ccu4.h ****  *
  46:C:/Workspaces/DAVE-4.4.2-64Bit/WIRELESS_CHARGER_RECVEIVER_delivered/Libraries/XMCLib/inc\xmc_ccu4.h ****  * 2015-07-22:
  47:C:/Workspaces/DAVE-4.4.2-64Bit/WIRELESS_CHARGER_RECVEIVER_delivered/Libraries/XMCLib/inc\xmc_ccu4.h ****  *     - XMC_CCU4_SLICE_ConfigureStatusBitOverrideEvent() is updated to support XMC14 device. <br>
  48:C:/Workspaces/DAVE-4.4.2-64Bit/WIRELESS_CHARGER_RECVEIVER_delivered/Libraries/XMCLib/inc\xmc_ccu4.h ****  *
  49:C:/Workspaces/DAVE-4.4.2-64Bit/WIRELESS_CHARGER_RECVEIVER_delivered/Libraries/XMCLib/inc\xmc_ccu4.h ****  * 2015-08-17:
  50:C:/Workspaces/DAVE-4.4.2-64Bit/WIRELESS_CHARGER_RECVEIVER_delivered/Libraries/XMCLib/inc\xmc_ccu4.h ****  *     - XMC_CCU4_SLICE_PRESCALER_t enum is added to set the prescaler divider. <br>
  51:C:/Workspaces/DAVE-4.4.2-64Bit/WIRELESS_CHARGER_RECVEIVER_delivered/Libraries/XMCLib/inc\xmc_ccu4.h ****  *     - XMC_CCU4_SLICE_SHADOW_TRANSFER_MODE_t enum item names are updated according to the guideli
  52:C:/Workspaces/DAVE-4.4.2-64Bit/WIRELESS_CHARGER_RECVEIVER_delivered/Libraries/XMCLib/inc\xmc_ccu4.h ****  *     - XMC_CCU4_EnableShadowTransfer() API is made as inline, to improve the speed. <br>
  53:C:/Workspaces/DAVE-4.4.2-64Bit/WIRELESS_CHARGER_RECVEIVER_delivered/Libraries/XMCLib/inc\xmc_ccu4.h ****  *
  54:C:/Workspaces/DAVE-4.4.2-64Bit/WIRELESS_CHARGER_RECVEIVER_delivered/Libraries/XMCLib/inc\xmc_ccu4.h ****  * 2015-09-29:
  55:C:/Workspaces/DAVE-4.4.2-64Bit/WIRELESS_CHARGER_RECVEIVER_delivered/Libraries/XMCLib/inc\xmc_ccu4.h ****  *     - In XMC_CCU4_SLICE_EVENT_LEVEL_SENSITIVITY_t, two more enum items are added to support exte
  56:C:/Workspaces/DAVE-4.4.2-64Bit/WIRELESS_CHARGER_RECVEIVER_delivered/Libraries/XMCLib/inc\xmc_ccu4.h ****  *       settings.
  57:C:/Workspaces/DAVE-4.4.2-64Bit/WIRELESS_CHARGER_RECVEIVER_delivered/Libraries/XMCLib/inc\xmc_ccu4.h ****  *
  58:C:/Workspaces/DAVE-4.4.2-64Bit/WIRELESS_CHARGER_RECVEIVER_delivered/Libraries/XMCLib/inc\xmc_ccu4.h ****  * 2015-10-07:
  59:C:/Workspaces/DAVE-4.4.2-64Bit/WIRELESS_CHARGER_RECVEIVER_delivered/Libraries/XMCLib/inc\xmc_ccu4.h ****  *     - XMC_CCU4_SLICE_GetEvent() is made as inline.
  60:C:/Workspaces/DAVE-4.4.2-64Bit/WIRELESS_CHARGER_RECVEIVER_delivered/Libraries/XMCLib/inc\xmc_ccu4.h ****  *     - XMC_CCU4_SLICE_MULTI_IRQ_ID_t is added to support the XMC_CCU4_SLICE_EnableMultipleEvents(
  61:C:/Workspaces/DAVE-4.4.2-64Bit/WIRELESS_CHARGER_RECVEIVER_delivered/Libraries/XMCLib/inc\xmc_ccu4.h ****  *       XMC_CCU4_SLICE_DisableMultipleEvents() APIs.
  62:C:/Workspaces/DAVE-4.4.2-64Bit/WIRELESS_CHARGER_RECVEIVER_delivered/Libraries/XMCLib/inc\xmc_ccu4.h ****  *     - DOC updates for the newly added APIs.
  63:C:/Workspaces/DAVE-4.4.2-64Bit/WIRELESS_CHARGER_RECVEIVER_delivered/Libraries/XMCLib/inc\xmc_ccu4.h ****  *
  64:C:/Workspaces/DAVE-4.4.2-64Bit/WIRELESS_CHARGER_RECVEIVER_delivered/Libraries/XMCLib/inc\xmc_ccu4.h ****  * 2016-03-09:
  65:C:/Workspaces/DAVE-4.4.2-64Bit/WIRELESS_CHARGER_RECVEIVER_delivered/Libraries/XMCLib/inc\xmc_ccu4.h ****  *     - Optimization of write only registers 
  66:C:/Workspaces/DAVE-4.4.2-64Bit/WIRELESS_CHARGER_RECVEIVER_delivered/Libraries/XMCLib/inc\xmc_ccu4.h ****  *
  67:C:/Workspaces/DAVE-4.4.2-64Bit/WIRELESS_CHARGER_RECVEIVER_delivered/Libraries/XMCLib/inc\xmc_ccu4.h ****  * 2016-05-20:
  68:C:/Workspaces/DAVE-4.4.2-64Bit/WIRELESS_CHARGER_RECVEIVER_delivered/Libraries/XMCLib/inc\xmc_ccu4.h ****  *     - Added XMC_CCU4_SLICE_StopClearTimer()
  69:C:/Workspaces/DAVE-4.4.2-64Bit/WIRELESS_CHARGER_RECVEIVER_delivered/Libraries/XMCLib/inc\xmc_ccu4.h ****  *     - Changed implementation of XMC_CCU4_SLICE_StopTimer() and XMC_CCU4_SLICE_ClearTimer() to av
  70:C:/Workspaces/DAVE-4.4.2-64Bit/WIRELESS_CHARGER_RECVEIVER_delivered/Libraries/XMCLib/inc\xmc_ccu4.h ****  *
  71:C:/Workspaces/DAVE-4.4.2-64Bit/WIRELESS_CHARGER_RECVEIVER_delivered/Libraries/XMCLib/inc\xmc_ccu4.h ****  * 2017-04-27:
  72:C:/Workspaces/DAVE-4.4.2-64Bit/WIRELESS_CHARGER_RECVEIVER_delivered/Libraries/XMCLib/inc\xmc_ccu4.h ****  *     - XMC_CCU4_SLICE_SetPrescaler() changed div_val parameter to type XMC_CCU4_SLICE_PRESCALER_t
  73:C:/Workspaces/DAVE-4.4.2-64Bit/WIRELESS_CHARGER_RECVEIVER_delivered/Libraries/XMCLib/inc\xmc_ccu4.h ****  * 
  74:C:/Workspaces/DAVE-4.4.2-64Bit/WIRELESS_CHARGER_RECVEIVER_delivered/Libraries/XMCLib/inc\xmc_ccu4.h ****  * @endcond
  75:C:/Workspaces/DAVE-4.4.2-64Bit/WIRELESS_CHARGER_RECVEIVER_delivered/Libraries/XMCLib/inc\xmc_ccu4.h ****  */
  76:C:/Workspaces/DAVE-4.4.2-64Bit/WIRELESS_CHARGER_RECVEIVER_delivered/Libraries/XMCLib/inc\xmc_ccu4.h **** 
  77:C:/Workspaces/DAVE-4.4.2-64Bit/WIRELESS_CHARGER_RECVEIVER_delivered/Libraries/XMCLib/inc\xmc_ccu4.h **** #ifndef XMC_CCU4_H
  78:C:/Workspaces/DAVE-4.4.2-64Bit/WIRELESS_CHARGER_RECVEIVER_delivered/Libraries/XMCLib/inc\xmc_ccu4.h **** #define XMC_CCU4_H
  79:C:/Workspaces/DAVE-4.4.2-64Bit/WIRELESS_CHARGER_RECVEIVER_delivered/Libraries/XMCLib/inc\xmc_ccu4.h ****  
  80:C:/Workspaces/DAVE-4.4.2-64Bit/WIRELESS_CHARGER_RECVEIVER_delivered/Libraries/XMCLib/inc\xmc_ccu4.h **** /**************************************************************************************************
  81:C:/Workspaces/DAVE-4.4.2-64Bit/WIRELESS_CHARGER_RECVEIVER_delivered/Libraries/XMCLib/inc\xmc_ccu4.h ****  * HEADER FILES
  82:C:/Workspaces/DAVE-4.4.2-64Bit/WIRELESS_CHARGER_RECVEIVER_delivered/Libraries/XMCLib/inc\xmc_ccu4.h ****  **************************************************************************************************
  83:C:/Workspaces/DAVE-4.4.2-64Bit/WIRELESS_CHARGER_RECVEIVER_delivered/Libraries/XMCLib/inc\xmc_ccu4.h **** #include "xmc_common.h"
  84:C:/Workspaces/DAVE-4.4.2-64Bit/WIRELESS_CHARGER_RECVEIVER_delivered/Libraries/XMCLib/inc\xmc_ccu4.h **** #if defined(CCU40)
  85:C:/Workspaces/DAVE-4.4.2-64Bit/WIRELESS_CHARGER_RECVEIVER_delivered/Libraries/XMCLib/inc\xmc_ccu4.h **** 
  86:C:/Workspaces/DAVE-4.4.2-64Bit/WIRELESS_CHARGER_RECVEIVER_delivered/Libraries/XMCLib/inc\xmc_ccu4.h **** #if UC_FAMILY == XMC1
  87:C:/Workspaces/DAVE-4.4.2-64Bit/WIRELESS_CHARGER_RECVEIVER_delivered/Libraries/XMCLib/inc\xmc_ccu4.h ****  #include "xmc1_ccu4_map.h"
  88:C:/Workspaces/DAVE-4.4.2-64Bit/WIRELESS_CHARGER_RECVEIVER_delivered/Libraries/XMCLib/inc\xmc_ccu4.h **** #endif
  89:C:/Workspaces/DAVE-4.4.2-64Bit/WIRELESS_CHARGER_RECVEIVER_delivered/Libraries/XMCLib/inc\xmc_ccu4.h **** 
  90:C:/Workspaces/DAVE-4.4.2-64Bit/WIRELESS_CHARGER_RECVEIVER_delivered/Libraries/XMCLib/inc\xmc_ccu4.h **** #if UC_FAMILY == XMC4
  91:C:/Workspaces/DAVE-4.4.2-64Bit/WIRELESS_CHARGER_RECVEIVER_delivered/Libraries/XMCLib/inc\xmc_ccu4.h ****  #include "xmc4_ccu4_map.h"
  92:C:/Workspaces/DAVE-4.4.2-64Bit/WIRELESS_CHARGER_RECVEIVER_delivered/Libraries/XMCLib/inc\xmc_ccu4.h **** #endif
  93:C:/Workspaces/DAVE-4.4.2-64Bit/WIRELESS_CHARGER_RECVEIVER_delivered/Libraries/XMCLib/inc\xmc_ccu4.h **** 
  94:C:/Workspaces/DAVE-4.4.2-64Bit/WIRELESS_CHARGER_RECVEIVER_delivered/Libraries/XMCLib/inc\xmc_ccu4.h **** /**
  95:C:/Workspaces/DAVE-4.4.2-64Bit/WIRELESS_CHARGER_RECVEIVER_delivered/Libraries/XMCLib/inc\xmc_ccu4.h ****  * @addtogroup XMClib XMC Peripheral Library
  96:C:/Workspaces/DAVE-4.4.2-64Bit/WIRELESS_CHARGER_RECVEIVER_delivered/Libraries/XMCLib/inc\xmc_ccu4.h ****  * @{
  97:C:/Workspaces/DAVE-4.4.2-64Bit/WIRELESS_CHARGER_RECVEIVER_delivered/Libraries/XMCLib/inc\xmc_ccu4.h ****  */
  98:C:/Workspaces/DAVE-4.4.2-64Bit/WIRELESS_CHARGER_RECVEIVER_delivered/Libraries/XMCLib/inc\xmc_ccu4.h ****  
  99:C:/Workspaces/DAVE-4.4.2-64Bit/WIRELESS_CHARGER_RECVEIVER_delivered/Libraries/XMCLib/inc\xmc_ccu4.h **** /**
 100:C:/Workspaces/DAVE-4.4.2-64Bit/WIRELESS_CHARGER_RECVEIVER_delivered/Libraries/XMCLib/inc\xmc_ccu4.h ****  * @addtogroup CCU4
 101:C:/Workspaces/DAVE-4.4.2-64Bit/WIRELESS_CHARGER_RECVEIVER_delivered/Libraries/XMCLib/inc\xmc_ccu4.h ****  * @brief Capture Compare Unit 4 (CCU4) low level driver for XMC family of microcontrollers<br>
 102:C:/Workspaces/DAVE-4.4.2-64Bit/WIRELESS_CHARGER_RECVEIVER_delivered/Libraries/XMCLib/inc\xmc_ccu4.h ****  *
 103:C:/Workspaces/DAVE-4.4.2-64Bit/WIRELESS_CHARGER_RECVEIVER_delivered/Libraries/XMCLib/inc\xmc_ccu4.h ****  * The CCU4 peripheral is a major component for systems that need general purpose timers for signal
 104:C:/Workspaces/DAVE-4.4.2-64Bit/WIRELESS_CHARGER_RECVEIVER_delivered/Libraries/XMCLib/inc\xmc_ccu4.h ****  * monitoring/conditioning and Pulse Width Modulation (PWM) signal generation. Power electronic con
 105:C:/Workspaces/DAVE-4.4.2-64Bit/WIRELESS_CHARGER_RECVEIVER_delivered/Libraries/XMCLib/inc\xmc_ccu4.h ****  * switched mode power supplies or interruptible power supplies, can easily be implemented with the
 106:C:/Workspaces/DAVE-4.4.2-64Bit/WIRELESS_CHARGER_RECVEIVER_delivered/Libraries/XMCLib/inc\xmc_ccu4.h ****  * CCU4 peripheral.\n
 107:C:/Workspaces/DAVE-4.4.2-64Bit/WIRELESS_CHARGER_RECVEIVER_delivered/Libraries/XMCLib/inc\xmc_ccu4.h ****  * Each CCU4 module is comprised of four identical 16 bit Capture/Compare Timer slices, CC4y (where
 108:C:/Workspaces/DAVE-4.4.2-64Bit/WIRELESS_CHARGER_RECVEIVER_delivered/Libraries/XMCLib/inc\xmc_ccu4.h ****  * timer slice can work in compare mode or in capture mode.
 109:C:/Workspaces/DAVE-4.4.2-64Bit/WIRELESS_CHARGER_RECVEIVER_delivered/Libraries/XMCLib/inc\xmc_ccu4.h ****  *
 110:C:/Workspaces/DAVE-4.4.2-64Bit/WIRELESS_CHARGER_RECVEIVER_delivered/Libraries/XMCLib/inc\xmc_ccu4.h ****  * APIs provided in this file cover the following functional blocks of CCU4:\n
 111:C:/Workspaces/DAVE-4.4.2-64Bit/WIRELESS_CHARGER_RECVEIVER_delivered/Libraries/XMCLib/inc\xmc_ccu4.h ****  * -- Timer configuration, Capture configuration, Function/Event configuration, Interrupt configura
 112:C:/Workspaces/DAVE-4.4.2-64Bit/WIRELESS_CHARGER_RECVEIVER_delivered/Libraries/XMCLib/inc\xmc_ccu4.h ****  * \par Note:
 113:C:/Workspaces/DAVE-4.4.2-64Bit/WIRELESS_CHARGER_RECVEIVER_delivered/Libraries/XMCLib/inc\xmc_ccu4.h ****  * 1. SLICE (APIs prefixed with e.g. XMC_CCU4_SLICE_)
 114:C:/Workspaces/DAVE-4.4.2-64Bit/WIRELESS_CHARGER_RECVEIVER_delivered/Libraries/XMCLib/inc\xmc_ccu4.h ****  * 2. Module (APIs are not having any prefix e.g. XMC_CCU4_)
 115:C:/Workspaces/DAVE-4.4.2-64Bit/WIRELESS_CHARGER_RECVEIVER_delivered/Libraries/XMCLib/inc\xmc_ccu4.h ****  *
 116:C:/Workspaces/DAVE-4.4.2-64Bit/WIRELESS_CHARGER_RECVEIVER_delivered/Libraries/XMCLib/inc\xmc_ccu4.h ****  * \par Timer(Compare mode) configuration:
 117:C:/Workspaces/DAVE-4.4.2-64Bit/WIRELESS_CHARGER_RECVEIVER_delivered/Libraries/XMCLib/inc\xmc_ccu4.h ****  * This section of the LLD provides the configuration structure XMC_CCU4_SLICE_COMPARE_CONFIG_t and
 118:C:/Workspaces/DAVE-4.4.2-64Bit/WIRELESS_CHARGER_RECVEIVER_delivered/Libraries/XMCLib/inc\xmc_ccu4.h ****  * function XMC_CCU4_SLICE_CompareInit().
 119:C:/Workspaces/DAVE-4.4.2-64Bit/WIRELESS_CHARGER_RECVEIVER_delivered/Libraries/XMCLib/inc\xmc_ccu4.h ****  *
 120:C:/Workspaces/DAVE-4.4.2-64Bit/WIRELESS_CHARGER_RECVEIVER_delivered/Libraries/XMCLib/inc\xmc_ccu4.h ****  * It can be used to:
 121:C:/Workspaces/DAVE-4.4.2-64Bit/WIRELESS_CHARGER_RECVEIVER_delivered/Libraries/XMCLib/inc\xmc_ccu4.h ****  * -# Start and Stop the timer. (XMC_CCU4_SLICE_StartTimer(), XMC_CCU4_SLICE_StopTimer())
 122:C:/Workspaces/DAVE-4.4.2-64Bit/WIRELESS_CHARGER_RECVEIVER_delivered/Libraries/XMCLib/inc\xmc_ccu4.h ****  * -# Update the period, compare, Dither, Prescaler  and Passive values. (XMC_CCU4_SLICE_SetTimerPe
 123:C:/Workspaces/DAVE-4.4.2-64Bit/WIRELESS_CHARGER_RECVEIVER_delivered/Libraries/XMCLib/inc\xmc_ccu4.h ****  *    XMC_CCU4_SLICE_SetTimerCompareMatch(), XMC_CCU4_SLICE_SetPrescaler(), XMC_CCU4_SLICE_SetDithe
 124:C:/Workspaces/DAVE-4.4.2-64Bit/WIRELESS_CHARGER_RECVEIVER_delivered/Libraries/XMCLib/inc\xmc_ccu4.h ****  *    XMC_CCU4_SLICE_SetPassiveLevel())
 125:C:/Workspaces/DAVE-4.4.2-64Bit/WIRELESS_CHARGER_RECVEIVER_delivered/Libraries/XMCLib/inc\xmc_ccu4.h ****  * -# Enable the slices to support multichannel mode. (XMC_CCU4_SLICE_EnableMultiChannelMode())
 126:C:/Workspaces/DAVE-4.4.2-64Bit/WIRELESS_CHARGER_RECVEIVER_delivered/Libraries/XMCLib/inc\xmc_ccu4.h ****  * 
 127:C:/Workspaces/DAVE-4.4.2-64Bit/WIRELESS_CHARGER_RECVEIVER_delivered/Libraries/XMCLib/inc\xmc_ccu4.h ****  * \par Capture configuration:
 128:C:/Workspaces/DAVE-4.4.2-64Bit/WIRELESS_CHARGER_RECVEIVER_delivered/Libraries/XMCLib/inc\xmc_ccu4.h ****  * This section of the LLD provides the configuration structure XMC_CCU4_SLICE_CAPTURE_CONFIG_t and
 129:C:/Workspaces/DAVE-4.4.2-64Bit/WIRELESS_CHARGER_RECVEIVER_delivered/Libraries/XMCLib/inc\xmc_ccu4.h ****  * function XMC_CCU4_SLICE_CaptureInit().
 130:C:/Workspaces/DAVE-4.4.2-64Bit/WIRELESS_CHARGER_RECVEIVER_delivered/Libraries/XMCLib/inc\xmc_ccu4.h ****  *
 131:C:/Workspaces/DAVE-4.4.2-64Bit/WIRELESS_CHARGER_RECVEIVER_delivered/Libraries/XMCLib/inc\xmc_ccu4.h ****  * It can be used to:
 132:C:/Workspaces/DAVE-4.4.2-64Bit/WIRELESS_CHARGER_RECVEIVER_delivered/Libraries/XMCLib/inc\xmc_ccu4.h ****  * -# Configure the capture functionality. (XMC_CCU4_SLICE_Capture0Config(), XMC_CCU4_SLICE_Capture
 133:C:/Workspaces/DAVE-4.4.2-64Bit/WIRELESS_CHARGER_RECVEIVER_delivered/Libraries/XMCLib/inc\xmc_ccu4.h ****  * -# Read the captured values along with the status, which indicate the value is latest or not.
 134:C:/Workspaces/DAVE-4.4.2-64Bit/WIRELESS_CHARGER_RECVEIVER_delivered/Libraries/XMCLib/inc\xmc_ccu4.h ****  *    (XMC_CCU4_SLICE_GetCaptureRegisterValue())
 135:C:/Workspaces/DAVE-4.4.2-64Bit/WIRELESS_CHARGER_RECVEIVER_delivered/Libraries/XMCLib/inc\xmc_ccu4.h ****  * 
 136:C:/Workspaces/DAVE-4.4.2-64Bit/WIRELESS_CHARGER_RECVEIVER_delivered/Libraries/XMCLib/inc\xmc_ccu4.h ****  * \par Function/Event configuration:
 137:C:/Workspaces/DAVE-4.4.2-64Bit/WIRELESS_CHARGER_RECVEIVER_delivered/Libraries/XMCLib/inc\xmc_ccu4.h ****  * This section of the LLD provides the configuration structure XMC_CCU4_SLICE_EVENT_CONFIG_t.\n
 138:C:/Workspaces/DAVE-4.4.2-64Bit/WIRELESS_CHARGER_RECVEIVER_delivered/Libraries/XMCLib/inc\xmc_ccu4.h ****  * 
 139:C:/Workspaces/DAVE-4.4.2-64Bit/WIRELESS_CHARGER_RECVEIVER_delivered/Libraries/XMCLib/inc\xmc_ccu4.h ****  * It can be used to:
 140:C:/Workspaces/DAVE-4.4.2-64Bit/WIRELESS_CHARGER_RECVEIVER_delivered/Libraries/XMCLib/inc\xmc_ccu4.h ****  * -# Enable and Disable the events. (XMC_CCU4_SLICE_EnableEvent(), XMC_CCU4_SLICE_DisableEvent())
 141:C:/Workspaces/DAVE-4.4.2-64Bit/WIRELESS_CHARGER_RECVEIVER_delivered/Libraries/XMCLib/inc\xmc_ccu4.h ****  * -# Configure to start and stop the timer on external events.(XMC_CCU4_SLICE_StartConfig(), XMC_C
 142:C:/Workspaces/DAVE-4.4.2-64Bit/WIRELESS_CHARGER_RECVEIVER_delivered/Libraries/XMCLib/inc\xmc_ccu4.h ****  * -# Modulation, external load and Gating of the timer output.(XMC_CCU4_SLICE_ModulationConfig(), 
 143:C:/Workspaces/DAVE-4.4.2-64Bit/WIRELESS_CHARGER_RECVEIVER_delivered/Libraries/XMCLib/inc\xmc_ccu4.h ****  *    XMC_CCU4_SLICE_LoadConfig(), XMC_CCU4_SLICE_GateConfig())
 144:C:/Workspaces/DAVE-4.4.2-64Bit/WIRELESS_CHARGER_RECVEIVER_delivered/Libraries/XMCLib/inc\xmc_ccu4.h ****  * -# Control the count direction of the timer based on the external event. (XMC_CCU4_SLICE_Directi
 145:C:/Workspaces/DAVE-4.4.2-64Bit/WIRELESS_CHARGER_RECVEIVER_delivered/Libraries/XMCLib/inc\xmc_ccu4.h ****  * -# Count the external events.(XMC_CCU4_SLICE_CountConfig())
 146:C:/Workspaces/DAVE-4.4.2-64Bit/WIRELESS_CHARGER_RECVEIVER_delivered/Libraries/XMCLib/inc\xmc_ccu4.h ****  * -# External Trap. Which can be used as protective feature.(XMC_CCU4_SLICE_EnableTrap(), XMC_CCU4
 147:C:/Workspaces/DAVE-4.4.2-64Bit/WIRELESS_CHARGER_RECVEIVER_delivered/Libraries/XMCLib/inc\xmc_ccu4.h ****  *    XMC_CCU4_SLICE_TrapConfig())
 148:C:/Workspaces/DAVE-4.4.2-64Bit/WIRELESS_CHARGER_RECVEIVER_delivered/Libraries/XMCLib/inc\xmc_ccu4.h ****  *
 149:C:/Workspaces/DAVE-4.4.2-64Bit/WIRELESS_CHARGER_RECVEIVER_delivered/Libraries/XMCLib/inc\xmc_ccu4.h ****  * \par Interrupt configuration:
 150:C:/Workspaces/DAVE-4.4.2-64Bit/WIRELESS_CHARGER_RECVEIVER_delivered/Libraries/XMCLib/inc\xmc_ccu4.h ****  * This section of the LLD provides the function to configure the interrupt node to each event (XMC
 151:C:/Workspaces/DAVE-4.4.2-64Bit/WIRELESS_CHARGER_RECVEIVER_delivered/Libraries/XMCLib/inc\xmc_ccu4.h ****  * @{
 152:C:/Workspaces/DAVE-4.4.2-64Bit/WIRELESS_CHARGER_RECVEIVER_delivered/Libraries/XMCLib/inc\xmc_ccu4.h ****  */
 153:C:/Workspaces/DAVE-4.4.2-64Bit/WIRELESS_CHARGER_RECVEIVER_delivered/Libraries/XMCLib/inc\xmc_ccu4.h ****  
 154:C:/Workspaces/DAVE-4.4.2-64Bit/WIRELESS_CHARGER_RECVEIVER_delivered/Libraries/XMCLib/inc\xmc_ccu4.h **** /**************************************************************************************************
 155:C:/Workspaces/DAVE-4.4.2-64Bit/WIRELESS_CHARGER_RECVEIVER_delivered/Libraries/XMCLib/inc\xmc_ccu4.h ****  * MACROS
 156:C:/Workspaces/DAVE-4.4.2-64Bit/WIRELESS_CHARGER_RECVEIVER_delivered/Libraries/XMCLib/inc\xmc_ccu4.h ****  **************************************************************************************************
 157:C:/Workspaces/DAVE-4.4.2-64Bit/WIRELESS_CHARGER_RECVEIVER_delivered/Libraries/XMCLib/inc\xmc_ccu4.h **** /* Macro to check if the interrupt enum passed is valid */
 158:C:/Workspaces/DAVE-4.4.2-64Bit/WIRELESS_CHARGER_RECVEIVER_delivered/Libraries/XMCLib/inc\xmc_ccu4.h **** #define XMC_CCU4_SLICE_CHECK_INTERRUPT(interrupt) \
 159:C:/Workspaces/DAVE-4.4.2-64Bit/WIRELESS_CHARGER_RECVEIVER_delivered/Libraries/XMCLib/inc\xmc_ccu4.h ****     ((interrupt == XMC_CCU4_SLICE_IRQ_ID_PERIOD_MATCH)           || \
 160:C:/Workspaces/DAVE-4.4.2-64Bit/WIRELESS_CHARGER_RECVEIVER_delivered/Libraries/XMCLib/inc\xmc_ccu4.h ****      (interrupt == XMC_CCU4_SLICE_IRQ_ID_ONE_MATCH)              || \
 161:C:/Workspaces/DAVE-4.4.2-64Bit/WIRELESS_CHARGER_RECVEIVER_delivered/Libraries/XMCLib/inc\xmc_ccu4.h ****      (interrupt == XMC_CCU4_SLICE_IRQ_ID_COMPARE_MATCH_UP)  || \
 162:C:/Workspaces/DAVE-4.4.2-64Bit/WIRELESS_CHARGER_RECVEIVER_delivered/Libraries/XMCLib/inc\xmc_ccu4.h ****      (interrupt == XMC_CCU4_SLICE_IRQ_ID_COMPARE_MATCH_DOWN)|| \
 163:C:/Workspaces/DAVE-4.4.2-64Bit/WIRELESS_CHARGER_RECVEIVER_delivered/Libraries/XMCLib/inc\xmc_ccu4.h ****      (interrupt == XMC_CCU4_SLICE_IRQ_ID_EVENT0)                 || \
 164:C:/Workspaces/DAVE-4.4.2-64Bit/WIRELESS_CHARGER_RECVEIVER_delivered/Libraries/XMCLib/inc\xmc_ccu4.h ****      (interrupt == XMC_CCU4_SLICE_IRQ_ID_EVENT1)                 || \
 165:C:/Workspaces/DAVE-4.4.2-64Bit/WIRELESS_CHARGER_RECVEIVER_delivered/Libraries/XMCLib/inc\xmc_ccu4.h ****      (interrupt == XMC_CCU4_SLICE_IRQ_ID_EVENT2)                 || \
 166:C:/Workspaces/DAVE-4.4.2-64Bit/WIRELESS_CHARGER_RECVEIVER_delivered/Libraries/XMCLib/inc\xmc_ccu4.h ****      (interrupt == XMC_CCU4_SLICE_IRQ_ID_TRAP))
 167:C:/Workspaces/DAVE-4.4.2-64Bit/WIRELESS_CHARGER_RECVEIVER_delivered/Libraries/XMCLib/inc\xmc_ccu4.h **** 
 168:C:/Workspaces/DAVE-4.4.2-64Bit/WIRELESS_CHARGER_RECVEIVER_delivered/Libraries/XMCLib/inc\xmc_ccu4.h **** /**************************************************************************************************
 169:C:/Workspaces/DAVE-4.4.2-64Bit/WIRELESS_CHARGER_RECVEIVER_delivered/Libraries/XMCLib/inc\xmc_ccu4.h ****  * ENUMS
 170:C:/Workspaces/DAVE-4.4.2-64Bit/WIRELESS_CHARGER_RECVEIVER_delivered/Libraries/XMCLib/inc\xmc_ccu4.h ****  **************************************************************************************************
 171:C:/Workspaces/DAVE-4.4.2-64Bit/WIRELESS_CHARGER_RECVEIVER_delivered/Libraries/XMCLib/inc\xmc_ccu4.h **** 
 172:C:/Workspaces/DAVE-4.4.2-64Bit/WIRELESS_CHARGER_RECVEIVER_delivered/Libraries/XMCLib/inc\xmc_ccu4.h **** /**
 173:C:/Workspaces/DAVE-4.4.2-64Bit/WIRELESS_CHARGER_RECVEIVER_delivered/Libraries/XMCLib/inc\xmc_ccu4.h ****  * Typedef for CCU4 Global data structure
 174:C:/Workspaces/DAVE-4.4.2-64Bit/WIRELESS_CHARGER_RECVEIVER_delivered/Libraries/XMCLib/inc\xmc_ccu4.h ****  */
 175:C:/Workspaces/DAVE-4.4.2-64Bit/WIRELESS_CHARGER_RECVEIVER_delivered/Libraries/XMCLib/inc\xmc_ccu4.h **** typedef CCU4_GLOBAL_TypeDef XMC_CCU4_MODULE_t;
 176:C:/Workspaces/DAVE-4.4.2-64Bit/WIRELESS_CHARGER_RECVEIVER_delivered/Libraries/XMCLib/inc\xmc_ccu4.h **** 
 177:C:/Workspaces/DAVE-4.4.2-64Bit/WIRELESS_CHARGER_RECVEIVER_delivered/Libraries/XMCLib/inc\xmc_ccu4.h **** /**
 178:C:/Workspaces/DAVE-4.4.2-64Bit/WIRELESS_CHARGER_RECVEIVER_delivered/Libraries/XMCLib/inc\xmc_ccu4.h ****  * Typedef for CCU4 Slice data structure
 179:C:/Workspaces/DAVE-4.4.2-64Bit/WIRELESS_CHARGER_RECVEIVER_delivered/Libraries/XMCLib/inc\xmc_ccu4.h ****  */
 180:C:/Workspaces/DAVE-4.4.2-64Bit/WIRELESS_CHARGER_RECVEIVER_delivered/Libraries/XMCLib/inc\xmc_ccu4.h **** typedef CCU4_CC4_TypeDef XMC_CCU4_SLICE_t;
 181:C:/Workspaces/DAVE-4.4.2-64Bit/WIRELESS_CHARGER_RECVEIVER_delivered/Libraries/XMCLib/inc\xmc_ccu4.h **** 
 182:C:/Workspaces/DAVE-4.4.2-64Bit/WIRELESS_CHARGER_RECVEIVER_delivered/Libraries/XMCLib/inc\xmc_ccu4.h **** /**
 183:C:/Workspaces/DAVE-4.4.2-64Bit/WIRELESS_CHARGER_RECVEIVER_delivered/Libraries/XMCLib/inc\xmc_ccu4.h ****  *  Return Value of an API
 184:C:/Workspaces/DAVE-4.4.2-64Bit/WIRELESS_CHARGER_RECVEIVER_delivered/Libraries/XMCLib/inc\xmc_ccu4.h ****  */ 
 185:C:/Workspaces/DAVE-4.4.2-64Bit/WIRELESS_CHARGER_RECVEIVER_delivered/Libraries/XMCLib/inc\xmc_ccu4.h **** typedef enum XMC_CCU4_STATUS
 186:C:/Workspaces/DAVE-4.4.2-64Bit/WIRELESS_CHARGER_RECVEIVER_delivered/Libraries/XMCLib/inc\xmc_ccu4.h **** {
 187:C:/Workspaces/DAVE-4.4.2-64Bit/WIRELESS_CHARGER_RECVEIVER_delivered/Libraries/XMCLib/inc\xmc_ccu4.h ****   XMC_CCU4_STATUS_OK      = 0U, /**< API fulfils request */
 188:C:/Workspaces/DAVE-4.4.2-64Bit/WIRELESS_CHARGER_RECVEIVER_delivered/Libraries/XMCLib/inc\xmc_ccu4.h ****   XMC_CCU4_STATUS_ERROR       , /**< API cannot fulfil the request */
 189:C:/Workspaces/DAVE-4.4.2-64Bit/WIRELESS_CHARGER_RECVEIVER_delivered/Libraries/XMCLib/inc\xmc_ccu4.h ****   XMC_CCU4_STATUS_RUNNING     , /**< The timer slice is currently running */
 190:C:/Workspaces/DAVE-4.4.2-64Bit/WIRELESS_CHARGER_RECVEIVER_delivered/Libraries/XMCLib/inc\xmc_ccu4.h ****   XMC_CCU4_STATUS_IDLE          /**< The timer slice is currently idle */
 191:C:/Workspaces/DAVE-4.4.2-64Bit/WIRELESS_CHARGER_RECVEIVER_delivered/Libraries/XMCLib/inc\xmc_ccu4.h **** } XMC_CCU4_STATUS_t;
 192:C:/Workspaces/DAVE-4.4.2-64Bit/WIRELESS_CHARGER_RECVEIVER_delivered/Libraries/XMCLib/inc\xmc_ccu4.h **** 
 193:C:/Workspaces/DAVE-4.4.2-64Bit/WIRELESS_CHARGER_RECVEIVER_delivered/Libraries/XMCLib/inc\xmc_ccu4.h **** /**
 194:C:/Workspaces/DAVE-4.4.2-64Bit/WIRELESS_CHARGER_RECVEIVER_delivered/Libraries/XMCLib/inc\xmc_ccu4.h ****  *  CCU4 module clock
 195:C:/Workspaces/DAVE-4.4.2-64Bit/WIRELESS_CHARGER_RECVEIVER_delivered/Libraries/XMCLib/inc\xmc_ccu4.h ****  */ 
 196:C:/Workspaces/DAVE-4.4.2-64Bit/WIRELESS_CHARGER_RECVEIVER_delivered/Libraries/XMCLib/inc\xmc_ccu4.h **** typedef enum XMC_CCU4_CLOCK
 197:C:/Workspaces/DAVE-4.4.2-64Bit/WIRELESS_CHARGER_RECVEIVER_delivered/Libraries/XMCLib/inc\xmc_ccu4.h **** {
 198:C:/Workspaces/DAVE-4.4.2-64Bit/WIRELESS_CHARGER_RECVEIVER_delivered/Libraries/XMCLib/inc\xmc_ccu4.h ****   XMC_CCU4_CLOCK_SCU        = 0U, /**< Select the fCCU as the clock */
 199:C:/Workspaces/DAVE-4.4.2-64Bit/WIRELESS_CHARGER_RECVEIVER_delivered/Libraries/XMCLib/inc\xmc_ccu4.h ****   XMC_CCU4_CLOCK_EXTERNAL_A     , /**< External clock-A */
 200:C:/Workspaces/DAVE-4.4.2-64Bit/WIRELESS_CHARGER_RECVEIVER_delivered/Libraries/XMCLib/inc\xmc_ccu4.h ****   XMC_CCU4_CLOCK_EXTERNAL_B     , /**< External clock-B */
 201:C:/Workspaces/DAVE-4.4.2-64Bit/WIRELESS_CHARGER_RECVEIVER_delivered/Libraries/XMCLib/inc\xmc_ccu4.h ****   XMC_CCU4_CLOCK_EXTERNAL_C       /**< External clock-C */
 202:C:/Workspaces/DAVE-4.4.2-64Bit/WIRELESS_CHARGER_RECVEIVER_delivered/Libraries/XMCLib/inc\xmc_ccu4.h **** } XMC_CCU4_CLOCK_t;
 203:C:/Workspaces/DAVE-4.4.2-64Bit/WIRELESS_CHARGER_RECVEIVER_delivered/Libraries/XMCLib/inc\xmc_ccu4.h **** 
 204:C:/Workspaces/DAVE-4.4.2-64Bit/WIRELESS_CHARGER_RECVEIVER_delivered/Libraries/XMCLib/inc\xmc_ccu4.h **** /**
 205:C:/Workspaces/DAVE-4.4.2-64Bit/WIRELESS_CHARGER_RECVEIVER_delivered/Libraries/XMCLib/inc\xmc_ccu4.h ****  * CCU4 set the shadow transfer type for multichannel mode
 206:C:/Workspaces/DAVE-4.4.2-64Bit/WIRELESS_CHARGER_RECVEIVER_delivered/Libraries/XMCLib/inc\xmc_ccu4.h ****  */
 207:C:/Workspaces/DAVE-4.4.2-64Bit/WIRELESS_CHARGER_RECVEIVER_delivered/Libraries/XMCLib/inc\xmc_ccu4.h **** typedef enum XMC_CCU4_MULTI_CHANNEL_SHADOW_TRANSFER
 208:C:/Workspaces/DAVE-4.4.2-64Bit/WIRELESS_CHARGER_RECVEIVER_delivered/Libraries/XMCLib/inc\xmc_ccu4.h **** {
 209:C:/Workspaces/DAVE-4.4.2-64Bit/WIRELESS_CHARGER_RECVEIVER_delivered/Libraries/XMCLib/inc\xmc_ccu4.h ****   XMC_CCU4_MULTI_CHANNEL_SHADOW_TRANSFER_SW_SLICE0       = (uint32_t)0x4000000, /**< Shadow transfe
 210:C:/Workspaces/DAVE-4.4.2-64Bit/WIRELESS_CHARGER_RECVEIVER_delivered/Libraries/XMCLib/inc\xmc_ccu4.h ****                                                                                      only for slice
 211:C:/Workspaces/DAVE-4.4.2-64Bit/WIRELESS_CHARGER_RECVEIVER_delivered/Libraries/XMCLib/inc\xmc_ccu4.h ****   XMC_CCU4_MULTI_CHANNEL_SHADOW_TRANSFER_SW_MCSS_SLICE0  = (uint32_t)0x4000400, /**< Shadow transfe
 212:C:/Workspaces/DAVE-4.4.2-64Bit/WIRELESS_CHARGER_RECVEIVER_delivered/Libraries/XMCLib/inc\xmc_ccu4.h ****                                                                                      and hardware f
 213:C:/Workspaces/DAVE-4.4.2-64Bit/WIRELESS_CHARGER_RECVEIVER_delivered/Libraries/XMCLib/inc\xmc_ccu4.h ****   XMC_CCU4_MULTI_CHANNEL_SHADOW_TRANSFER_SW_SLICE1       = (uint32_t)0x8000000, /**< Shadow transfe
 214:C:/Workspaces/DAVE-4.4.2-64Bit/WIRELESS_CHARGER_RECVEIVER_delivered/Libraries/XMCLib/inc\xmc_ccu4.h ****                                                                                      only for slice
 215:C:/Workspaces/DAVE-4.4.2-64Bit/WIRELESS_CHARGER_RECVEIVER_delivered/Libraries/XMCLib/inc\xmc_ccu4.h ****   XMC_CCU4_MULTI_CHANNEL_SHADOW_TRANSFER_SW_MCSS_SLICE1  = (uint32_t)0x8000800, /**< Shadow transfe
 216:C:/Workspaces/DAVE-4.4.2-64Bit/WIRELESS_CHARGER_RECVEIVER_delivered/Libraries/XMCLib/inc\xmc_ccu4.h ****                                                                                      and hardware f
 217:C:/Workspaces/DAVE-4.4.2-64Bit/WIRELESS_CHARGER_RECVEIVER_delivered/Libraries/XMCLib/inc\xmc_ccu4.h ****   XMC_CCU4_MULTI_CHANNEL_SHADOW_TRANSFER_SW_SLICE2       = (uint32_t)0x10000000, /**< Shadow transf
 218:C:/Workspaces/DAVE-4.4.2-64Bit/WIRELESS_CHARGER_RECVEIVER_delivered/Libraries/XMCLib/inc\xmc_ccu4.h ****                                                                                       only for slic
 219:C:/Workspaces/DAVE-4.4.2-64Bit/WIRELESS_CHARGER_RECVEIVER_delivered/Libraries/XMCLib/inc\xmc_ccu4.h ****   XMC_CCU4_MULTI_CHANNEL_SHADOW_TRANSFER_SW_MCSS_SLICE2  = (uint32_t)0x10001000, /**< Shadow transf
 220:C:/Workspaces/DAVE-4.4.2-64Bit/WIRELESS_CHARGER_RECVEIVER_delivered/Libraries/XMCLib/inc\xmc_ccu4.h ****                                                                                       and hardware 
 221:C:/Workspaces/DAVE-4.4.2-64Bit/WIRELESS_CHARGER_RECVEIVER_delivered/Libraries/XMCLib/inc\xmc_ccu4.h ****   XMC_CCU4_MULTI_CHANNEL_SHADOW_TRANSFER_SW_SLICE3       = (uint32_t)0x20000000, /**< Shadow transf
 222:C:/Workspaces/DAVE-4.4.2-64Bit/WIRELESS_CHARGER_RECVEIVER_delivered/Libraries/XMCLib/inc\xmc_ccu4.h ****                                                                                       only for slic
 223:C:/Workspaces/DAVE-4.4.2-64Bit/WIRELESS_CHARGER_RECVEIVER_delivered/Libraries/XMCLib/inc\xmc_ccu4.h ****   XMC_CCU4_MULTI_CHANNEL_SHADOW_TRANSFER_SW_MCSS_SLICE3  = (uint32_t)0x20002000  /**< Shadow transf
 224:C:/Workspaces/DAVE-4.4.2-64Bit/WIRELESS_CHARGER_RECVEIVER_delivered/Libraries/XMCLib/inc\xmc_ccu4.h ****                                                                                       and hardware 
 225:C:/Workspaces/DAVE-4.4.2-64Bit/WIRELESS_CHARGER_RECVEIVER_delivered/Libraries/XMCLib/inc\xmc_ccu4.h **** } XMC_CCU4_MULTI_CHANNEL_SHADOW_TRANSFER_t;
 226:C:/Workspaces/DAVE-4.4.2-64Bit/WIRELESS_CHARGER_RECVEIVER_delivered/Libraries/XMCLib/inc\xmc_ccu4.h **** 
 227:C:/Workspaces/DAVE-4.4.2-64Bit/WIRELESS_CHARGER_RECVEIVER_delivered/Libraries/XMCLib/inc\xmc_ccu4.h **** /**
 228:C:/Workspaces/DAVE-4.4.2-64Bit/WIRELESS_CHARGER_RECVEIVER_delivered/Libraries/XMCLib/inc\xmc_ccu4.h ****  *  Operational modes of CCU4 slice
 229:C:/Workspaces/DAVE-4.4.2-64Bit/WIRELESS_CHARGER_RECVEIVER_delivered/Libraries/XMCLib/inc\xmc_ccu4.h ****  */ 
 230:C:/Workspaces/DAVE-4.4.2-64Bit/WIRELESS_CHARGER_RECVEIVER_delivered/Libraries/XMCLib/inc\xmc_ccu4.h **** typedef enum XMC_CCU4_SLICE_MODE
 231:C:/Workspaces/DAVE-4.4.2-64Bit/WIRELESS_CHARGER_RECVEIVER_delivered/Libraries/XMCLib/inc\xmc_ccu4.h **** {
 232:C:/Workspaces/DAVE-4.4.2-64Bit/WIRELESS_CHARGER_RECVEIVER_delivered/Libraries/XMCLib/inc\xmc_ccu4.h ****   XMC_CCU4_SLICE_MODE_COMPARE  = 0U, /**< slice(CC4y) operates in Compare Mode */
 233:C:/Workspaces/DAVE-4.4.2-64Bit/WIRELESS_CHARGER_RECVEIVER_delivered/Libraries/XMCLib/inc\xmc_ccu4.h ****   XMC_CCU4_SLICE_MODE_CAPTURE        /**< slice(CC4y) operates in Capture Mode */
 234:C:/Workspaces/DAVE-4.4.2-64Bit/WIRELESS_CHARGER_RECVEIVER_delivered/Libraries/XMCLib/inc\xmc_ccu4.h **** } XMC_CCU4_SLICE_MODE_t;
 235:C:/Workspaces/DAVE-4.4.2-64Bit/WIRELESS_CHARGER_RECVEIVER_delivered/Libraries/XMCLib/inc\xmc_ccu4.h **** 
 236:C:/Workspaces/DAVE-4.4.2-64Bit/WIRELESS_CHARGER_RECVEIVER_delivered/Libraries/XMCLib/inc\xmc_ccu4.h **** /**
 237:C:/Workspaces/DAVE-4.4.2-64Bit/WIRELESS_CHARGER_RECVEIVER_delivered/Libraries/XMCLib/inc\xmc_ccu4.h ****  *  Timer counting modes for the slice
 238:C:/Workspaces/DAVE-4.4.2-64Bit/WIRELESS_CHARGER_RECVEIVER_delivered/Libraries/XMCLib/inc\xmc_ccu4.h ****  */ 
 239:C:/Workspaces/DAVE-4.4.2-64Bit/WIRELESS_CHARGER_RECVEIVER_delivered/Libraries/XMCLib/inc\xmc_ccu4.h **** typedef enum XMC_CCU4_SLICE_TIMER_COUNT_MODE
 240:C:/Workspaces/DAVE-4.4.2-64Bit/WIRELESS_CHARGER_RECVEIVER_delivered/Libraries/XMCLib/inc\xmc_ccu4.h **** {
 241:C:/Workspaces/DAVE-4.4.2-64Bit/WIRELESS_CHARGER_RECVEIVER_delivered/Libraries/XMCLib/inc\xmc_ccu4.h ****   XMC_CCU4_SLICE_TIMER_COUNT_MODE_EA  = 0U, /**< Edge Aligned Mode */
 242:C:/Workspaces/DAVE-4.4.2-64Bit/WIRELESS_CHARGER_RECVEIVER_delivered/Libraries/XMCLib/inc\xmc_ccu4.h ****   XMC_CCU4_SLICE_TIMER_COUNT_MODE_CA        /**< Center Aligned Mode */
 243:C:/Workspaces/DAVE-4.4.2-64Bit/WIRELESS_CHARGER_RECVEIVER_delivered/Libraries/XMCLib/inc\xmc_ccu4.h **** } XMC_CCU4_SLICE_TIMER_COUNT_MODE_t;
 244:C:/Workspaces/DAVE-4.4.2-64Bit/WIRELESS_CHARGER_RECVEIVER_delivered/Libraries/XMCLib/inc\xmc_ccu4.h **** 
 245:C:/Workspaces/DAVE-4.4.2-64Bit/WIRELESS_CHARGER_RECVEIVER_delivered/Libraries/XMCLib/inc\xmc_ccu4.h **** /**
 246:C:/Workspaces/DAVE-4.4.2-64Bit/WIRELESS_CHARGER_RECVEIVER_delivered/Libraries/XMCLib/inc\xmc_ccu4.h ****  *  Timer repetition mode for the slice
 247:C:/Workspaces/DAVE-4.4.2-64Bit/WIRELESS_CHARGER_RECVEIVER_delivered/Libraries/XMCLib/inc\xmc_ccu4.h ****  */ 
 248:C:/Workspaces/DAVE-4.4.2-64Bit/WIRELESS_CHARGER_RECVEIVER_delivered/Libraries/XMCLib/inc\xmc_ccu4.h **** typedef enum XMC_CCU4_SLICE_TIMER_REPEAT_MODE
 249:C:/Workspaces/DAVE-4.4.2-64Bit/WIRELESS_CHARGER_RECVEIVER_delivered/Libraries/XMCLib/inc\xmc_ccu4.h **** {
 250:C:/Workspaces/DAVE-4.4.2-64Bit/WIRELESS_CHARGER_RECVEIVER_delivered/Libraries/XMCLib/inc\xmc_ccu4.h ****   XMC_CCU4_SLICE_TIMER_REPEAT_MODE_REPEAT = 0U,  /**< Repetitive mode: continuous mode of operation
 251:C:/Workspaces/DAVE-4.4.2-64Bit/WIRELESS_CHARGER_RECVEIVER_delivered/Libraries/XMCLib/inc\xmc_ccu4.h ****   XMC_CCU4_SLICE_TIMER_REPEAT_MODE_SINGLE        /**< Single shot mode: Once a Period match/One mat
 252:C:/Workspaces/DAVE-4.4.2-64Bit/WIRELESS_CHARGER_RECVEIVER_delivered/Libraries/XMCLib/inc\xmc_ccu4.h ****                                                       occurs timer goes to idle state */
 253:C:/Workspaces/DAVE-4.4.2-64Bit/WIRELESS_CHARGER_RECVEIVER_delivered/Libraries/XMCLib/inc\xmc_ccu4.h **** } XMC_CCU4_SLICE_TIMER_REPEAT_MODE_t;
 254:C:/Workspaces/DAVE-4.4.2-64Bit/WIRELESS_CHARGER_RECVEIVER_delivered/Libraries/XMCLib/inc\xmc_ccu4.h **** 
 255:C:/Workspaces/DAVE-4.4.2-64Bit/WIRELESS_CHARGER_RECVEIVER_delivered/Libraries/XMCLib/inc\xmc_ccu4.h **** /**
 256:C:/Workspaces/DAVE-4.4.2-64Bit/WIRELESS_CHARGER_RECVEIVER_delivered/Libraries/XMCLib/inc\xmc_ccu4.h ****  * Timer counting direction for the CCU4 slice
 257:C:/Workspaces/DAVE-4.4.2-64Bit/WIRELESS_CHARGER_RECVEIVER_delivered/Libraries/XMCLib/inc\xmc_ccu4.h ****  */ 
 258:C:/Workspaces/DAVE-4.4.2-64Bit/WIRELESS_CHARGER_RECVEIVER_delivered/Libraries/XMCLib/inc\xmc_ccu4.h **** typedef enum XMC_CCU4_SLICE_TIMER_COUNT_DIR
 259:C:/Workspaces/DAVE-4.4.2-64Bit/WIRELESS_CHARGER_RECVEIVER_delivered/Libraries/XMCLib/inc\xmc_ccu4.h **** {
 260:C:/Workspaces/DAVE-4.4.2-64Bit/WIRELESS_CHARGER_RECVEIVER_delivered/Libraries/XMCLib/inc\xmc_ccu4.h ****   XMC_CCU4_SLICE_TIMER_COUNT_DIR_UP   = 0U, /**< Counting up */
 261:C:/Workspaces/DAVE-4.4.2-64Bit/WIRELESS_CHARGER_RECVEIVER_delivered/Libraries/XMCLib/inc\xmc_ccu4.h ****   XMC_CCU4_SLICE_TIMER_COUNT_DIR_DOWN       /**< Counting down */
 262:C:/Workspaces/DAVE-4.4.2-64Bit/WIRELESS_CHARGER_RECVEIVER_delivered/Libraries/XMCLib/inc\xmc_ccu4.h **** } XMC_CCU4_SLICE_TIMER_COUNT_DIR_t;
 263:C:/Workspaces/DAVE-4.4.2-64Bit/WIRELESS_CHARGER_RECVEIVER_delivered/Libraries/XMCLib/inc\xmc_ccu4.h **** 
 264:C:/Workspaces/DAVE-4.4.2-64Bit/WIRELESS_CHARGER_RECVEIVER_delivered/Libraries/XMCLib/inc\xmc_ccu4.h **** /**
 265:C:/Workspaces/DAVE-4.4.2-64Bit/WIRELESS_CHARGER_RECVEIVER_delivered/Libraries/XMCLib/inc\xmc_ccu4.h ****  *  Capture mode register sets
 266:C:/Workspaces/DAVE-4.4.2-64Bit/WIRELESS_CHARGER_RECVEIVER_delivered/Libraries/XMCLib/inc\xmc_ccu4.h ****  */ 
 267:C:/Workspaces/DAVE-4.4.2-64Bit/WIRELESS_CHARGER_RECVEIVER_delivered/Libraries/XMCLib/inc\xmc_ccu4.h **** typedef enum XMC_CCU4_SLICE_CAP_REG_SET
 268:C:/Workspaces/DAVE-4.4.2-64Bit/WIRELESS_CHARGER_RECVEIVER_delivered/Libraries/XMCLib/inc\xmc_ccu4.h **** {
 269:C:/Workspaces/DAVE-4.4.2-64Bit/WIRELESS_CHARGER_RECVEIVER_delivered/Libraries/XMCLib/inc\xmc_ccu4.h ****   XMC_CCU4_SLICE_CAP_REG_SET_LOW  = 0U, /**< Capture register-0, Capture register-1 used */
 270:C:/Workspaces/DAVE-4.4.2-64Bit/WIRELESS_CHARGER_RECVEIVER_delivered/Libraries/XMCLib/inc\xmc_ccu4.h ****   XMC_CCU4_SLICE_CAP_REG_SET_HIGH       /**< Capture register-2, Capture register-3 used */
 271:C:/Workspaces/DAVE-4.4.2-64Bit/WIRELESS_CHARGER_RECVEIVER_delivered/Libraries/XMCLib/inc\xmc_ccu4.h **** } XMC_CCU4_SLICE_CAP_REG_SET_t;
 272:C:/Workspaces/DAVE-4.4.2-64Bit/WIRELESS_CHARGER_RECVEIVER_delivered/Libraries/XMCLib/inc\xmc_ccu4.h **** 
 273:C:/Workspaces/DAVE-4.4.2-64Bit/WIRELESS_CHARGER_RECVEIVER_delivered/Libraries/XMCLib/inc\xmc_ccu4.h **** /**
 274:C:/Workspaces/DAVE-4.4.2-64Bit/WIRELESS_CHARGER_RECVEIVER_delivered/Libraries/XMCLib/inc\xmc_ccu4.h ****  *  Prescaler mode
 275:C:/Workspaces/DAVE-4.4.2-64Bit/WIRELESS_CHARGER_RECVEIVER_delivered/Libraries/XMCLib/inc\xmc_ccu4.h ****  */ 
 276:C:/Workspaces/DAVE-4.4.2-64Bit/WIRELESS_CHARGER_RECVEIVER_delivered/Libraries/XMCLib/inc\xmc_ccu4.h **** typedef enum XMC_CCU4_SLICE_PRESCALER_MODE
 277:C:/Workspaces/DAVE-4.4.2-64Bit/WIRELESS_CHARGER_RECVEIVER_delivered/Libraries/XMCLib/inc\xmc_ccu4.h **** {
 278:C:/Workspaces/DAVE-4.4.2-64Bit/WIRELESS_CHARGER_RECVEIVER_delivered/Libraries/XMCLib/inc\xmc_ccu4.h ****   XMC_CCU4_SLICE_PRESCALER_MODE_NORMAL = 0U, /**< Fixed division of module clock */
 279:C:/Workspaces/DAVE-4.4.2-64Bit/WIRELESS_CHARGER_RECVEIVER_delivered/Libraries/XMCLib/inc\xmc_ccu4.h ****   XMC_CCU4_SLICE_PRESCALER_MODE_FLOAT        /**< Floating divider. */
 280:C:/Workspaces/DAVE-4.4.2-64Bit/WIRELESS_CHARGER_RECVEIVER_delivered/Libraries/XMCLib/inc\xmc_ccu4.h **** } XMC_CCU4_SLICE_PRESCALER_MODE_t;
 281:C:/Workspaces/DAVE-4.4.2-64Bit/WIRELESS_CHARGER_RECVEIVER_delivered/Libraries/XMCLib/inc\xmc_ccu4.h **** 
 282:C:/Workspaces/DAVE-4.4.2-64Bit/WIRELESS_CHARGER_RECVEIVER_delivered/Libraries/XMCLib/inc\xmc_ccu4.h **** /**
 283:C:/Workspaces/DAVE-4.4.2-64Bit/WIRELESS_CHARGER_RECVEIVER_delivered/Libraries/XMCLib/inc\xmc_ccu4.h ****  *  Timer output passive level
 284:C:/Workspaces/DAVE-4.4.2-64Bit/WIRELESS_CHARGER_RECVEIVER_delivered/Libraries/XMCLib/inc\xmc_ccu4.h ****  */ 
 285:C:/Workspaces/DAVE-4.4.2-64Bit/WIRELESS_CHARGER_RECVEIVER_delivered/Libraries/XMCLib/inc\xmc_ccu4.h **** typedef enum XMC_CCU4_SLICE_OUTPUT_PASSIVE_LEVEL
 286:C:/Workspaces/DAVE-4.4.2-64Bit/WIRELESS_CHARGER_RECVEIVER_delivered/Libraries/XMCLib/inc\xmc_ccu4.h **** {
 287:C:/Workspaces/DAVE-4.4.2-64Bit/WIRELESS_CHARGER_RECVEIVER_delivered/Libraries/XMCLib/inc\xmc_ccu4.h ****   XMC_CCU4_SLICE_OUTPUT_PASSIVE_LEVEL_LOW  = 0U, /**< Passive level = Low */
 288:C:/Workspaces/DAVE-4.4.2-64Bit/WIRELESS_CHARGER_RECVEIVER_delivered/Libraries/XMCLib/inc\xmc_ccu4.h ****   XMC_CCU4_SLICE_OUTPUT_PASSIVE_LEVEL_HIGH       /**< Passive level = High */
 289:C:/Workspaces/DAVE-4.4.2-64Bit/WIRELESS_CHARGER_RECVEIVER_delivered/Libraries/XMCLib/inc\xmc_ccu4.h **** } XMC_CCU4_SLICE_OUTPUT_PASSIVE_LEVEL_t;
 290:C:/Workspaces/DAVE-4.4.2-64Bit/WIRELESS_CHARGER_RECVEIVER_delivered/Libraries/XMCLib/inc\xmc_ccu4.h **** 
 291:C:/Workspaces/DAVE-4.4.2-64Bit/WIRELESS_CHARGER_RECVEIVER_delivered/Libraries/XMCLib/inc\xmc_ccu4.h **** /**
 292:C:/Workspaces/DAVE-4.4.2-64Bit/WIRELESS_CHARGER_RECVEIVER_delivered/Libraries/XMCLib/inc\xmc_ccu4.h ****  * Timer clock Divider
 293:C:/Workspaces/DAVE-4.4.2-64Bit/WIRELESS_CHARGER_RECVEIVER_delivered/Libraries/XMCLib/inc\xmc_ccu4.h ****  */
 294:C:/Workspaces/DAVE-4.4.2-64Bit/WIRELESS_CHARGER_RECVEIVER_delivered/Libraries/XMCLib/inc\xmc_ccu4.h **** typedef enum XMC_CCU4_SLICE_PRESCALER
 295:C:/Workspaces/DAVE-4.4.2-64Bit/WIRELESS_CHARGER_RECVEIVER_delivered/Libraries/XMCLib/inc\xmc_ccu4.h **** {
 296:C:/Workspaces/DAVE-4.4.2-64Bit/WIRELESS_CHARGER_RECVEIVER_delivered/Libraries/XMCLib/inc\xmc_ccu4.h ****   XMC_CCU4_SLICE_PRESCALER_1  = 0U, /**< Slice Clock = fccu4 */
 297:C:/Workspaces/DAVE-4.4.2-64Bit/WIRELESS_CHARGER_RECVEIVER_delivered/Libraries/XMCLib/inc\xmc_ccu4.h ****   XMC_CCU4_SLICE_PRESCALER_2      , /**< Slice Clock = fccu4/2 */
 298:C:/Workspaces/DAVE-4.4.2-64Bit/WIRELESS_CHARGER_RECVEIVER_delivered/Libraries/XMCLib/inc\xmc_ccu4.h ****   XMC_CCU4_SLICE_PRESCALER_4      , /**< Slice Clock = fccu4/4 */
 299:C:/Workspaces/DAVE-4.4.2-64Bit/WIRELESS_CHARGER_RECVEIVER_delivered/Libraries/XMCLib/inc\xmc_ccu4.h ****   XMC_CCU4_SLICE_PRESCALER_8      , /**< Slice Clock = fccu4/8 */
 300:C:/Workspaces/DAVE-4.4.2-64Bit/WIRELESS_CHARGER_RECVEIVER_delivered/Libraries/XMCLib/inc\xmc_ccu4.h ****   XMC_CCU4_SLICE_PRESCALER_16     , /**< Slice Clock = fccu4/16 */
 301:C:/Workspaces/DAVE-4.4.2-64Bit/WIRELESS_CHARGER_RECVEIVER_delivered/Libraries/XMCLib/inc\xmc_ccu4.h ****   XMC_CCU4_SLICE_PRESCALER_32     , /**< Slice Clock = fccu4/32 */
 302:C:/Workspaces/DAVE-4.4.2-64Bit/WIRELESS_CHARGER_RECVEIVER_delivered/Libraries/XMCLib/inc\xmc_ccu4.h ****   XMC_CCU4_SLICE_PRESCALER_64     , /**< Slice Clock = fccu4/64 */
 303:C:/Workspaces/DAVE-4.4.2-64Bit/WIRELESS_CHARGER_RECVEIVER_delivered/Libraries/XMCLib/inc\xmc_ccu4.h ****   XMC_CCU4_SLICE_PRESCALER_128    , /**< Slice Clock = fccu4/128 */
 304:C:/Workspaces/DAVE-4.4.2-64Bit/WIRELESS_CHARGER_RECVEIVER_delivered/Libraries/XMCLib/inc\xmc_ccu4.h ****   XMC_CCU4_SLICE_PRESCALER_256    , /**< Slice Clock = fccu4/256 */
 305:C:/Workspaces/DAVE-4.4.2-64Bit/WIRELESS_CHARGER_RECVEIVER_delivered/Libraries/XMCLib/inc\xmc_ccu4.h ****   XMC_CCU4_SLICE_PRESCALER_512    , /**< Slice Clock = fccu4/512 */
 306:C:/Workspaces/DAVE-4.4.2-64Bit/WIRELESS_CHARGER_RECVEIVER_delivered/Libraries/XMCLib/inc\xmc_ccu4.h ****   XMC_CCU4_SLICE_PRESCALER_1024   , /**< Slice Clock = fccu4/1024 */
 307:C:/Workspaces/DAVE-4.4.2-64Bit/WIRELESS_CHARGER_RECVEIVER_delivered/Libraries/XMCLib/inc\xmc_ccu4.h ****   XMC_CCU4_SLICE_PRESCALER_2048   , /**< Slice Clock = fccu4/2048 */
 308:C:/Workspaces/DAVE-4.4.2-64Bit/WIRELESS_CHARGER_RECVEIVER_delivered/Libraries/XMCLib/inc\xmc_ccu4.h ****   XMC_CCU4_SLICE_PRESCALER_4096   , /**< Slice Clock = fccu4/4096 */
 309:C:/Workspaces/DAVE-4.4.2-64Bit/WIRELESS_CHARGER_RECVEIVER_delivered/Libraries/XMCLib/inc\xmc_ccu4.h ****   XMC_CCU4_SLICE_PRESCALER_8192   , /**< Slice Clock = fccu4/8192 */
 310:C:/Workspaces/DAVE-4.4.2-64Bit/WIRELESS_CHARGER_RECVEIVER_delivered/Libraries/XMCLib/inc\xmc_ccu4.h ****   XMC_CCU4_SLICE_PRESCALER_16384  , /**< Slice Clock = fccu4/16384 */
 311:C:/Workspaces/DAVE-4.4.2-64Bit/WIRELESS_CHARGER_RECVEIVER_delivered/Libraries/XMCLib/inc\xmc_ccu4.h ****   XMC_CCU4_SLICE_PRESCALER_32768    /**< Slice Clock = fccu4/32768 */
 312:C:/Workspaces/DAVE-4.4.2-64Bit/WIRELESS_CHARGER_RECVEIVER_delivered/Libraries/XMCLib/inc\xmc_ccu4.h **** } XMC_CCU4_SLICE_PRESCALER_t;
 313:C:/Workspaces/DAVE-4.4.2-64Bit/WIRELESS_CHARGER_RECVEIVER_delivered/Libraries/XMCLib/inc\xmc_ccu4.h **** 
 314:C:/Workspaces/DAVE-4.4.2-64Bit/WIRELESS_CHARGER_RECVEIVER_delivered/Libraries/XMCLib/inc\xmc_ccu4.h **** /**
 315:C:/Workspaces/DAVE-4.4.2-64Bit/WIRELESS_CHARGER_RECVEIVER_delivered/Libraries/XMCLib/inc\xmc_ccu4.h ****  *  External Function list
 316:C:/Workspaces/DAVE-4.4.2-64Bit/WIRELESS_CHARGER_RECVEIVER_delivered/Libraries/XMCLib/inc\xmc_ccu4.h ****  */ 
 317:C:/Workspaces/DAVE-4.4.2-64Bit/WIRELESS_CHARGER_RECVEIVER_delivered/Libraries/XMCLib/inc\xmc_ccu4.h **** typedef enum XMC_CCU4_SLICE_FUNCTION
 318:C:/Workspaces/DAVE-4.4.2-64Bit/WIRELESS_CHARGER_RECVEIVER_delivered/Libraries/XMCLib/inc\xmc_ccu4.h **** {
 319:C:/Workspaces/DAVE-4.4.2-64Bit/WIRELESS_CHARGER_RECVEIVER_delivered/Libraries/XMCLib/inc\xmc_ccu4.h ****   XMC_CCU4_SLICE_FUNCTION_START           = 0U, /**< Start function */
 320:C:/Workspaces/DAVE-4.4.2-64Bit/WIRELESS_CHARGER_RECVEIVER_delivered/Libraries/XMCLib/inc\xmc_ccu4.h ****   XMC_CCU4_SLICE_FUNCTION_STOP                , /**< Stop function */
 321:C:/Workspaces/DAVE-4.4.2-64Bit/WIRELESS_CHARGER_RECVEIVER_delivered/Libraries/XMCLib/inc\xmc_ccu4.h ****   XMC_CCU4_SLICE_FUNCTION_CAPTURE_EVENT0      , /**< Capture Event-0 function, CCycapt0 signal is u
 322:C:/Workspaces/DAVE-4.4.2-64Bit/WIRELESS_CHARGER_RECVEIVER_delivered/Libraries/XMCLib/inc\xmc_ccu4.h ****                                                      generation */
 323:C:/Workspaces/DAVE-4.4.2-64Bit/WIRELESS_CHARGER_RECVEIVER_delivered/Libraries/XMCLib/inc\xmc_ccu4.h ****   XMC_CCU4_SLICE_FUNCTION_CAPTURE_EVENT1      , /**< Capture Event-1 function, CCycapt1 signal is u
 324:C:/Workspaces/DAVE-4.4.2-64Bit/WIRELESS_CHARGER_RECVEIVER_delivered/Libraries/XMCLib/inc\xmc_ccu4.h ****                                                      generation */
 325:C:/Workspaces/DAVE-4.4.2-64Bit/WIRELESS_CHARGER_RECVEIVER_delivered/Libraries/XMCLib/inc\xmc_ccu4.h ****   XMC_CCU4_SLICE_FUNCTION_GATING              , /**< Gating function */
 326:C:/Workspaces/DAVE-4.4.2-64Bit/WIRELESS_CHARGER_RECVEIVER_delivered/Libraries/XMCLib/inc\xmc_ccu4.h ****   XMC_CCU4_SLICE_FUNCTION_DIRECTION           , /**< Direction function */
 327:C:/Workspaces/DAVE-4.4.2-64Bit/WIRELESS_CHARGER_RECVEIVER_delivered/Libraries/XMCLib/inc\xmc_ccu4.h ****   XMC_CCU4_SLICE_FUNCTION_LOAD                , /**< Load function */
 328:C:/Workspaces/DAVE-4.4.2-64Bit/WIRELESS_CHARGER_RECVEIVER_delivered/Libraries/XMCLib/inc\xmc_ccu4.h ****   XMC_CCU4_SLICE_FUNCTION_COUNT               , /**< Counting function */
 329:C:/Workspaces/DAVE-4.4.2-64Bit/WIRELESS_CHARGER_RECVEIVER_delivered/Libraries/XMCLib/inc\xmc_ccu4.h ****   XMC_CCU4_SLICE_FUNCTION_OVERRIDE            , /**< Override function */
 330:C:/Workspaces/DAVE-4.4.2-64Bit/WIRELESS_CHARGER_RECVEIVER_delivered/Libraries/XMCLib/inc\xmc_ccu4.h ****   XMC_CCU4_SLICE_FUNCTION_MODULATION          , /**< Modulation function */
 331:C:/Workspaces/DAVE-4.4.2-64Bit/WIRELESS_CHARGER_RECVEIVER_delivered/Libraries/XMCLib/inc\xmc_ccu4.h ****   XMC_CCU4_SLICE_FUNCTION_TRAP                  /**< Trap function */
 332:C:/Workspaces/DAVE-4.4.2-64Bit/WIRELESS_CHARGER_RECVEIVER_delivered/Libraries/XMCLib/inc\xmc_ccu4.h **** } XMC_CCU4_SLICE_FUNCTION_t;
 333:C:/Workspaces/DAVE-4.4.2-64Bit/WIRELESS_CHARGER_RECVEIVER_delivered/Libraries/XMCLib/inc\xmc_ccu4.h **** 
 334:C:/Workspaces/DAVE-4.4.2-64Bit/WIRELESS_CHARGER_RECVEIVER_delivered/Libraries/XMCLib/inc\xmc_ccu4.h **** /**
 335:C:/Workspaces/DAVE-4.4.2-64Bit/WIRELESS_CHARGER_RECVEIVER_delivered/Libraries/XMCLib/inc\xmc_ccu4.h ****  *  External Event list
 336:C:/Workspaces/DAVE-4.4.2-64Bit/WIRELESS_CHARGER_RECVEIVER_delivered/Libraries/XMCLib/inc\xmc_ccu4.h ****  */ 
 337:C:/Workspaces/DAVE-4.4.2-64Bit/WIRELESS_CHARGER_RECVEIVER_delivered/Libraries/XMCLib/inc\xmc_ccu4.h **** typedef enum XMC_CCU4_SLICE_EVENT
 338:C:/Workspaces/DAVE-4.4.2-64Bit/WIRELESS_CHARGER_RECVEIVER_delivered/Libraries/XMCLib/inc\xmc_ccu4.h **** {
 339:C:/Workspaces/DAVE-4.4.2-64Bit/WIRELESS_CHARGER_RECVEIVER_delivered/Libraries/XMCLib/inc\xmc_ccu4.h ****   XMC_CCU4_SLICE_EVENT_NONE  = 0U, /**< None */
 340:C:/Workspaces/DAVE-4.4.2-64Bit/WIRELESS_CHARGER_RECVEIVER_delivered/Libraries/XMCLib/inc\xmc_ccu4.h ****   XMC_CCU4_SLICE_EVENT_0         , /**< Event-0 */
 341:C:/Workspaces/DAVE-4.4.2-64Bit/WIRELESS_CHARGER_RECVEIVER_delivered/Libraries/XMCLib/inc\xmc_ccu4.h ****   XMC_CCU4_SLICE_EVENT_1         , /**< Event-1 */
 342:C:/Workspaces/DAVE-4.4.2-64Bit/WIRELESS_CHARGER_RECVEIVER_delivered/Libraries/XMCLib/inc\xmc_ccu4.h ****   XMC_CCU4_SLICE_EVENT_2           /**< Event-2 */
 343:C:/Workspaces/DAVE-4.4.2-64Bit/WIRELESS_CHARGER_RECVEIVER_delivered/Libraries/XMCLib/inc\xmc_ccu4.h **** } XMC_CCU4_SLICE_EVENT_t;
 344:C:/Workspaces/DAVE-4.4.2-64Bit/WIRELESS_CHARGER_RECVEIVER_delivered/Libraries/XMCLib/inc\xmc_ccu4.h **** 
 345:C:/Workspaces/DAVE-4.4.2-64Bit/WIRELESS_CHARGER_RECVEIVER_delivered/Libraries/XMCLib/inc\xmc_ccu4.h **** /**
 346:C:/Workspaces/DAVE-4.4.2-64Bit/WIRELESS_CHARGER_RECVEIVER_delivered/Libraries/XMCLib/inc\xmc_ccu4.h ****  *  External Event trigger criteria  - Edge sensitivity
 347:C:/Workspaces/DAVE-4.4.2-64Bit/WIRELESS_CHARGER_RECVEIVER_delivered/Libraries/XMCLib/inc\xmc_ccu4.h ****  */ 
 348:C:/Workspaces/DAVE-4.4.2-64Bit/WIRELESS_CHARGER_RECVEIVER_delivered/Libraries/XMCLib/inc\xmc_ccu4.h **** typedef enum XMC_CCU4_SLICE_EVENT_EDGE_SENSITIVITY
 349:C:/Workspaces/DAVE-4.4.2-64Bit/WIRELESS_CHARGER_RECVEIVER_delivered/Libraries/XMCLib/inc\xmc_ccu4.h **** {
 350:C:/Workspaces/DAVE-4.4.2-64Bit/WIRELESS_CHARGER_RECVEIVER_delivered/Libraries/XMCLib/inc\xmc_ccu4.h ****   XMC_CCU4_SLICE_EVENT_EDGE_SENSITIVITY_NONE         = 0U, /**< None */
 351:C:/Workspaces/DAVE-4.4.2-64Bit/WIRELESS_CHARGER_RECVEIVER_delivered/Libraries/XMCLib/inc\xmc_ccu4.h ****   XMC_CCU4_SLICE_EVENT_EDGE_SENSITIVITY_RISING_EDGE      , /**< Rising Edge of the input signal gen
 352:C:/Workspaces/DAVE-4.4.2-64Bit/WIRELESS_CHARGER_RECVEIVER_delivered/Libraries/XMCLib/inc\xmc_ccu4.h ****   XMC_CCU4_SLICE_EVENT_EDGE_SENSITIVITY_FALLING_EDGE     , /**< Falling Edge of the input signal ge
 353:C:/Workspaces/DAVE-4.4.2-64Bit/WIRELESS_CHARGER_RECVEIVER_delivered/Libraries/XMCLib/inc\xmc_ccu4.h ****                                                                 trigger */
 354:C:/Workspaces/DAVE-4.4.2-64Bit/WIRELESS_CHARGER_RECVEIVER_delivered/Libraries/XMCLib/inc\xmc_ccu4.h ****   XMC_CCU4_SLICE_EVENT_EDGE_SENSITIVITY_DUAL_EDGE          /**< Both Rising and Falling edges cause
 355:C:/Workspaces/DAVE-4.4.2-64Bit/WIRELESS_CHARGER_RECVEIVER_delivered/Libraries/XMCLib/inc\xmc_ccu4.h **** } XMC_CCU4_SLICE_EVENT_EDGE_SENSITIVITY_t;
 356:C:/Workspaces/DAVE-4.4.2-64Bit/WIRELESS_CHARGER_RECVEIVER_delivered/Libraries/XMCLib/inc\xmc_ccu4.h **** 
 357:C:/Workspaces/DAVE-4.4.2-64Bit/WIRELESS_CHARGER_RECVEIVER_delivered/Libraries/XMCLib/inc\xmc_ccu4.h **** /**
 358:C:/Workspaces/DAVE-4.4.2-64Bit/WIRELESS_CHARGER_RECVEIVER_delivered/Libraries/XMCLib/inc\xmc_ccu4.h ****  *  External Event trigger criteria  - Level sensitivity
 359:C:/Workspaces/DAVE-4.4.2-64Bit/WIRELESS_CHARGER_RECVEIVER_delivered/Libraries/XMCLib/inc\xmc_ccu4.h ****  */ 
 360:C:/Workspaces/DAVE-4.4.2-64Bit/WIRELESS_CHARGER_RECVEIVER_delivered/Libraries/XMCLib/inc\xmc_ccu4.h **** typedef enum XMC_CCU4_SLICE_EVENT_LEVEL_SENSITIVITY
 361:C:/Workspaces/DAVE-4.4.2-64Bit/WIRELESS_CHARGER_RECVEIVER_delivered/Libraries/XMCLib/inc\xmc_ccu4.h **** {
 362:C:/Workspaces/DAVE-4.4.2-64Bit/WIRELESS_CHARGER_RECVEIVER_delivered/Libraries/XMCLib/inc\xmc_ccu4.h ****   XMC_CCU4_SLICE_EVENT_LEVEL_SENSITIVITY_ACTIVE_HIGH = 0U, /**< Level sensitive functions react to 
 363:C:/Workspaces/DAVE-4.4.2-64Bit/WIRELESS_CHARGER_RECVEIVER_delivered/Libraries/XMCLib/inc\xmc_ccu4.h ****   XMC_CCU4_SLICE_EVENT_LEVEL_SENSITIVITY_ACTIVE_LOW  = 1U, /**< Level sensitive functions react to 
 364:C:/Workspaces/DAVE-4.4.2-64Bit/WIRELESS_CHARGER_RECVEIVER_delivered/Libraries/XMCLib/inc\xmc_ccu4.h ****   /* Below enum items can be utilised specific to the functionality */
 365:C:/Workspaces/DAVE-4.4.2-64Bit/WIRELESS_CHARGER_RECVEIVER_delivered/Libraries/XMCLib/inc\xmc_ccu4.h ****   XMC_CCU4_SLICE_EVENT_LEVEL_SENSITIVITY_COUNT_UP_ON_LOW = 0U, /**< Timer counts up, during Low sta
 366:C:/Workspaces/DAVE-4.4.2-64Bit/WIRELESS_CHARGER_RECVEIVER_delivered/Libraries/XMCLib/inc\xmc_ccu4.h ****   XMC_CCU4_SLICE_EVENT_LEVEL_SENSITIVITY_COUNT_UP_ON_HIGH = 1U /**< Timer counts up, during High st
 367:C:/Workspaces/DAVE-4.4.2-64Bit/WIRELESS_CHARGER_RECVEIVER_delivered/Libraries/XMCLib/inc\xmc_ccu4.h **** } XMC_CCU4_SLICE_EVENT_LEVEL_SENSITIVITY_t;
 368:C:/Workspaces/DAVE-4.4.2-64Bit/WIRELESS_CHARGER_RECVEIVER_delivered/Libraries/XMCLib/inc\xmc_ccu4.h **** 
 369:C:/Workspaces/DAVE-4.4.2-64Bit/WIRELESS_CHARGER_RECVEIVER_delivered/Libraries/XMCLib/inc\xmc_ccu4.h **** /**
 370:C:/Workspaces/DAVE-4.4.2-64Bit/WIRELESS_CHARGER_RECVEIVER_delivered/Libraries/XMCLib/inc\xmc_ccu4.h ****  *  Low pass filter Configuration. The External Event input should be stable for a selected number 
 371:C:/Workspaces/DAVE-4.4.2-64Bit/WIRELESS_CHARGER_RECVEIVER_delivered/Libraries/XMCLib/inc\xmc_ccu4.h ****  */ 
 372:C:/Workspaces/DAVE-4.4.2-64Bit/WIRELESS_CHARGER_RECVEIVER_delivered/Libraries/XMCLib/inc\xmc_ccu4.h **** typedef enum XMC_CCU4_SLICE_EVENT_FILTER
 373:C:/Workspaces/DAVE-4.4.2-64Bit/WIRELESS_CHARGER_RECVEIVER_delivered/Libraries/XMCLib/inc\xmc_ccu4.h **** {
 374:C:/Workspaces/DAVE-4.4.2-64Bit/WIRELESS_CHARGER_RECVEIVER_delivered/Libraries/XMCLib/inc\xmc_ccu4.h ****   XMC_CCU4_SLICE_EVENT_FILTER_DISABLED  = 0U, /**< No Low Pass Filter */
 375:C:/Workspaces/DAVE-4.4.2-64Bit/WIRELESS_CHARGER_RECVEIVER_delivered/Libraries/XMCLib/inc\xmc_ccu4.h ****   XMC_CCU4_SLICE_EVENT_FILTER_3_CYCLES      , /**< 3 clock cycles */
 376:C:/Workspaces/DAVE-4.4.2-64Bit/WIRELESS_CHARGER_RECVEIVER_delivered/Libraries/XMCLib/inc\xmc_ccu4.h ****   XMC_CCU4_SLICE_EVENT_FILTER_5_CYCLES      , /**< 5 clock cycles */
 377:C:/Workspaces/DAVE-4.4.2-64Bit/WIRELESS_CHARGER_RECVEIVER_delivered/Libraries/XMCLib/inc\xmc_ccu4.h ****   XMC_CCU4_SLICE_EVENT_FILTER_7_CYCLES        /**< 7 clock cycles */
 378:C:/Workspaces/DAVE-4.4.2-64Bit/WIRELESS_CHARGER_RECVEIVER_delivered/Libraries/XMCLib/inc\xmc_ccu4.h **** } XMC_CCU4_SLICE_EVENT_FILTER_t;
 379:C:/Workspaces/DAVE-4.4.2-64Bit/WIRELESS_CHARGER_RECVEIVER_delivered/Libraries/XMCLib/inc\xmc_ccu4.h **** 
 380:C:/Workspaces/DAVE-4.4.2-64Bit/WIRELESS_CHARGER_RECVEIVER_delivered/Libraries/XMCLib/inc\xmc_ccu4.h **** /**
 381:C:/Workspaces/DAVE-4.4.2-64Bit/WIRELESS_CHARGER_RECVEIVER_delivered/Libraries/XMCLib/inc\xmc_ccu4.h ****  *  External Event Input list. This list depicts the possible input connections to the CCU4 slice.
 382:C:/Workspaces/DAVE-4.4.2-64Bit/WIRELESS_CHARGER_RECVEIVER_delivered/Libraries/XMCLib/inc\xmc_ccu4.h ****  *  Interconnects are specific to each device.
 383:C:/Workspaces/DAVE-4.4.2-64Bit/WIRELESS_CHARGER_RECVEIVER_delivered/Libraries/XMCLib/inc\xmc_ccu4.h ****  */ 
 384:C:/Workspaces/DAVE-4.4.2-64Bit/WIRELESS_CHARGER_RECVEIVER_delivered/Libraries/XMCLib/inc\xmc_ccu4.h **** typedef uint8_t XMC_CCU4_SLICE_INPUT_t;
 385:C:/Workspaces/DAVE-4.4.2-64Bit/WIRELESS_CHARGER_RECVEIVER_delivered/Libraries/XMCLib/inc\xmc_ccu4.h **** 
 386:C:/Workspaces/DAVE-4.4.2-64Bit/WIRELESS_CHARGER_RECVEIVER_delivered/Libraries/XMCLib/inc\xmc_ccu4.h **** /**
 387:C:/Workspaces/DAVE-4.4.2-64Bit/WIRELESS_CHARGER_RECVEIVER_delivered/Libraries/XMCLib/inc\xmc_ccu4.h ****  * Actions that can be performed upon detection of an external Timer STOP event
 388:C:/Workspaces/DAVE-4.4.2-64Bit/WIRELESS_CHARGER_RECVEIVER_delivered/Libraries/XMCLib/inc\xmc_ccu4.h ****  */ 
 389:C:/Workspaces/DAVE-4.4.2-64Bit/WIRELESS_CHARGER_RECVEIVER_delivered/Libraries/XMCLib/inc\xmc_ccu4.h **** typedef enum XMC_CCU4_SLICE_END_MODE
 390:C:/Workspaces/DAVE-4.4.2-64Bit/WIRELESS_CHARGER_RECVEIVER_delivered/Libraries/XMCLib/inc\xmc_ccu4.h **** {
 391:C:/Workspaces/DAVE-4.4.2-64Bit/WIRELESS_CHARGER_RECVEIVER_delivered/Libraries/XMCLib/inc\xmc_ccu4.h ****   XMC_CCU4_SLICE_END_MODE_TIMER_STOP       = 0U, /**< Stops the timer, without clearing TIMER regis
 392:C:/Workspaces/DAVE-4.4.2-64Bit/WIRELESS_CHARGER_RECVEIVER_delivered/Libraries/XMCLib/inc\xmc_ccu4.h ****   XMC_CCU4_SLICE_END_MODE_TIMER_CLEAR          , /**< Without stopping timer, clears the TIMER regi
 393:C:/Workspaces/DAVE-4.4.2-64Bit/WIRELESS_CHARGER_RECVEIVER_delivered/Libraries/XMCLib/inc\xmc_ccu4.h ****   XMC_CCU4_SLICE_END_MODE_TIMER_STOP_CLEAR       /**< Stops the timer and clears the TIMER register
 394:C:/Workspaces/DAVE-4.4.2-64Bit/WIRELESS_CHARGER_RECVEIVER_delivered/Libraries/XMCLib/inc\xmc_ccu4.h **** } XMC_CCU4_SLICE_END_MODE_t;
 395:C:/Workspaces/DAVE-4.4.2-64Bit/WIRELESS_CHARGER_RECVEIVER_delivered/Libraries/XMCLib/inc\xmc_ccu4.h **** 
 396:C:/Workspaces/DAVE-4.4.2-64Bit/WIRELESS_CHARGER_RECVEIVER_delivered/Libraries/XMCLib/inc\xmc_ccu4.h **** /**
 397:C:/Workspaces/DAVE-4.4.2-64Bit/WIRELESS_CHARGER_RECVEIVER_delivered/Libraries/XMCLib/inc\xmc_ccu4.h ****  *  Actions that can be performed upon detection of an external Timer START event
 398:C:/Workspaces/DAVE-4.4.2-64Bit/WIRELESS_CHARGER_RECVEIVER_delivered/Libraries/XMCLib/inc\xmc_ccu4.h ****  */ 
 399:C:/Workspaces/DAVE-4.4.2-64Bit/WIRELESS_CHARGER_RECVEIVER_delivered/Libraries/XMCLib/inc\xmc_ccu4.h **** typedef enum XMC_CCU4_SLICE_START_MODE
 400:C:/Workspaces/DAVE-4.4.2-64Bit/WIRELESS_CHARGER_RECVEIVER_delivered/Libraries/XMCLib/inc\xmc_ccu4.h **** {
 401:C:/Workspaces/DAVE-4.4.2-64Bit/WIRELESS_CHARGER_RECVEIVER_delivered/Libraries/XMCLib/inc\xmc_ccu4.h ****   XMC_CCU4_SLICE_START_MODE_TIMER_START       = 0U, /**< Start the timer from the current count of 
 402:C:/Workspaces/DAVE-4.4.2-64Bit/WIRELESS_CHARGER_RECVEIVER_delivered/Libraries/XMCLib/inc\xmc_ccu4.h ****   XMC_CCU4_SLICE_START_MODE_TIMER_START_CLEAR       /**< Clears the TIMER register and start the ti
 403:C:/Workspaces/DAVE-4.4.2-64Bit/WIRELESS_CHARGER_RECVEIVER_delivered/Libraries/XMCLib/inc\xmc_ccu4.h **** } XMC_CCU4_SLICE_START_MODE_t;
 404:C:/Workspaces/DAVE-4.4.2-64Bit/WIRELESS_CHARGER_RECVEIVER_delivered/Libraries/XMCLib/inc\xmc_ccu4.h **** 
 405:C:/Workspaces/DAVE-4.4.2-64Bit/WIRELESS_CHARGER_RECVEIVER_delivered/Libraries/XMCLib/inc\xmc_ccu4.h **** /**
 406:C:/Workspaces/DAVE-4.4.2-64Bit/WIRELESS_CHARGER_RECVEIVER_delivered/Libraries/XMCLib/inc\xmc_ccu4.h ****  *  Modulation of timer output signals
 407:C:/Workspaces/DAVE-4.4.2-64Bit/WIRELESS_CHARGER_RECVEIVER_delivered/Libraries/XMCLib/inc\xmc_ccu4.h ****  */ 
 408:C:/Workspaces/DAVE-4.4.2-64Bit/WIRELESS_CHARGER_RECVEIVER_delivered/Libraries/XMCLib/inc\xmc_ccu4.h **** typedef enum XMC_CCU4_SLICE_MODULATION_MODE
 409:C:/Workspaces/DAVE-4.4.2-64Bit/WIRELESS_CHARGER_RECVEIVER_delivered/Libraries/XMCLib/inc\xmc_ccu4.h **** {
 410:C:/Workspaces/DAVE-4.4.2-64Bit/WIRELESS_CHARGER_RECVEIVER_delivered/Libraries/XMCLib/inc\xmc_ccu4.h ****   XMC_CCU4_SLICE_MODULATION_MODE_CLEAR_ST_OUT  = 0U, /**< Clear ST and OUT signals */
 411:C:/Workspaces/DAVE-4.4.2-64Bit/WIRELESS_CHARGER_RECVEIVER_delivered/Libraries/XMCLib/inc\xmc_ccu4.h ****   XMC_CCU4_SLICE_MODULATION_MODE_CLEAR_OUT           /**< Clear only the OUT signal */
 412:C:/Workspaces/DAVE-4.4.2-64Bit/WIRELESS_CHARGER_RECVEIVER_delivered/Libraries/XMCLib/inc\xmc_ccu4.h **** } XMC_CCU4_SLICE_MODULATION_MODE_t;
 413:C:/Workspaces/DAVE-4.4.2-64Bit/WIRELESS_CHARGER_RECVEIVER_delivered/Libraries/XMCLib/inc\xmc_ccu4.h **** 
 414:C:/Workspaces/DAVE-4.4.2-64Bit/WIRELESS_CHARGER_RECVEIVER_delivered/Libraries/XMCLib/inc\xmc_ccu4.h **** /**
 415:C:/Workspaces/DAVE-4.4.2-64Bit/WIRELESS_CHARGER_RECVEIVER_delivered/Libraries/XMCLib/inc\xmc_ccu4.h ****  *  Trap exit mode
 416:C:/Workspaces/DAVE-4.4.2-64Bit/WIRELESS_CHARGER_RECVEIVER_delivered/Libraries/XMCLib/inc\xmc_ccu4.h ****  */ 
 417:C:/Workspaces/DAVE-4.4.2-64Bit/WIRELESS_CHARGER_RECVEIVER_delivered/Libraries/XMCLib/inc\xmc_ccu4.h **** typedef enum XMC_CCU4_SLICE_TRAP_EXIT_MODE
 418:C:/Workspaces/DAVE-4.4.2-64Bit/WIRELESS_CHARGER_RECVEIVER_delivered/Libraries/XMCLib/inc\xmc_ccu4.h **** {
 419:C:/Workspaces/DAVE-4.4.2-64Bit/WIRELESS_CHARGER_RECVEIVER_delivered/Libraries/XMCLib/inc\xmc_ccu4.h ****   XMC_CCU4_SLICE_TRAP_EXIT_MODE_AUTOMATIC = 0U, /**< Clear trap state as soon as the trap signal is
 420:C:/Workspaces/DAVE-4.4.2-64Bit/WIRELESS_CHARGER_RECVEIVER_delivered/Libraries/XMCLib/inc\xmc_ccu4.h ****   XMC_CCU4_SLICE_TRAP_EXIT_MODE_SW              /**< Clear only when acknowledged by software */
 421:C:/Workspaces/DAVE-4.4.2-64Bit/WIRELESS_CHARGER_RECVEIVER_delivered/Libraries/XMCLib/inc\xmc_ccu4.h **** } XMC_CCU4_SLICE_TRAP_EXIT_MODE_t;
 422:C:/Workspaces/DAVE-4.4.2-64Bit/WIRELESS_CHARGER_RECVEIVER_delivered/Libraries/XMCLib/inc\xmc_ccu4.h **** 
 423:C:/Workspaces/DAVE-4.4.2-64Bit/WIRELESS_CHARGER_RECVEIVER_delivered/Libraries/XMCLib/inc\xmc_ccu4.h **** /**
 424:C:/Workspaces/DAVE-4.4.2-64Bit/WIRELESS_CHARGER_RECVEIVER_delivered/Libraries/XMCLib/inc\xmc_ccu4.h ****  *  Timer clear on capture
 425:C:/Workspaces/DAVE-4.4.2-64Bit/WIRELESS_CHARGER_RECVEIVER_delivered/Libraries/XMCLib/inc\xmc_ccu4.h ****  */ 
 426:C:/Workspaces/DAVE-4.4.2-64Bit/WIRELESS_CHARGER_RECVEIVER_delivered/Libraries/XMCLib/inc\xmc_ccu4.h **** typedef enum XMC_CCU4_SLICE_TIMER_CLEAR_MODE
 427:C:/Workspaces/DAVE-4.4.2-64Bit/WIRELESS_CHARGER_RECVEIVER_delivered/Libraries/XMCLib/inc\xmc_ccu4.h **** {
 428:C:/Workspaces/DAVE-4.4.2-64Bit/WIRELESS_CHARGER_RECVEIVER_delivered/Libraries/XMCLib/inc\xmc_ccu4.h ****   XMC_CCU4_SLICE_TIMER_CLEAR_MODE_NEVER    = 0U, /**< Never clear the timer on any capture event */
 429:C:/Workspaces/DAVE-4.4.2-64Bit/WIRELESS_CHARGER_RECVEIVER_delivered/Libraries/XMCLib/inc\xmc_ccu4.h ****   XMC_CCU4_SLICE_TIMER_CLEAR_MODE_CAP_HIGH     , /**< Clear only when timer value has been captured
 430:C:/Workspaces/DAVE-4.4.2-64Bit/WIRELESS_CHARGER_RECVEIVER_delivered/Libraries/XMCLib/inc\xmc_ccu4.h ****   XMC_CCU4_SLICE_TIMER_CLEAR_MODE_CAP_LOW      , /**< Clear only when timer value has been captured
 431:C:/Workspaces/DAVE-4.4.2-64Bit/WIRELESS_CHARGER_RECVEIVER_delivered/Libraries/XMCLib/inc\xmc_ccu4.h ****   XMC_CCU4_SLICE_TIMER_CLEAR_MODE_ALWAYS         /**< Always clear the timer upon detection of any 
 432:C:/Workspaces/DAVE-4.4.2-64Bit/WIRELESS_CHARGER_RECVEIVER_delivered/Libraries/XMCLib/inc\xmc_ccu4.h **** } XMC_CCU4_SLICE_TIMER_CLEAR_MODE_t;
 433:C:/Workspaces/DAVE-4.4.2-64Bit/WIRELESS_CHARGER_RECVEIVER_delivered/Libraries/XMCLib/inc\xmc_ccu4.h **** 
 434:C:/Workspaces/DAVE-4.4.2-64Bit/WIRELESS_CHARGER_RECVEIVER_delivered/Libraries/XMCLib/inc\xmc_ccu4.h **** /**
 435:C:/Workspaces/DAVE-4.4.2-64Bit/WIRELESS_CHARGER_RECVEIVER_delivered/Libraries/XMCLib/inc\xmc_ccu4.h ****  *  Multi Channel Shadow transfer request configuration options
 436:C:/Workspaces/DAVE-4.4.2-64Bit/WIRELESS_CHARGER_RECVEIVER_delivered/Libraries/XMCLib/inc\xmc_ccu4.h ****  */ 
 437:C:/Workspaces/DAVE-4.4.2-64Bit/WIRELESS_CHARGER_RECVEIVER_delivered/Libraries/XMCLib/inc\xmc_ccu4.h **** typedef enum XMC_CCU4_SLICE_MCMS_ACTION
 438:C:/Workspaces/DAVE-4.4.2-64Bit/WIRELESS_CHARGER_RECVEIVER_delivered/Libraries/XMCLib/inc\xmc_ccu4.h **** {
 439:C:/Workspaces/DAVE-4.4.2-64Bit/WIRELESS_CHARGER_RECVEIVER_delivered/Libraries/XMCLib/inc\xmc_ccu4.h ****   XMC_CCU4_SLICE_MCMS_ACTION_TRANSFER_PR_CR          = 0U, /**< Transfer Compare and Period Shadow 
 440:C:/Workspaces/DAVE-4.4.2-64Bit/WIRELESS_CHARGER_RECVEIVER_delivered/Libraries/XMCLib/inc\xmc_ccu4.h ****                                                                 the actual registers upon MCS xfer 
 441:C:/Workspaces/DAVE-4.4.2-64Bit/WIRELESS_CHARGER_RECVEIVER_delivered/Libraries/XMCLib/inc\xmc_ccu4.h ****   XMC_CCU4_SLICE_MCMS_ACTION_TRANSFER_PR_CR_PCMP     = 1U, /**< Transfer Compare, Period and Presca
 442:C:/Workspaces/DAVE-4.4.2-64Bit/WIRELESS_CHARGER_RECVEIVER_delivered/Libraries/XMCLib/inc\xmc_ccu4.h ****                                                                 register values to the actual regis
 443:C:/Workspaces/DAVE-4.4.2-64Bit/WIRELESS_CHARGER_RECVEIVER_delivered/Libraries/XMCLib/inc\xmc_ccu4.h ****                                                                 request */
 444:C:/Workspaces/DAVE-4.4.2-64Bit/WIRELESS_CHARGER_RECVEIVER_delivered/Libraries/XMCLib/inc\xmc_ccu4.h ****   XMC_CCU4_SLICE_MCMS_ACTION_TRANSFER_PR_CR_PCMP_DIT = 3U  /**< Transfer Compare, Period ,Prescaler
 445:C:/Workspaces/DAVE-4.4.2-64Bit/WIRELESS_CHARGER_RECVEIVER_delivered/Libraries/XMCLib/inc\xmc_ccu4.h ****                                                                 Compare register values to the actu
 446:C:/Workspaces/DAVE-4.4.2-64Bit/WIRELESS_CHARGER_RECVEIVER_delivered/Libraries/XMCLib/inc\xmc_ccu4.h ****                                                                 MCS xfer request */
 447:C:/Workspaces/DAVE-4.4.2-64Bit/WIRELESS_CHARGER_RECVEIVER_delivered/Libraries/XMCLib/inc\xmc_ccu4.h **** } XMC_CCU4_SLICE_MCMS_ACTION_t;
 448:C:/Workspaces/DAVE-4.4.2-64Bit/WIRELESS_CHARGER_RECVEIVER_delivered/Libraries/XMCLib/inc\xmc_ccu4.h **** 
 449:C:/Workspaces/DAVE-4.4.2-64Bit/WIRELESS_CHARGER_RECVEIVER_delivered/Libraries/XMCLib/inc\xmc_ccu4.h **** /**
 450:C:/Workspaces/DAVE-4.4.2-64Bit/WIRELESS_CHARGER_RECVEIVER_delivered/Libraries/XMCLib/inc\xmc_ccu4.h ****  * Available Interrupt Event Ids
 451:C:/Workspaces/DAVE-4.4.2-64Bit/WIRELESS_CHARGER_RECVEIVER_delivered/Libraries/XMCLib/inc\xmc_ccu4.h ****  */ 
 452:C:/Workspaces/DAVE-4.4.2-64Bit/WIRELESS_CHARGER_RECVEIVER_delivered/Libraries/XMCLib/inc\xmc_ccu4.h **** typedef enum XMC_CCU4_SLICE_IRQ_ID
 453:C:/Workspaces/DAVE-4.4.2-64Bit/WIRELESS_CHARGER_RECVEIVER_delivered/Libraries/XMCLib/inc\xmc_ccu4.h **** {
 454:C:/Workspaces/DAVE-4.4.2-64Bit/WIRELESS_CHARGER_RECVEIVER_delivered/Libraries/XMCLib/inc\xmc_ccu4.h ****   XMC_CCU4_SLICE_IRQ_ID_PERIOD_MATCH       = 0U , /**< Period match counting up */
 455:C:/Workspaces/DAVE-4.4.2-64Bit/WIRELESS_CHARGER_RECVEIVER_delivered/Libraries/XMCLib/inc\xmc_ccu4.h ****   XMC_CCU4_SLICE_IRQ_ID_ONE_MATCH          = 1U , /**< Period match -> One match counting down */
 456:C:/Workspaces/DAVE-4.4.2-64Bit/WIRELESS_CHARGER_RECVEIVER_delivered/Libraries/XMCLib/inc\xmc_ccu4.h ****   XMC_CCU4_SLICE_IRQ_ID_COMPARE_MATCH_UP   = 2U , /**< Compare match counting up */
 457:C:/Workspaces/DAVE-4.4.2-64Bit/WIRELESS_CHARGER_RECVEIVER_delivered/Libraries/XMCLib/inc\xmc_ccu4.h ****   XMC_CCU4_SLICE_IRQ_ID_COMPARE_MATCH_DOWN = 3U , /**< Compare match counting down */
 458:C:/Workspaces/DAVE-4.4.2-64Bit/WIRELESS_CHARGER_RECVEIVER_delivered/Libraries/XMCLib/inc\xmc_ccu4.h ****   XMC_CCU4_SLICE_IRQ_ID_EVENT0             = 8U , /**< Event-0 occurrence */
 459:C:/Workspaces/DAVE-4.4.2-64Bit/WIRELESS_CHARGER_RECVEIVER_delivered/Libraries/XMCLib/inc\xmc_ccu4.h ****   XMC_CCU4_SLICE_IRQ_ID_EVENT1             = 9U , /**< Event-1 occurrence */
 460:C:/Workspaces/DAVE-4.4.2-64Bit/WIRELESS_CHARGER_RECVEIVER_delivered/Libraries/XMCLib/inc\xmc_ccu4.h ****   XMC_CCU4_SLICE_IRQ_ID_EVENT2             = 10U, /**< Event-2 occurrence */
 461:C:/Workspaces/DAVE-4.4.2-64Bit/WIRELESS_CHARGER_RECVEIVER_delivered/Libraries/XMCLib/inc\xmc_ccu4.h ****   XMC_CCU4_SLICE_IRQ_ID_TRAP               = 11U  /**< Trap occurrence */
 462:C:/Workspaces/DAVE-4.4.2-64Bit/WIRELESS_CHARGER_RECVEIVER_delivered/Libraries/XMCLib/inc\xmc_ccu4.h **** } XMC_CCU4_SLICE_IRQ_ID_t;
 463:C:/Workspaces/DAVE-4.4.2-64Bit/WIRELESS_CHARGER_RECVEIVER_delivered/Libraries/XMCLib/inc\xmc_ccu4.h **** 
 464:C:/Workspaces/DAVE-4.4.2-64Bit/WIRELESS_CHARGER_RECVEIVER_delivered/Libraries/XMCLib/inc\xmc_ccu4.h **** /**
 465:C:/Workspaces/DAVE-4.4.2-64Bit/WIRELESS_CHARGER_RECVEIVER_delivered/Libraries/XMCLib/inc\xmc_ccu4.h ****  * Available Interrupt Event Ids, which is added to support multi event APIs
 466:C:/Workspaces/DAVE-4.4.2-64Bit/WIRELESS_CHARGER_RECVEIVER_delivered/Libraries/XMCLib/inc\xmc_ccu4.h ****  */
 467:C:/Workspaces/DAVE-4.4.2-64Bit/WIRELESS_CHARGER_RECVEIVER_delivered/Libraries/XMCLib/inc\xmc_ccu4.h **** typedef enum XMC_CCU4_SLICE_MULTI_IRQ_ID
 468:C:/Workspaces/DAVE-4.4.2-64Bit/WIRELESS_CHARGER_RECVEIVER_delivered/Libraries/XMCLib/inc\xmc_ccu4.h **** {
 469:C:/Workspaces/DAVE-4.4.2-64Bit/WIRELESS_CHARGER_RECVEIVER_delivered/Libraries/XMCLib/inc\xmc_ccu4.h ****   XMC_CCU4_SLICE_MULTI_IRQ_ID_PERIOD_MATCH       = 0x1U,   /**< Period match counting up */
 470:C:/Workspaces/DAVE-4.4.2-64Bit/WIRELESS_CHARGER_RECVEIVER_delivered/Libraries/XMCLib/inc\xmc_ccu4.h ****   XMC_CCU4_SLICE_MULTI_IRQ_ID_ONE_MATCH          = 0x2U,   /**< Period match -> One match counting 
 471:C:/Workspaces/DAVE-4.4.2-64Bit/WIRELESS_CHARGER_RECVEIVER_delivered/Libraries/XMCLib/inc\xmc_ccu4.h ****   XMC_CCU4_SLICE_MULTI_IRQ_ID_COMPARE_MATCH_UP   = 0x4U,   /**< Compare match counting up */
 472:C:/Workspaces/DAVE-4.4.2-64Bit/WIRELESS_CHARGER_RECVEIVER_delivered/Libraries/XMCLib/inc\xmc_ccu4.h ****   XMC_CCU4_SLICE_MULTI_IRQ_ID_COMPARE_MATCH_DOWN = 0x8U,   /**< Compare match counting down */
 473:C:/Workspaces/DAVE-4.4.2-64Bit/WIRELESS_CHARGER_RECVEIVER_delivered/Libraries/XMCLib/inc\xmc_ccu4.h ****   XMC_CCU4_SLICE_MULTI_IRQ_ID_EVENT0             = 0x100U, /**< Event-0 occurrence */
 474:C:/Workspaces/DAVE-4.4.2-64Bit/WIRELESS_CHARGER_RECVEIVER_delivered/Libraries/XMCLib/inc\xmc_ccu4.h ****   XMC_CCU4_SLICE_MULTI_IRQ_ID_EVENT1             = 0x200U, /**< Event-1 occurrence */
 475:C:/Workspaces/DAVE-4.4.2-64Bit/WIRELESS_CHARGER_RECVEIVER_delivered/Libraries/XMCLib/inc\xmc_ccu4.h ****   XMC_CCU4_SLICE_MULTI_IRQ_ID_EVENT2             = 0x400U, /**< Event-2 occurrence */
 476:C:/Workspaces/DAVE-4.4.2-64Bit/WIRELESS_CHARGER_RECVEIVER_delivered/Libraries/XMCLib/inc\xmc_ccu4.h **** } XMC_CCU4_SLICE_MULTI_IRQ_ID_t;
 477:C:/Workspaces/DAVE-4.4.2-64Bit/WIRELESS_CHARGER_RECVEIVER_delivered/Libraries/XMCLib/inc\xmc_ccu4.h **** 
 478:C:/Workspaces/DAVE-4.4.2-64Bit/WIRELESS_CHARGER_RECVEIVER_delivered/Libraries/XMCLib/inc\xmc_ccu4.h **** /**
 479:C:/Workspaces/DAVE-4.4.2-64Bit/WIRELESS_CHARGER_RECVEIVER_delivered/Libraries/XMCLib/inc\xmc_ccu4.h ****  * Service Request Lines for CCU4. Event are mapped to these SR lines and these are used to generat
 480:C:/Workspaces/DAVE-4.4.2-64Bit/WIRELESS_CHARGER_RECVEIVER_delivered/Libraries/XMCLib/inc\xmc_ccu4.h ****  */ 
 481:C:/Workspaces/DAVE-4.4.2-64Bit/WIRELESS_CHARGER_RECVEIVER_delivered/Libraries/XMCLib/inc\xmc_ccu4.h **** typedef enum XMC_CCU4_SLICE_SR_ID
 482:C:/Workspaces/DAVE-4.4.2-64Bit/WIRELESS_CHARGER_RECVEIVER_delivered/Libraries/XMCLib/inc\xmc_ccu4.h **** {
 483:C:/Workspaces/DAVE-4.4.2-64Bit/WIRELESS_CHARGER_RECVEIVER_delivered/Libraries/XMCLib/inc\xmc_ccu4.h ****   XMC_CCU4_SLICE_SR_ID_0    = 0U, /**< Service Request Line-0 selected  */
 484:C:/Workspaces/DAVE-4.4.2-64Bit/WIRELESS_CHARGER_RECVEIVER_delivered/Libraries/XMCLib/inc\xmc_ccu4.h ****   XMC_CCU4_SLICE_SR_ID_1        , /**< Service Request Line-1 selected  */
 485:C:/Workspaces/DAVE-4.4.2-64Bit/WIRELESS_CHARGER_RECVEIVER_delivered/Libraries/XMCLib/inc\xmc_ccu4.h ****   XMC_CCU4_SLICE_SR_ID_2        , /**< Service Request Line-2 selected  */
 486:C:/Workspaces/DAVE-4.4.2-64Bit/WIRELESS_CHARGER_RECVEIVER_delivered/Libraries/XMCLib/inc\xmc_ccu4.h ****   XMC_CCU4_SLICE_SR_ID_3          /**< Service Request Line-3 selected  */
 487:C:/Workspaces/DAVE-4.4.2-64Bit/WIRELESS_CHARGER_RECVEIVER_delivered/Libraries/XMCLib/inc\xmc_ccu4.h **** } XMC_CCU4_SLICE_SR_ID_t;
 488:C:/Workspaces/DAVE-4.4.2-64Bit/WIRELESS_CHARGER_RECVEIVER_delivered/Libraries/XMCLib/inc\xmc_ccu4.h **** 
 489:C:/Workspaces/DAVE-4.4.2-64Bit/WIRELESS_CHARGER_RECVEIVER_delivered/Libraries/XMCLib/inc\xmc_ccu4.h **** /**
 490:C:/Workspaces/DAVE-4.4.2-64Bit/WIRELESS_CHARGER_RECVEIVER_delivered/Libraries/XMCLib/inc\xmc_ccu4.h ****  *  Slice shadow transfer options.
 491:C:/Workspaces/DAVE-4.4.2-64Bit/WIRELESS_CHARGER_RECVEIVER_delivered/Libraries/XMCLib/inc\xmc_ccu4.h ****  */
 492:C:/Workspaces/DAVE-4.4.2-64Bit/WIRELESS_CHARGER_RECVEIVER_delivered/Libraries/XMCLib/inc\xmc_ccu4.h **** typedef enum XMC_CCU4_SHADOW_TRANSFER
 493:C:/Workspaces/DAVE-4.4.2-64Bit/WIRELESS_CHARGER_RECVEIVER_delivered/Libraries/XMCLib/inc\xmc_ccu4.h **** {
 494:C:/Workspaces/DAVE-4.4.2-64Bit/WIRELESS_CHARGER_RECVEIVER_delivered/Libraries/XMCLib/inc\xmc_ccu4.h ****   XMC_CCU4_SHADOW_TRANSFER_SLICE_0            = CCU4_GCSS_S0SE_Msk, /**< Transfer Period, Compare a
 495:C:/Workspaces/DAVE-4.4.2-64Bit/WIRELESS_CHARGER_RECVEIVER_delivered/Libraries/XMCLib/inc\xmc_ccu4.h ****                                                                           shadow register values to
 496:C:/Workspaces/DAVE-4.4.2-64Bit/WIRELESS_CHARGER_RECVEIVER_delivered/Libraries/XMCLib/inc\xmc_ccu4.h ****                                                                           SLICE-0 */
 497:C:/Workspaces/DAVE-4.4.2-64Bit/WIRELESS_CHARGER_RECVEIVER_delivered/Libraries/XMCLib/inc\xmc_ccu4.h ****   XMC_CCU4_SHADOW_TRANSFER_DITHER_SLICE_0     = CCU4_GCSS_S0DSE_Msk, /**< Transfer Dither compare s
 498:C:/Workspaces/DAVE-4.4.2-64Bit/WIRELESS_CHARGER_RECVEIVER_delivered/Libraries/XMCLib/inc\xmc_ccu4.h ****                                                                           to actual register for SL
 499:C:/Workspaces/DAVE-4.4.2-64Bit/WIRELESS_CHARGER_RECVEIVER_delivered/Libraries/XMCLib/inc\xmc_ccu4.h ****   XMC_CCU4_SHADOW_TRANSFER_PRESCALER_SLICE_0  = CCU4_GCSS_S0PSE_Msk, /**< Transfer Prescaler shadow
 500:C:/Workspaces/DAVE-4.4.2-64Bit/WIRELESS_CHARGER_RECVEIVER_delivered/Libraries/XMCLib/inc\xmc_ccu4.h ****                                                                           actual register for SLICE
 501:C:/Workspaces/DAVE-4.4.2-64Bit/WIRELESS_CHARGER_RECVEIVER_delivered/Libraries/XMCLib/inc\xmc_ccu4.h ****   XMC_CCU4_SHADOW_TRANSFER_SLICE_1            = CCU4_GCSS_S1SE_Msk, /**< Transfer Period, Compare a
 502:C:/Workspaces/DAVE-4.4.2-64Bit/WIRELESS_CHARGER_RECVEIVER_delivered/Libraries/XMCLib/inc\xmc_ccu4.h ****                                                                           shadow register values to
 503:C:/Workspaces/DAVE-4.4.2-64Bit/WIRELESS_CHARGER_RECVEIVER_delivered/Libraries/XMCLib/inc\xmc_ccu4.h ****                                                                           SLICE-1 */
 504:C:/Workspaces/DAVE-4.4.2-64Bit/WIRELESS_CHARGER_RECVEIVER_delivered/Libraries/XMCLib/inc\xmc_ccu4.h ****   XMC_CCU4_SHADOW_TRANSFER_DITHER_SLICE_1     = CCU4_GCSS_S1DSE_Msk, /**< Transfer Dither compare s
 505:C:/Workspaces/DAVE-4.4.2-64Bit/WIRELESS_CHARGER_RECVEIVER_delivered/Libraries/XMCLib/inc\xmc_ccu4.h ****                                                                           to actual registers for S
 506:C:/Workspaces/DAVE-4.4.2-64Bit/WIRELESS_CHARGER_RECVEIVER_delivered/Libraries/XMCLib/inc\xmc_ccu4.h ****   XMC_CCU4_SHADOW_TRANSFER_PRESCALER_SLICE_1  = CCU4_GCSS_S1PSE_Msk, /**< Transfer Prescaler shadow
 507:C:/Workspaces/DAVE-4.4.2-64Bit/WIRELESS_CHARGER_RECVEIVER_delivered/Libraries/XMCLib/inc\xmc_ccu4.h ****                                                                           actual register for SLICE
 508:C:/Workspaces/DAVE-4.4.2-64Bit/WIRELESS_CHARGER_RECVEIVER_delivered/Libraries/XMCLib/inc\xmc_ccu4.h ****   XMC_CCU4_SHADOW_TRANSFER_SLICE_2            = CCU4_GCSS_S2SE_Msk, /**< Transfer Period, Compare a
 509:C:/Workspaces/DAVE-4.4.2-64Bit/WIRELESS_CHARGER_RECVEIVER_delivered/Libraries/XMCLib/inc\xmc_ccu4.h ****                                                                           shadow register values to
 510:C:/Workspaces/DAVE-4.4.2-64Bit/WIRELESS_CHARGER_RECVEIVER_delivered/Libraries/XMCLib/inc\xmc_ccu4.h ****                                                                           SLICE-2 */
 511:C:/Workspaces/DAVE-4.4.2-64Bit/WIRELESS_CHARGER_RECVEIVER_delivered/Libraries/XMCLib/inc\xmc_ccu4.h ****   XMC_CCU4_SHADOW_TRANSFER_DITHER_SLICE_2     = CCU4_GCSS_S2DSE_Msk, /**< Transfer Dither compare s
 512:C:/Workspaces/DAVE-4.4.2-64Bit/WIRELESS_CHARGER_RECVEIVER_delivered/Libraries/XMCLib/inc\xmc_ccu4.h ****                                                                           to actual register for SL
 513:C:/Workspaces/DAVE-4.4.2-64Bit/WIRELESS_CHARGER_RECVEIVER_delivered/Libraries/XMCLib/inc\xmc_ccu4.h ****   XMC_CCU4_SHADOW_TRANSFER_PRESCALER_SLICE_2  = CCU4_GCSS_S2PSE_Msk, /**< Transfer Prescaler shadow
 514:C:/Workspaces/DAVE-4.4.2-64Bit/WIRELESS_CHARGER_RECVEIVER_delivered/Libraries/XMCLib/inc\xmc_ccu4.h ****                                                                           actual register for SLICE
 515:C:/Workspaces/DAVE-4.4.2-64Bit/WIRELESS_CHARGER_RECVEIVER_delivered/Libraries/XMCLib/inc\xmc_ccu4.h ****   XMC_CCU4_SHADOW_TRANSFER_SLICE_3            = CCU4_GCSS_S3SE_Msk, /**< Transfer Period, Compare a
 516:C:/Workspaces/DAVE-4.4.2-64Bit/WIRELESS_CHARGER_RECVEIVER_delivered/Libraries/XMCLib/inc\xmc_ccu4.h ****                                                                           shadow register values to
 517:C:/Workspaces/DAVE-4.4.2-64Bit/WIRELESS_CHARGER_RECVEIVER_delivered/Libraries/XMCLib/inc\xmc_ccu4.h ****                                                                           SLICE-3 */
 518:C:/Workspaces/DAVE-4.4.2-64Bit/WIRELESS_CHARGER_RECVEIVER_delivered/Libraries/XMCLib/inc\xmc_ccu4.h ****   XMC_CCU4_SHADOW_TRANSFER_DITHER_SLICE_3     = CCU4_GCSS_S3DSE_Msk, /**< Transfer Dither compare s
 519:C:/Workspaces/DAVE-4.4.2-64Bit/WIRELESS_CHARGER_RECVEIVER_delivered/Libraries/XMCLib/inc\xmc_ccu4.h ****                                                                           to actual register for SL
 520:C:/Workspaces/DAVE-4.4.2-64Bit/WIRELESS_CHARGER_RECVEIVER_delivered/Libraries/XMCLib/inc\xmc_ccu4.h ****   XMC_CCU4_SHADOW_TRANSFER_PRESCALER_SLICE_3  = CCU4_GCSS_S3PSE_Msk  /**< Transfer Prescaler shadow
 521:C:/Workspaces/DAVE-4.4.2-64Bit/WIRELESS_CHARGER_RECVEIVER_delivered/Libraries/XMCLib/inc\xmc_ccu4.h ****                                                                           actual register for SLICE
 522:C:/Workspaces/DAVE-4.4.2-64Bit/WIRELESS_CHARGER_RECVEIVER_delivered/Libraries/XMCLib/inc\xmc_ccu4.h **** } XMC_CCU4_SHADOW_TRANSFER_t;
 523:C:/Workspaces/DAVE-4.4.2-64Bit/WIRELESS_CHARGER_RECVEIVER_delivered/Libraries/XMCLib/inc\xmc_ccu4.h **** 
 524:C:/Workspaces/DAVE-4.4.2-64Bit/WIRELESS_CHARGER_RECVEIVER_delivered/Libraries/XMCLib/inc\xmc_ccu4.h **** #if defined(CCU4V3) || defined(DOXYGEN)/* Defined for XMC1400 devices only */
 525:C:/Workspaces/DAVE-4.4.2-64Bit/WIRELESS_CHARGER_RECVEIVER_delivered/Libraries/XMCLib/inc\xmc_ccu4.h **** /**
 526:C:/Workspaces/DAVE-4.4.2-64Bit/WIRELESS_CHARGER_RECVEIVER_delivered/Libraries/XMCLib/inc\xmc_ccu4.h ****  *  Slice shadow transfer mode options.
 527:C:/Workspaces/DAVE-4.4.2-64Bit/WIRELESS_CHARGER_RECVEIVER_delivered/Libraries/XMCLib/inc\xmc_ccu4.h ****  * @note Only available for XMC1400 series
 528:C:/Workspaces/DAVE-4.4.2-64Bit/WIRELESS_CHARGER_RECVEIVER_delivered/Libraries/XMCLib/inc\xmc_ccu4.h ****  */
 529:C:/Workspaces/DAVE-4.4.2-64Bit/WIRELESS_CHARGER_RECVEIVER_delivered/Libraries/XMCLib/inc\xmc_ccu4.h **** typedef enum XMC_CCU4_SLICE_SHADOW_TRANSFER_MODE
 530:C:/Workspaces/DAVE-4.4.2-64Bit/WIRELESS_CHARGER_RECVEIVER_delivered/Libraries/XMCLib/inc\xmc_ccu4.h **** {
 531:C:/Workspaces/DAVE-4.4.2-64Bit/WIRELESS_CHARGER_RECVEIVER_delivered/Libraries/XMCLib/inc\xmc_ccu4.h ****   XMC_CCU4_SLICE_SHADOW_TRANSFER_MODE_IN_PERIOD_MATCH_AND_ONE_MATCH = 0U,  /**< Shadow transfer is 
 532:C:/Workspaces/DAVE-4.4.2-64Bit/WIRELESS_CHARGER_RECVEIVER_delivered/Libraries/XMCLib/inc\xmc_ccu4.h ****                                                                                 One match. */
 533:C:/Workspaces/DAVE-4.4.2-64Bit/WIRELESS_CHARGER_RECVEIVER_delivered/Libraries/XMCLib/inc\xmc_ccu4.h ****   XMC_CCU4_SLICE_SHADOW_TRANSFER_MODE_ONLY_IN_PERIOD_MATCH = 1U,  /**< Shadow transfer is done only
 534:C:/Workspaces/DAVE-4.4.2-64Bit/WIRELESS_CHARGER_RECVEIVER_delivered/Libraries/XMCLib/inc\xmc_ccu4.h ****   XMC_CCU4_SLICE_SHADOW_TRANSFER_MODE_ONLY_IN_ONE_MATCH = 2U  /**< Shadow transfer is done only in 
 535:C:/Workspaces/DAVE-4.4.2-64Bit/WIRELESS_CHARGER_RECVEIVER_delivered/Libraries/XMCLib/inc\xmc_ccu4.h **** } XMC_CCU4_SLICE_SHADOW_TRANSFER_MODE_t; 
 536:C:/Workspaces/DAVE-4.4.2-64Bit/WIRELESS_CHARGER_RECVEIVER_delivered/Libraries/XMCLib/inc\xmc_ccu4.h ****   
 537:C:/Workspaces/DAVE-4.4.2-64Bit/WIRELESS_CHARGER_RECVEIVER_delivered/Libraries/XMCLib/inc\xmc_ccu4.h ****   
 538:C:/Workspaces/DAVE-4.4.2-64Bit/WIRELESS_CHARGER_RECVEIVER_delivered/Libraries/XMCLib/inc\xmc_ccu4.h **** /**
 539:C:/Workspaces/DAVE-4.4.2-64Bit/WIRELESS_CHARGER_RECVEIVER_delivered/Libraries/XMCLib/inc\xmc_ccu4.h ****  *  Immediate write into configuration register
 540:C:/Workspaces/DAVE-4.4.2-64Bit/WIRELESS_CHARGER_RECVEIVER_delivered/Libraries/XMCLib/inc\xmc_ccu4.h ****  *  @note Only available for XMC1400 series
 541:C:/Workspaces/DAVE-4.4.2-64Bit/WIRELESS_CHARGER_RECVEIVER_delivered/Libraries/XMCLib/inc\xmc_ccu4.h ****  */
 542:C:/Workspaces/DAVE-4.4.2-64Bit/WIRELESS_CHARGER_RECVEIVER_delivered/Libraries/XMCLib/inc\xmc_ccu4.h **** typedef enum XMC_CCU4_SLICE_WRITE_INTO
 543:C:/Workspaces/DAVE-4.4.2-64Bit/WIRELESS_CHARGER_RECVEIVER_delivered/Libraries/XMCLib/inc\xmc_ccu4.h **** {
 544:C:/Workspaces/DAVE-4.4.2-64Bit/WIRELESS_CHARGER_RECVEIVER_delivered/Libraries/XMCLib/inc\xmc_ccu4.h ****   XMC_CCU4_SLICE_WRITE_INTO_PERIOD_CONFIGURATION = CCU4_CC4_STC_IRPC_Msk,                  /**< Imm
 545:C:/Workspaces/DAVE-4.4.2-64Bit/WIRELESS_CHARGER_RECVEIVER_delivered/Libraries/XMCLib/inc\xmc_ccu4.h ****                                                                                                 Wri
 546:C:/Workspaces/DAVE-4.4.2-64Bit/WIRELESS_CHARGER_RECVEIVER_delivered/Libraries/XMCLib/inc\xmc_ccu4.h ****                                                                                                 Con
 547:C:/Workspaces/DAVE-4.4.2-64Bit/WIRELESS_CHARGER_RECVEIVER_delivered/Libraries/XMCLib/inc\xmc_ccu4.h ****   XMC_CCU4_SLICE_WRITE_INTO_COMPARE_CONFIGURATION = CCU4_CC4_STC_IRCC_Msk,                 /**< Imm
 548:C:/Workspaces/DAVE-4.4.2-64Bit/WIRELESS_CHARGER_RECVEIVER_delivered/Libraries/XMCLib/inc\xmc_ccu4.h ****                                                                                                 Wri
 549:C:/Workspaces/DAVE-4.4.2-64Bit/WIRELESS_CHARGER_RECVEIVER_delivered/Libraries/XMCLib/inc\xmc_ccu4.h ****                                                                                                 Con
 550:C:/Workspaces/DAVE-4.4.2-64Bit/WIRELESS_CHARGER_RECVEIVER_delivered/Libraries/XMCLib/inc\xmc_ccu4.h ****   XMC_CCU4_SLICE_WRITE_INTO_PASSIVE_LEVEL_CONFIGURATION = CCU4_CC4_STC_IRLC_Msk,           /**< Imm
 551:C:/Workspaces/DAVE-4.4.2-64Bit/WIRELESS_CHARGER_RECVEIVER_delivered/Libraries/XMCLib/inc\xmc_ccu4.h ****                                                                                                 Wri
 552:C:/Workspaces/DAVE-4.4.2-64Bit/WIRELESS_CHARGER_RECVEIVER_delivered/Libraries/XMCLib/inc\xmc_ccu4.h **** 	                                                                                            Config
 553:C:/Workspaces/DAVE-4.4.2-64Bit/WIRELESS_CHARGER_RECVEIVER_delivered/Libraries/XMCLib/inc\xmc_ccu4.h ****   XMC_CCU4_SLICE_WRITE_INTO_DITHER_VALUE_CONFIGURATION = CCU4_CC4_STC_IRDC_Msk,            /**< Imm
 554:C:/Workspaces/DAVE-4.4.2-64Bit/WIRELESS_CHARGER_RECVEIVER_delivered/Libraries/XMCLib/inc\xmc_ccu4.h ****                                                                                                 Wri
 555:C:/Workspaces/DAVE-4.4.2-64Bit/WIRELESS_CHARGER_RECVEIVER_delivered/Libraries/XMCLib/inc\xmc_ccu4.h **** 	                                                                                            Config
 556:C:/Workspaces/DAVE-4.4.2-64Bit/WIRELESS_CHARGER_RECVEIVER_delivered/Libraries/XMCLib/inc\xmc_ccu4.h ****   XMC_CCU4_SLICE_WRITE_INTO_FLOATING_PRESCALER_VALUE_CONFIGURATION = CCU4_CC4_STC_IRFC_Msk /**< Imm
 557:C:/Workspaces/DAVE-4.4.2-64Bit/WIRELESS_CHARGER_RECVEIVER_delivered/Libraries/XMCLib/inc\xmc_ccu4.h ****                                                                                                 Wri
 558:C:/Workspaces/DAVE-4.4.2-64Bit/WIRELESS_CHARGER_RECVEIVER_delivered/Libraries/XMCLib/inc\xmc_ccu4.h ****                                                                                                 Val
 559:C:/Workspaces/DAVE-4.4.2-64Bit/WIRELESS_CHARGER_RECVEIVER_delivered/Libraries/XMCLib/inc\xmc_ccu4.h **** } XMC_CCU4_SLICE_WRITE_INTO_t;
 560:C:/Workspaces/DAVE-4.4.2-64Bit/WIRELESS_CHARGER_RECVEIVER_delivered/Libraries/XMCLib/inc\xmc_ccu4.h **** 
 561:C:/Workspaces/DAVE-4.4.2-64Bit/WIRELESS_CHARGER_RECVEIVER_delivered/Libraries/XMCLib/inc\xmc_ccu4.h **** 
 562:C:/Workspaces/DAVE-4.4.2-64Bit/WIRELESS_CHARGER_RECVEIVER_delivered/Libraries/XMCLib/inc\xmc_ccu4.h **** /**
 563:C:/Workspaces/DAVE-4.4.2-64Bit/WIRELESS_CHARGER_RECVEIVER_delivered/Libraries/XMCLib/inc\xmc_ccu4.h ****  *  Automatic Shadow Transfer request when writing into shadow register
 564:C:/Workspaces/DAVE-4.4.2-64Bit/WIRELESS_CHARGER_RECVEIVER_delivered/Libraries/XMCLib/inc\xmc_ccu4.h ****  *  @note Only available for XMC1400 series
 565:C:/Workspaces/DAVE-4.4.2-64Bit/WIRELESS_CHARGER_RECVEIVER_delivered/Libraries/XMCLib/inc\xmc_ccu4.h ****  */
 566:C:/Workspaces/DAVE-4.4.2-64Bit/WIRELESS_CHARGER_RECVEIVER_delivered/Libraries/XMCLib/inc\xmc_ccu4.h **** typedef enum XMC_CCU4_SLICE_AUTOMAIC_SHADOW_TRANSFER_WRITE_INTO
 567:C:/Workspaces/DAVE-4.4.2-64Bit/WIRELESS_CHARGER_RECVEIVER_delivered/Libraries/XMCLib/inc\xmc_ccu4.h **** {
 568:C:/Workspaces/DAVE-4.4.2-64Bit/WIRELESS_CHARGER_RECVEIVER_delivered/Libraries/XMCLib/inc\xmc_ccu4.h ****   XMC_CCU4_SLICE_AUTOMAIC_SHADOW_TRANSFER_WRITE_INTO_PERIOD_SHADOW = CCU4_CC4_STC_ASPC_Msk,        
 569:C:/Workspaces/DAVE-4.4.2-64Bit/WIRELESS_CHARGER_RECVEIVER_delivered/Libraries/XMCLib/inc\xmc_ccu4.h **** 	                                                                                                  
 570:C:/Workspaces/DAVE-4.4.2-64Bit/WIRELESS_CHARGER_RECVEIVER_delivered/Libraries/XMCLib/inc\xmc_ccu4.h ****                                                                                                    
 571:C:/Workspaces/DAVE-4.4.2-64Bit/WIRELESS_CHARGER_RECVEIVER_delivered/Libraries/XMCLib/inc\xmc_ccu4.h ****                                                                                                    
 572:C:/Workspaces/DAVE-4.4.2-64Bit/WIRELESS_CHARGER_RECVEIVER_delivered/Libraries/XMCLib/inc\xmc_ccu4.h ****   XMC_CCU4_SLICE_AUTOMAIC_SHADOW_TRANSFER_WRITE_INTO_COMPARE_SHADOW = CCU4_CC4_STC_ASCC_Msk,       
 573:C:/Workspaces/DAVE-4.4.2-64Bit/WIRELESS_CHARGER_RECVEIVER_delivered/Libraries/XMCLib/inc\xmc_ccu4.h **** 	                                                                                                  
 574:C:/Workspaces/DAVE-4.4.2-64Bit/WIRELESS_CHARGER_RECVEIVER_delivered/Libraries/XMCLib/inc\xmc_ccu4.h **** 	                                                                                                  
 575:C:/Workspaces/DAVE-4.4.2-64Bit/WIRELESS_CHARGER_RECVEIVER_delivered/Libraries/XMCLib/inc\xmc_ccu4.h **** 	                                                                                                  
 576:C:/Workspaces/DAVE-4.4.2-64Bit/WIRELESS_CHARGER_RECVEIVER_delivered/Libraries/XMCLib/inc\xmc_ccu4.h ****   XMC_CCU4_SLICE_AUTOMAIC_SHADOW_TRANSFER_WRITE_INTO_PASSIVE_LEVEL = CCU4_CC4_STC_ASLC_Msk,        
 577:C:/Workspaces/DAVE-4.4.2-64Bit/WIRELESS_CHARGER_RECVEIVER_delivered/Libraries/XMCLib/inc\xmc_ccu4.h **** 	                                                                                                  
 578:C:/Workspaces/DAVE-4.4.2-64Bit/WIRELESS_CHARGER_RECVEIVER_delivered/Libraries/XMCLib/inc\xmc_ccu4.h ****                                                                                                    
 579:C:/Workspaces/DAVE-4.4.2-64Bit/WIRELESS_CHARGER_RECVEIVER_delivered/Libraries/XMCLib/inc\xmc_ccu4.h ****   XMC_CCU4_SLICE_AUTOMAIC_SHADOW_TRANSFER_WRITE_INTO_DITHER_SHADOW = CCU4_CC4_STC_ASDC_Msk,        
 580:C:/Workspaces/DAVE-4.4.2-64Bit/WIRELESS_CHARGER_RECVEIVER_delivered/Libraries/XMCLib/inc\xmc_ccu4.h ****                                                                                                    
 581:C:/Workspaces/DAVE-4.4.2-64Bit/WIRELESS_CHARGER_RECVEIVER_delivered/Libraries/XMCLib/inc\xmc_ccu4.h ****                                                                                                    
 582:C:/Workspaces/DAVE-4.4.2-64Bit/WIRELESS_CHARGER_RECVEIVER_delivered/Libraries/XMCLib/inc\xmc_ccu4.h ****   XMC_CCU4_SLICE_AUTOMAIC_SHADOW_TRANSFER_WRITE_INTO_FLOATING_PRESCALER_SHADOW = CCU4_CC4_STC_ASFC_
 583:C:/Workspaces/DAVE-4.4.2-64Bit/WIRELESS_CHARGER_RECVEIVER_delivered/Libraries/XMCLib/inc\xmc_ccu4.h **** 	                                                                                                  
 584:C:/Workspaces/DAVE-4.4.2-64Bit/WIRELESS_CHARGER_RECVEIVER_delivered/Libraries/XMCLib/inc\xmc_ccu4.h ****                                                                                                    
 585:C:/Workspaces/DAVE-4.4.2-64Bit/WIRELESS_CHARGER_RECVEIVER_delivered/Libraries/XMCLib/inc\xmc_ccu4.h ****                                                                                                    
 586:C:/Workspaces/DAVE-4.4.2-64Bit/WIRELESS_CHARGER_RECVEIVER_delivered/Libraries/XMCLib/inc\xmc_ccu4.h **** 
 587:C:/Workspaces/DAVE-4.4.2-64Bit/WIRELESS_CHARGER_RECVEIVER_delivered/Libraries/XMCLib/inc\xmc_ccu4.h **** } XMC_CCU4_SLICE_AUTOMAIC_SHADOW_TRANSFER_WRITE_INTO_t;
 588:C:/Workspaces/DAVE-4.4.2-64Bit/WIRELESS_CHARGER_RECVEIVER_delivered/Libraries/XMCLib/inc\xmc_ccu4.h **** #endif
 589:C:/Workspaces/DAVE-4.4.2-64Bit/WIRELESS_CHARGER_RECVEIVER_delivered/Libraries/XMCLib/inc\xmc_ccu4.h **** /**
 590:C:/Workspaces/DAVE-4.4.2-64Bit/WIRELESS_CHARGER_RECVEIVER_delivered/Libraries/XMCLib/inc\xmc_ccu4.h ****  *  Used to create Mask needed for Multi-channel Shadow transfer enable/disable
 591:C:/Workspaces/DAVE-4.4.2-64Bit/WIRELESS_CHARGER_RECVEIVER_delivered/Libraries/XMCLib/inc\xmc_ccu4.h ****  */
 592:C:/Workspaces/DAVE-4.4.2-64Bit/WIRELESS_CHARGER_RECVEIVER_delivered/Libraries/XMCLib/inc\xmc_ccu4.h **** typedef enum XMC_CCU4_SLICE_MASK
 593:C:/Workspaces/DAVE-4.4.2-64Bit/WIRELESS_CHARGER_RECVEIVER_delivered/Libraries/XMCLib/inc\xmc_ccu4.h **** {
 594:C:/Workspaces/DAVE-4.4.2-64Bit/WIRELESS_CHARGER_RECVEIVER_delivered/Libraries/XMCLib/inc\xmc_ccu4.h ****   XMC_CCU4_SLICE_MASK_SLICE_0  = 1U , /**< SLICE-0 */
 595:C:/Workspaces/DAVE-4.4.2-64Bit/WIRELESS_CHARGER_RECVEIVER_delivered/Libraries/XMCLib/inc\xmc_ccu4.h ****   XMC_CCU4_SLICE_MASK_SLICE_1  = 2U , /**< SLICE-1 */
 596:C:/Workspaces/DAVE-4.4.2-64Bit/WIRELESS_CHARGER_RECVEIVER_delivered/Libraries/XMCLib/inc\xmc_ccu4.h ****   XMC_CCU4_SLICE_MASK_SLICE_2  = 4U , /**< SLICE-2 */
 597:C:/Workspaces/DAVE-4.4.2-64Bit/WIRELESS_CHARGER_RECVEIVER_delivered/Libraries/XMCLib/inc\xmc_ccu4.h ****   XMC_CCU4_SLICE_MASK_SLICE_3  = 8U   /**< SLICE-3 */
 598:C:/Workspaces/DAVE-4.4.2-64Bit/WIRELESS_CHARGER_RECVEIVER_delivered/Libraries/XMCLib/inc\xmc_ccu4.h **** } XMC_CCU4_SLICE_MASK_t;
 599:C:/Workspaces/DAVE-4.4.2-64Bit/WIRELESS_CHARGER_RECVEIVER_delivered/Libraries/XMCLib/inc\xmc_ccu4.h **** 
 600:C:/Workspaces/DAVE-4.4.2-64Bit/WIRELESS_CHARGER_RECVEIVER_delivered/Libraries/XMCLib/inc\xmc_ccu4.h **** 
 601:C:/Workspaces/DAVE-4.4.2-64Bit/WIRELESS_CHARGER_RECVEIVER_delivered/Libraries/XMCLib/inc\xmc_ccu4.h **** /**************************************************************************************************
 602:C:/Workspaces/DAVE-4.4.2-64Bit/WIRELESS_CHARGER_RECVEIVER_delivered/Libraries/XMCLib/inc\xmc_ccu4.h ****  * DATA STRUCTURES
 603:C:/Workspaces/DAVE-4.4.2-64Bit/WIRELESS_CHARGER_RECVEIVER_delivered/Libraries/XMCLib/inc\xmc_ccu4.h ****  **************************************************************************************************
 604:C:/Workspaces/DAVE-4.4.2-64Bit/WIRELESS_CHARGER_RECVEIVER_delivered/Libraries/XMCLib/inc\xmc_ccu4.h **** 
 605:C:/Workspaces/DAVE-4.4.2-64Bit/WIRELESS_CHARGER_RECVEIVER_delivered/Libraries/XMCLib/inc\xmc_ccu4.h **** /**
 606:C:/Workspaces/DAVE-4.4.2-64Bit/WIRELESS_CHARGER_RECVEIVER_delivered/Libraries/XMCLib/inc\xmc_ccu4.h ****  *  Configuration data structure of an External Event(Event-0/1/2).
 607:C:/Workspaces/DAVE-4.4.2-64Bit/WIRELESS_CHARGER_RECVEIVER_delivered/Libraries/XMCLib/inc\xmc_ccu4.h ****  *  Needed to configure the various aspects of an External Event.
 608:C:/Workspaces/DAVE-4.4.2-64Bit/WIRELESS_CHARGER_RECVEIVER_delivered/Libraries/XMCLib/inc\xmc_ccu4.h ****  *  This structure will not connect the external event with an external function.
 609:C:/Workspaces/DAVE-4.4.2-64Bit/WIRELESS_CHARGER_RECVEIVER_delivered/Libraries/XMCLib/inc\xmc_ccu4.h ****  */ 
 610:C:/Workspaces/DAVE-4.4.2-64Bit/WIRELESS_CHARGER_RECVEIVER_delivered/Libraries/XMCLib/inc\xmc_ccu4.h **** typedef struct XMC_CCU4_SLICE_EVENT_CONFIG
 611:C:/Workspaces/DAVE-4.4.2-64Bit/WIRELESS_CHARGER_RECVEIVER_delivered/Libraries/XMCLib/inc\xmc_ccu4.h **** {
 612:C:/Workspaces/DAVE-4.4.2-64Bit/WIRELESS_CHARGER_RECVEIVER_delivered/Libraries/XMCLib/inc\xmc_ccu4.h ****   XMC_CCU4_SLICE_INPUT_t                   mapped_input; /**< Required input signal for the Event *
 613:C:/Workspaces/DAVE-4.4.2-64Bit/WIRELESS_CHARGER_RECVEIVER_delivered/Libraries/XMCLib/inc\xmc_ccu4.h ****   XMC_CCU4_SLICE_EVENT_EDGE_SENSITIVITY_t  edge;         /**< Select the event edge of the input si
 614:C:/Workspaces/DAVE-4.4.2-64Bit/WIRELESS_CHARGER_RECVEIVER_delivered/Libraries/XMCLib/inc\xmc_ccu4.h ****                                                               This is needed for an edge sensitive 
 615:C:/Workspaces/DAVE-4.4.2-64Bit/WIRELESS_CHARGER_RECVEIVER_delivered/Libraries/XMCLib/inc\xmc_ccu4.h ****   XMC_CCU4_SLICE_EVENT_LEVEL_SENSITIVITY_t level;        /**< Select the event level of the input s
 616:C:/Workspaces/DAVE-4.4.2-64Bit/WIRELESS_CHARGER_RECVEIVER_delivered/Libraries/XMCLib/inc\xmc_ccu4.h ****                                                               This is needed for an level sensitive
 617:C:/Workspaces/DAVE-4.4.2-64Bit/WIRELESS_CHARGER_RECVEIVER_delivered/Libraries/XMCLib/inc\xmc_ccu4.h ****   XMC_CCU4_SLICE_EVENT_FILTER_t            duration;     /**< Low Pass filter duration in terms of 
 618:C:/Workspaces/DAVE-4.4.2-64Bit/WIRELESS_CHARGER_RECVEIVER_delivered/Libraries/XMCLib/inc\xmc_ccu4.h **** } XMC_CCU4_SLICE_EVENT_CONFIG_t;
 619:C:/Workspaces/DAVE-4.4.2-64Bit/WIRELESS_CHARGER_RECVEIVER_delivered/Libraries/XMCLib/inc\xmc_ccu4.h **** 
 620:C:/Workspaces/DAVE-4.4.2-64Bit/WIRELESS_CHARGER_RECVEIVER_delivered/Libraries/XMCLib/inc\xmc_ccu4.h **** /*Anonymous structure/union guard start*/
 621:C:/Workspaces/DAVE-4.4.2-64Bit/WIRELESS_CHARGER_RECVEIVER_delivered/Libraries/XMCLib/inc\xmc_ccu4.h **** #if defined(__CC_ARM)
 622:C:/Workspaces/DAVE-4.4.2-64Bit/WIRELESS_CHARGER_RECVEIVER_delivered/Libraries/XMCLib/inc\xmc_ccu4.h ****   #pragma push
 623:C:/Workspaces/DAVE-4.4.2-64Bit/WIRELESS_CHARGER_RECVEIVER_delivered/Libraries/XMCLib/inc\xmc_ccu4.h ****   #pragma anon_unions
 624:C:/Workspaces/DAVE-4.4.2-64Bit/WIRELESS_CHARGER_RECVEIVER_delivered/Libraries/XMCLib/inc\xmc_ccu4.h **** #elif defined(__TASKING__)
 625:C:/Workspaces/DAVE-4.4.2-64Bit/WIRELESS_CHARGER_RECVEIVER_delivered/Libraries/XMCLib/inc\xmc_ccu4.h ****   #pragma warning 586
 626:C:/Workspaces/DAVE-4.4.2-64Bit/WIRELESS_CHARGER_RECVEIVER_delivered/Libraries/XMCLib/inc\xmc_ccu4.h **** #endif
 627:C:/Workspaces/DAVE-4.4.2-64Bit/WIRELESS_CHARGER_RECVEIVER_delivered/Libraries/XMCLib/inc\xmc_ccu4.h **** 
 628:C:/Workspaces/DAVE-4.4.2-64Bit/WIRELESS_CHARGER_RECVEIVER_delivered/Libraries/XMCLib/inc\xmc_ccu4.h **** /**
 629:C:/Workspaces/DAVE-4.4.2-64Bit/WIRELESS_CHARGER_RECVEIVER_delivered/Libraries/XMCLib/inc\xmc_ccu4.h ****  *  Configuration data structure for CCU4 slice. Specifically configures the CCU4 slice to compare 
 630:C:/Workspaces/DAVE-4.4.2-64Bit/WIRELESS_CHARGER_RECVEIVER_delivered/Libraries/XMCLib/inc\xmc_ccu4.h ****  *  This excludes event and function configuration.
 631:C:/Workspaces/DAVE-4.4.2-64Bit/WIRELESS_CHARGER_RECVEIVER_delivered/Libraries/XMCLib/inc\xmc_ccu4.h ****  */ 
 632:C:/Workspaces/DAVE-4.4.2-64Bit/WIRELESS_CHARGER_RECVEIVER_delivered/Libraries/XMCLib/inc\xmc_ccu4.h **** typedef struct XMC_CCU4_SLICE_COMPARE_CONFIG
 633:C:/Workspaces/DAVE-4.4.2-64Bit/WIRELESS_CHARGER_RECVEIVER_delivered/Libraries/XMCLib/inc\xmc_ccu4.h **** {
 634:C:/Workspaces/DAVE-4.4.2-64Bit/WIRELESS_CHARGER_RECVEIVER_delivered/Libraries/XMCLib/inc\xmc_ccu4.h ****   union
 635:C:/Workspaces/DAVE-4.4.2-64Bit/WIRELESS_CHARGER_RECVEIVER_delivered/Libraries/XMCLib/inc\xmc_ccu4.h ****   {
 636:C:/Workspaces/DAVE-4.4.2-64Bit/WIRELESS_CHARGER_RECVEIVER_delivered/Libraries/XMCLib/inc\xmc_ccu4.h ****     struct
 637:C:/Workspaces/DAVE-4.4.2-64Bit/WIRELESS_CHARGER_RECVEIVER_delivered/Libraries/XMCLib/inc\xmc_ccu4.h ****     {
 638:C:/Workspaces/DAVE-4.4.2-64Bit/WIRELESS_CHARGER_RECVEIVER_delivered/Libraries/XMCLib/inc\xmc_ccu4.h ****       uint32_t timer_mode : 1;         /**< Edge aligned or Centre Aligned.
 639:C:/Workspaces/DAVE-4.4.2-64Bit/WIRELESS_CHARGER_RECVEIVER_delivered/Libraries/XMCLib/inc\xmc_ccu4.h ****                                              Accepts enum ::XMC_CCU4_SLICE_TIMER_COUNT_MODE_t */
 640:C:/Workspaces/DAVE-4.4.2-64Bit/WIRELESS_CHARGER_RECVEIVER_delivered/Libraries/XMCLib/inc\xmc_ccu4.h ****       uint32_t monoshot : 1;           /**< Single shot or Continuous mode .
 641:C:/Workspaces/DAVE-4.4.2-64Bit/WIRELESS_CHARGER_RECVEIVER_delivered/Libraries/XMCLib/inc\xmc_ccu4.h ****                                              Accepts enum :: XMC_CCU4_SLICE_TIMER_REPEAT_MODE_t*/
 642:C:/Workspaces/DAVE-4.4.2-64Bit/WIRELESS_CHARGER_RECVEIVER_delivered/Libraries/XMCLib/inc\xmc_ccu4.h ****       uint32_t shadow_xfer_clear : 1;  /**< Should PR and CR shadow xfer happen when timer is clear
 643:C:/Workspaces/DAVE-4.4.2-64Bit/WIRELESS_CHARGER_RECVEIVER_delivered/Libraries/XMCLib/inc\xmc_ccu4.h ****       uint32_t : 10;
 644:C:/Workspaces/DAVE-4.4.2-64Bit/WIRELESS_CHARGER_RECVEIVER_delivered/Libraries/XMCLib/inc\xmc_ccu4.h ****       uint32_t dither_timer_period: 1; /**< Can the period of the timer dither? */
 645:C:/Workspaces/DAVE-4.4.2-64Bit/WIRELESS_CHARGER_RECVEIVER_delivered/Libraries/XMCLib/inc\xmc_ccu4.h ****       uint32_t dither_duty_cycle : 1;  /**< Can the compare match of the timer dither? */
 646:C:/Workspaces/DAVE-4.4.2-64Bit/WIRELESS_CHARGER_RECVEIVER_delivered/Libraries/XMCLib/inc\xmc_ccu4.h ****       uint32_t : 1;
 647:C:/Workspaces/DAVE-4.4.2-64Bit/WIRELESS_CHARGER_RECVEIVER_delivered/Libraries/XMCLib/inc\xmc_ccu4.h ****       uint32_t prescaler_mode: 1;      /**< Normal or floating prescaler mode.
 648:C:/Workspaces/DAVE-4.4.2-64Bit/WIRELESS_CHARGER_RECVEIVER_delivered/Libraries/XMCLib/inc\xmc_ccu4.h ****                                              Accepts enum :: XMC_CCU4_SLICE_PRESCALER_MODE_t*/
 649:C:/Workspaces/DAVE-4.4.2-64Bit/WIRELESS_CHARGER_RECVEIVER_delivered/Libraries/XMCLib/inc\xmc_ccu4.h ****       uint32_t : 8;
 650:C:/Workspaces/DAVE-4.4.2-64Bit/WIRELESS_CHARGER_RECVEIVER_delivered/Libraries/XMCLib/inc\xmc_ccu4.h ****       uint32_t mcm_enable : 1;         /**< Multi-Channel mode enable? */
 651:C:/Workspaces/DAVE-4.4.2-64Bit/WIRELESS_CHARGER_RECVEIVER_delivered/Libraries/XMCLib/inc\xmc_ccu4.h ****       uint32_t : 6;
 652:C:/Workspaces/DAVE-4.4.2-64Bit/WIRELESS_CHARGER_RECVEIVER_delivered/Libraries/XMCLib/inc\xmc_ccu4.h ****     };
 653:C:/Workspaces/DAVE-4.4.2-64Bit/WIRELESS_CHARGER_RECVEIVER_delivered/Libraries/XMCLib/inc\xmc_ccu4.h ****     uint32_t tc;
 654:C:/Workspaces/DAVE-4.4.2-64Bit/WIRELESS_CHARGER_RECVEIVER_delivered/Libraries/XMCLib/inc\xmc_ccu4.h ****   };
 655:C:/Workspaces/DAVE-4.4.2-64Bit/WIRELESS_CHARGER_RECVEIVER_delivered/Libraries/XMCLib/inc\xmc_ccu4.h ****   uint32_t prescaler_initval : 4;      /**< Initial prescaler divider value 
 656:C:/Workspaces/DAVE-4.4.2-64Bit/WIRELESS_CHARGER_RECVEIVER_delivered/Libraries/XMCLib/inc\xmc_ccu4.h ****                                             Accepts enum :: XMC_CCU4_SLICE_PRESCALER_t */
 657:C:/Workspaces/DAVE-4.4.2-64Bit/WIRELESS_CHARGER_RECVEIVER_delivered/Libraries/XMCLib/inc\xmc_ccu4.h ****   uint32_t float_limit : 4;            /**< The max value which the prescaler divider can increment
 658:C:/Workspaces/DAVE-4.4.2-64Bit/WIRELESS_CHARGER_RECVEIVER_delivered/Libraries/XMCLib/inc\xmc_ccu4.h ****   uint32_t dither_limit : 4;           /**< The value that determines the spreading of dithering */
 659:C:/Workspaces/DAVE-4.4.2-64Bit/WIRELESS_CHARGER_RECVEIVER_delivered/Libraries/XMCLib/inc\xmc_ccu4.h ****   uint32_t passive_level : 1;          /**< Configuration of ST and OUT passive levels.
 660:C:/Workspaces/DAVE-4.4.2-64Bit/WIRELESS_CHARGER_RECVEIVER_delivered/Libraries/XMCLib/inc\xmc_ccu4.h ****                                              Accepts enum :: XMC_CCU4_SLICE_OUTPUT_PASSIVE_LEVEL_t*
 661:C:/Workspaces/DAVE-4.4.2-64Bit/WIRELESS_CHARGER_RECVEIVER_delivered/Libraries/XMCLib/inc\xmc_ccu4.h ****   uint32_t timer_concatenation : 1;    /**< Enables the concatenation of the timer if true.*/
 662:C:/Workspaces/DAVE-4.4.2-64Bit/WIRELESS_CHARGER_RECVEIVER_delivered/Libraries/XMCLib/inc\xmc_ccu4.h **** } XMC_CCU4_SLICE_COMPARE_CONFIG_t;
 663:C:/Workspaces/DAVE-4.4.2-64Bit/WIRELESS_CHARGER_RECVEIVER_delivered/Libraries/XMCLib/inc\xmc_ccu4.h **** 
 664:C:/Workspaces/DAVE-4.4.2-64Bit/WIRELESS_CHARGER_RECVEIVER_delivered/Libraries/XMCLib/inc\xmc_ccu4.h **** /**
 665:C:/Workspaces/DAVE-4.4.2-64Bit/WIRELESS_CHARGER_RECVEIVER_delivered/Libraries/XMCLib/inc\xmc_ccu4.h ****  *  Configuration data structure for CCU4 slice. Specifically configures the CCU4 slice to capture 
 666:C:/Workspaces/DAVE-4.4.2-64Bit/WIRELESS_CHARGER_RECVEIVER_delivered/Libraries/XMCLib/inc\xmc_ccu4.h ****  *  This excludes event and function configuration.
 667:C:/Workspaces/DAVE-4.4.2-64Bit/WIRELESS_CHARGER_RECVEIVER_delivered/Libraries/XMCLib/inc\xmc_ccu4.h ****  */ 
 668:C:/Workspaces/DAVE-4.4.2-64Bit/WIRELESS_CHARGER_RECVEIVER_delivered/Libraries/XMCLib/inc\xmc_ccu4.h **** typedef struct XMC_CCU4_SLICE_CAPTURE_CONFIG
 669:C:/Workspaces/DAVE-4.4.2-64Bit/WIRELESS_CHARGER_RECVEIVER_delivered/Libraries/XMCLib/inc\xmc_ccu4.h **** {
 670:C:/Workspaces/DAVE-4.4.2-64Bit/WIRELESS_CHARGER_RECVEIVER_delivered/Libraries/XMCLib/inc\xmc_ccu4.h ****   union
 671:C:/Workspaces/DAVE-4.4.2-64Bit/WIRELESS_CHARGER_RECVEIVER_delivered/Libraries/XMCLib/inc\xmc_ccu4.h ****   {
 672:C:/Workspaces/DAVE-4.4.2-64Bit/WIRELESS_CHARGER_RECVEIVER_delivered/Libraries/XMCLib/inc\xmc_ccu4.h ****     struct
 673:C:/Workspaces/DAVE-4.4.2-64Bit/WIRELESS_CHARGER_RECVEIVER_delivered/Libraries/XMCLib/inc\xmc_ccu4.h ****     {
 674:C:/Workspaces/DAVE-4.4.2-64Bit/WIRELESS_CHARGER_RECVEIVER_delivered/Libraries/XMCLib/inc\xmc_ccu4.h ****       uint32_t : 4;
 675:C:/Workspaces/DAVE-4.4.2-64Bit/WIRELESS_CHARGER_RECVEIVER_delivered/Libraries/XMCLib/inc\xmc_ccu4.h ****       uint32_t fifo_enable : 1;      /**< Should the capture registers be setup as a FIFO?(Extended
 676:C:/Workspaces/DAVE-4.4.2-64Bit/WIRELESS_CHARGER_RECVEIVER_delivered/Libraries/XMCLib/inc\xmc_ccu4.h ****       uint32_t timer_clear_mode : 2; /**< How should the timer register be cleared upon detection o
 677:C:/Workspaces/DAVE-4.4.2-64Bit/WIRELESS_CHARGER_RECVEIVER_delivered/Libraries/XMCLib/inc\xmc_ccu4.h ****                                           Accepts enum ::XMC_CCU4_SLICE_TIMER_CLEAR_MODE_t*/
 678:C:/Workspaces/DAVE-4.4.2-64Bit/WIRELESS_CHARGER_RECVEIVER_delivered/Libraries/XMCLib/inc\xmc_ccu4.h ****       uint32_t : 4;
 679:C:/Workspaces/DAVE-4.4.2-64Bit/WIRELESS_CHARGER_RECVEIVER_delivered/Libraries/XMCLib/inc\xmc_ccu4.h ****       uint32_t same_event : 1;       /**< Should the capture event for C1V/C0V and C3V/C2V be same 
 680:C:/Workspaces/DAVE-4.4.2-64Bit/WIRELESS_CHARGER_RECVEIVER_delivered/Libraries/XMCLib/inc\xmc_ccu4.h ****       uint32_t ignore_full_flag : 1; /**< Should updates to capture registers follow full flag rule
 681:C:/Workspaces/DAVE-4.4.2-64Bit/WIRELESS_CHARGER_RECVEIVER_delivered/Libraries/XMCLib/inc\xmc_ccu4.h ****       uint32_t : 3;
 682:C:/Workspaces/DAVE-4.4.2-64Bit/WIRELESS_CHARGER_RECVEIVER_delivered/Libraries/XMCLib/inc\xmc_ccu4.h ****       uint32_t prescaler_mode: 1;    /**< Normal or floating prescaler Accepts enum :: XMC_CCU4_SLI
 683:C:/Workspaces/DAVE-4.4.2-64Bit/WIRELESS_CHARGER_RECVEIVER_delivered/Libraries/XMCLib/inc\xmc_ccu4.h ****       uint32_t : 15;
 684:C:/Workspaces/DAVE-4.4.2-64Bit/WIRELESS_CHARGER_RECVEIVER_delivered/Libraries/XMCLib/inc\xmc_ccu4.h ****     };
 685:C:/Workspaces/DAVE-4.4.2-64Bit/WIRELESS_CHARGER_RECVEIVER_delivered/Libraries/XMCLib/inc\xmc_ccu4.h ****     uint32_t tc;
 686:C:/Workspaces/DAVE-4.4.2-64Bit/WIRELESS_CHARGER_RECVEIVER_delivered/Libraries/XMCLib/inc\xmc_ccu4.h ****   };
 687:C:/Workspaces/DAVE-4.4.2-64Bit/WIRELESS_CHARGER_RECVEIVER_delivered/Libraries/XMCLib/inc\xmc_ccu4.h ****   uint32_t prescaler_initval : 4;    /**< Prescaler divider value */
 688:C:/Workspaces/DAVE-4.4.2-64Bit/WIRELESS_CHARGER_RECVEIVER_delivered/Libraries/XMCLib/inc\xmc_ccu4.h ****   uint32_t float_limit : 4;          /**< The max value which the prescaler divider can increment t
 689:C:/Workspaces/DAVE-4.4.2-64Bit/WIRELESS_CHARGER_RECVEIVER_delivered/Libraries/XMCLib/inc\xmc_ccu4.h ****   uint32_t timer_concatenation : 1;  /**< Enables the concatenation of the timer */
 690:C:/Workspaces/DAVE-4.4.2-64Bit/WIRELESS_CHARGER_RECVEIVER_delivered/Libraries/XMCLib/inc\xmc_ccu4.h **** } XMC_CCU4_SLICE_CAPTURE_CONFIG_t;
 691:C:/Workspaces/DAVE-4.4.2-64Bit/WIRELESS_CHARGER_RECVEIVER_delivered/Libraries/XMCLib/inc\xmc_ccu4.h **** /*Anonymous structure/union guard end*/
 692:C:/Workspaces/DAVE-4.4.2-64Bit/WIRELESS_CHARGER_RECVEIVER_delivered/Libraries/XMCLib/inc\xmc_ccu4.h **** #if defined(__CC_ARM)
 693:C:/Workspaces/DAVE-4.4.2-64Bit/WIRELESS_CHARGER_RECVEIVER_delivered/Libraries/XMCLib/inc\xmc_ccu4.h ****   #pragma pop
 694:C:/Workspaces/DAVE-4.4.2-64Bit/WIRELESS_CHARGER_RECVEIVER_delivered/Libraries/XMCLib/inc\xmc_ccu4.h **** #elif defined(__TASKING__)
 695:C:/Workspaces/DAVE-4.4.2-64Bit/WIRELESS_CHARGER_RECVEIVER_delivered/Libraries/XMCLib/inc\xmc_ccu4.h ****   #pragma warning restore
 696:C:/Workspaces/DAVE-4.4.2-64Bit/WIRELESS_CHARGER_RECVEIVER_delivered/Libraries/XMCLib/inc\xmc_ccu4.h **** #endif
 697:C:/Workspaces/DAVE-4.4.2-64Bit/WIRELESS_CHARGER_RECVEIVER_delivered/Libraries/XMCLib/inc\xmc_ccu4.h **** /**************************************************************************************************
 698:C:/Workspaces/DAVE-4.4.2-64Bit/WIRELESS_CHARGER_RECVEIVER_delivered/Libraries/XMCLib/inc\xmc_ccu4.h ****  * API Prototypes
 699:C:/Workspaces/DAVE-4.4.2-64Bit/WIRELESS_CHARGER_RECVEIVER_delivered/Libraries/XMCLib/inc\xmc_ccu4.h ****  **************************************************************************************************
 700:C:/Workspaces/DAVE-4.4.2-64Bit/WIRELESS_CHARGER_RECVEIVER_delivered/Libraries/XMCLib/inc\xmc_ccu4.h **** 
 701:C:/Workspaces/DAVE-4.4.2-64Bit/WIRELESS_CHARGER_RECVEIVER_delivered/Libraries/XMCLib/inc\xmc_ccu4.h **** #ifdef __cplusplus
 702:C:/Workspaces/DAVE-4.4.2-64Bit/WIRELESS_CHARGER_RECVEIVER_delivered/Libraries/XMCLib/inc\xmc_ccu4.h **** extern "C" {
 703:C:/Workspaces/DAVE-4.4.2-64Bit/WIRELESS_CHARGER_RECVEIVER_delivered/Libraries/XMCLib/inc\xmc_ccu4.h **** #endif
 704:C:/Workspaces/DAVE-4.4.2-64Bit/WIRELESS_CHARGER_RECVEIVER_delivered/Libraries/XMCLib/inc\xmc_ccu4.h **** 
 705:C:/Workspaces/DAVE-4.4.2-64Bit/WIRELESS_CHARGER_RECVEIVER_delivered/Libraries/XMCLib/inc\xmc_ccu4.h **** __STATIC_INLINE bool XMC_CCU4_IsValidModule(const XMC_CCU4_MODULE_t *const module)
 706:C:/Workspaces/DAVE-4.4.2-64Bit/WIRELESS_CHARGER_RECVEIVER_delivered/Libraries/XMCLib/inc\xmc_ccu4.h **** {
 707:C:/Workspaces/DAVE-4.4.2-64Bit/WIRELESS_CHARGER_RECVEIVER_delivered/Libraries/XMCLib/inc\xmc_ccu4.h ****   bool tmp = false;
 708:C:/Workspaces/DAVE-4.4.2-64Bit/WIRELESS_CHARGER_RECVEIVER_delivered/Libraries/XMCLib/inc\xmc_ccu4.h ****   
 709:C:/Workspaces/DAVE-4.4.2-64Bit/WIRELESS_CHARGER_RECVEIVER_delivered/Libraries/XMCLib/inc\xmc_ccu4.h ****   tmp = (module == CCU40);
 710:C:/Workspaces/DAVE-4.4.2-64Bit/WIRELESS_CHARGER_RECVEIVER_delivered/Libraries/XMCLib/inc\xmc_ccu4.h ****   
 711:C:/Workspaces/DAVE-4.4.2-64Bit/WIRELESS_CHARGER_RECVEIVER_delivered/Libraries/XMCLib/inc\xmc_ccu4.h **** #if defined(CCU41) 
 712:C:/Workspaces/DAVE-4.4.2-64Bit/WIRELESS_CHARGER_RECVEIVER_delivered/Libraries/XMCLib/inc\xmc_ccu4.h ****   tmp = tmp || (module == CCU41);
 713:C:/Workspaces/DAVE-4.4.2-64Bit/WIRELESS_CHARGER_RECVEIVER_delivered/Libraries/XMCLib/inc\xmc_ccu4.h **** #endif
 714:C:/Workspaces/DAVE-4.4.2-64Bit/WIRELESS_CHARGER_RECVEIVER_delivered/Libraries/XMCLib/inc\xmc_ccu4.h **** 
 715:C:/Workspaces/DAVE-4.4.2-64Bit/WIRELESS_CHARGER_RECVEIVER_delivered/Libraries/XMCLib/inc\xmc_ccu4.h **** #if defined(CCU42)
 716:C:/Workspaces/DAVE-4.4.2-64Bit/WIRELESS_CHARGER_RECVEIVER_delivered/Libraries/XMCLib/inc\xmc_ccu4.h ****   tmp = tmp || (module == CCU42);
 717:C:/Workspaces/DAVE-4.4.2-64Bit/WIRELESS_CHARGER_RECVEIVER_delivered/Libraries/XMCLib/inc\xmc_ccu4.h **** #endif
 718:C:/Workspaces/DAVE-4.4.2-64Bit/WIRELESS_CHARGER_RECVEIVER_delivered/Libraries/XMCLib/inc\xmc_ccu4.h **** 
 719:C:/Workspaces/DAVE-4.4.2-64Bit/WIRELESS_CHARGER_RECVEIVER_delivered/Libraries/XMCLib/inc\xmc_ccu4.h **** #if defined(CCU43)
 720:C:/Workspaces/DAVE-4.4.2-64Bit/WIRELESS_CHARGER_RECVEIVER_delivered/Libraries/XMCLib/inc\xmc_ccu4.h ****   tmp = tmp || (module == CCU43);
 721:C:/Workspaces/DAVE-4.4.2-64Bit/WIRELESS_CHARGER_RECVEIVER_delivered/Libraries/XMCLib/inc\xmc_ccu4.h **** #endif
 722:C:/Workspaces/DAVE-4.4.2-64Bit/WIRELESS_CHARGER_RECVEIVER_delivered/Libraries/XMCLib/inc\xmc_ccu4.h ****   
 723:C:/Workspaces/DAVE-4.4.2-64Bit/WIRELESS_CHARGER_RECVEIVER_delivered/Libraries/XMCLib/inc\xmc_ccu4.h ****   return tmp;  
 724:C:/Workspaces/DAVE-4.4.2-64Bit/WIRELESS_CHARGER_RECVEIVER_delivered/Libraries/XMCLib/inc\xmc_ccu4.h **** } 
 725:C:/Workspaces/DAVE-4.4.2-64Bit/WIRELESS_CHARGER_RECVEIVER_delivered/Libraries/XMCLib/inc\xmc_ccu4.h **** 
 726:C:/Workspaces/DAVE-4.4.2-64Bit/WIRELESS_CHARGER_RECVEIVER_delivered/Libraries/XMCLib/inc\xmc_ccu4.h **** __STATIC_INLINE bool XMC_CCU4_IsValidSlice(const XMC_CCU4_SLICE_t *const slice)
 727:C:/Workspaces/DAVE-4.4.2-64Bit/WIRELESS_CHARGER_RECVEIVER_delivered/Libraries/XMCLib/inc\xmc_ccu4.h **** {
 728:C:/Workspaces/DAVE-4.4.2-64Bit/WIRELESS_CHARGER_RECVEIVER_delivered/Libraries/XMCLib/inc\xmc_ccu4.h ****   bool tmp = false;
 729:C:/Workspaces/DAVE-4.4.2-64Bit/WIRELESS_CHARGER_RECVEIVER_delivered/Libraries/XMCLib/inc\xmc_ccu4.h ****   
 730:C:/Workspaces/DAVE-4.4.2-64Bit/WIRELESS_CHARGER_RECVEIVER_delivered/Libraries/XMCLib/inc\xmc_ccu4.h ****   tmp = (slice == CCU40_CC40);
 731:C:/Workspaces/DAVE-4.4.2-64Bit/WIRELESS_CHARGER_RECVEIVER_delivered/Libraries/XMCLib/inc\xmc_ccu4.h **** #if defined(CCU40_CC41)  
 732:C:/Workspaces/DAVE-4.4.2-64Bit/WIRELESS_CHARGER_RECVEIVER_delivered/Libraries/XMCLib/inc\xmc_ccu4.h ****   tmp = tmp || (slice == CCU40_CC41);
 733:C:/Workspaces/DAVE-4.4.2-64Bit/WIRELESS_CHARGER_RECVEIVER_delivered/Libraries/XMCLib/inc\xmc_ccu4.h **** #endif
 734:C:/Workspaces/DAVE-4.4.2-64Bit/WIRELESS_CHARGER_RECVEIVER_delivered/Libraries/XMCLib/inc\xmc_ccu4.h **** #if defined(CCU40_CC42)  
 735:C:/Workspaces/DAVE-4.4.2-64Bit/WIRELESS_CHARGER_RECVEIVER_delivered/Libraries/XMCLib/inc\xmc_ccu4.h ****   tmp = tmp || (slice == CCU40_CC42);
 736:C:/Workspaces/DAVE-4.4.2-64Bit/WIRELESS_CHARGER_RECVEIVER_delivered/Libraries/XMCLib/inc\xmc_ccu4.h **** #endif
 737:C:/Workspaces/DAVE-4.4.2-64Bit/WIRELESS_CHARGER_RECVEIVER_delivered/Libraries/XMCLib/inc\xmc_ccu4.h **** #if defined(CCU40_CC43)  
 738:C:/Workspaces/DAVE-4.4.2-64Bit/WIRELESS_CHARGER_RECVEIVER_delivered/Libraries/XMCLib/inc\xmc_ccu4.h ****   tmp = tmp || (slice == CCU40_CC43);
 739:C:/Workspaces/DAVE-4.4.2-64Bit/WIRELESS_CHARGER_RECVEIVER_delivered/Libraries/XMCLib/inc\xmc_ccu4.h **** #endif
 740:C:/Workspaces/DAVE-4.4.2-64Bit/WIRELESS_CHARGER_RECVEIVER_delivered/Libraries/XMCLib/inc\xmc_ccu4.h **** #if defined(CCU41)  
 741:C:/Workspaces/DAVE-4.4.2-64Bit/WIRELESS_CHARGER_RECVEIVER_delivered/Libraries/XMCLib/inc\xmc_ccu4.h ****   tmp = tmp || (slice == CCU41_CC40);
 742:C:/Workspaces/DAVE-4.4.2-64Bit/WIRELESS_CHARGER_RECVEIVER_delivered/Libraries/XMCLib/inc\xmc_ccu4.h **** #if defined(CCU41_CC41)  
 743:C:/Workspaces/DAVE-4.4.2-64Bit/WIRELESS_CHARGER_RECVEIVER_delivered/Libraries/XMCLib/inc\xmc_ccu4.h ****   tmp = tmp || (slice == CCU41_CC41);
 744:C:/Workspaces/DAVE-4.4.2-64Bit/WIRELESS_CHARGER_RECVEIVER_delivered/Libraries/XMCLib/inc\xmc_ccu4.h **** #endif
 745:C:/Workspaces/DAVE-4.4.2-64Bit/WIRELESS_CHARGER_RECVEIVER_delivered/Libraries/XMCLib/inc\xmc_ccu4.h **** #if defined(CCU41_CC42)  
 746:C:/Workspaces/DAVE-4.4.2-64Bit/WIRELESS_CHARGER_RECVEIVER_delivered/Libraries/XMCLib/inc\xmc_ccu4.h ****   tmp = tmp || (slice == CCU41_CC42);
 747:C:/Workspaces/DAVE-4.4.2-64Bit/WIRELESS_CHARGER_RECVEIVER_delivered/Libraries/XMCLib/inc\xmc_ccu4.h **** #endif
 748:C:/Workspaces/DAVE-4.4.2-64Bit/WIRELESS_CHARGER_RECVEIVER_delivered/Libraries/XMCLib/inc\xmc_ccu4.h **** #if defined(CCU41_CC43)  
 749:C:/Workspaces/DAVE-4.4.2-64Bit/WIRELESS_CHARGER_RECVEIVER_delivered/Libraries/XMCLib/inc\xmc_ccu4.h ****   tmp = tmp || (slice == CCU41_CC43);
 750:C:/Workspaces/DAVE-4.4.2-64Bit/WIRELESS_CHARGER_RECVEIVER_delivered/Libraries/XMCLib/inc\xmc_ccu4.h **** #endif
 751:C:/Workspaces/DAVE-4.4.2-64Bit/WIRELESS_CHARGER_RECVEIVER_delivered/Libraries/XMCLib/inc\xmc_ccu4.h **** #endif 
 752:C:/Workspaces/DAVE-4.4.2-64Bit/WIRELESS_CHARGER_RECVEIVER_delivered/Libraries/XMCLib/inc\xmc_ccu4.h **** #if defined(CCU42)  
 753:C:/Workspaces/DAVE-4.4.2-64Bit/WIRELESS_CHARGER_RECVEIVER_delivered/Libraries/XMCLib/inc\xmc_ccu4.h ****   tmp = tmp || (slice == CCU42_CC40);
 754:C:/Workspaces/DAVE-4.4.2-64Bit/WIRELESS_CHARGER_RECVEIVER_delivered/Libraries/XMCLib/inc\xmc_ccu4.h **** #if defined(CCU42_CC41)  
 755:C:/Workspaces/DAVE-4.4.2-64Bit/WIRELESS_CHARGER_RECVEIVER_delivered/Libraries/XMCLib/inc\xmc_ccu4.h ****   tmp = tmp || (slice == CCU42_CC41);
 756:C:/Workspaces/DAVE-4.4.2-64Bit/WIRELESS_CHARGER_RECVEIVER_delivered/Libraries/XMCLib/inc\xmc_ccu4.h **** #endif
 757:C:/Workspaces/DAVE-4.4.2-64Bit/WIRELESS_CHARGER_RECVEIVER_delivered/Libraries/XMCLib/inc\xmc_ccu4.h **** #if defined(CCU42_CC42)  
 758:C:/Workspaces/DAVE-4.4.2-64Bit/WIRELESS_CHARGER_RECVEIVER_delivered/Libraries/XMCLib/inc\xmc_ccu4.h ****   tmp = tmp || (slice == CCU42_CC42);
 759:C:/Workspaces/DAVE-4.4.2-64Bit/WIRELESS_CHARGER_RECVEIVER_delivered/Libraries/XMCLib/inc\xmc_ccu4.h **** #endif
 760:C:/Workspaces/DAVE-4.4.2-64Bit/WIRELESS_CHARGER_RECVEIVER_delivered/Libraries/XMCLib/inc\xmc_ccu4.h **** #if defined(CCU42_CC43)  
 761:C:/Workspaces/DAVE-4.4.2-64Bit/WIRELESS_CHARGER_RECVEIVER_delivered/Libraries/XMCLib/inc\xmc_ccu4.h ****   tmp = tmp || (slice == CCU42_CC43);
 762:C:/Workspaces/DAVE-4.4.2-64Bit/WIRELESS_CHARGER_RECVEIVER_delivered/Libraries/XMCLib/inc\xmc_ccu4.h **** #endif
 763:C:/Workspaces/DAVE-4.4.2-64Bit/WIRELESS_CHARGER_RECVEIVER_delivered/Libraries/XMCLib/inc\xmc_ccu4.h **** #endif
 764:C:/Workspaces/DAVE-4.4.2-64Bit/WIRELESS_CHARGER_RECVEIVER_delivered/Libraries/XMCLib/inc\xmc_ccu4.h **** #if defined(CCU43)  
 765:C:/Workspaces/DAVE-4.4.2-64Bit/WIRELESS_CHARGER_RECVEIVER_delivered/Libraries/XMCLib/inc\xmc_ccu4.h ****   tmp = tmp || (slice == CCU43_CC40);
 766:C:/Workspaces/DAVE-4.4.2-64Bit/WIRELESS_CHARGER_RECVEIVER_delivered/Libraries/XMCLib/inc\xmc_ccu4.h **** #if defined(CCU43_CC41)  
 767:C:/Workspaces/DAVE-4.4.2-64Bit/WIRELESS_CHARGER_RECVEIVER_delivered/Libraries/XMCLib/inc\xmc_ccu4.h ****   tmp = tmp || (slice == CCU43_CC41);
 768:C:/Workspaces/DAVE-4.4.2-64Bit/WIRELESS_CHARGER_RECVEIVER_delivered/Libraries/XMCLib/inc\xmc_ccu4.h **** #endif
 769:C:/Workspaces/DAVE-4.4.2-64Bit/WIRELESS_CHARGER_RECVEIVER_delivered/Libraries/XMCLib/inc\xmc_ccu4.h **** #if defined(CCU43_CC42)  
 770:C:/Workspaces/DAVE-4.4.2-64Bit/WIRELESS_CHARGER_RECVEIVER_delivered/Libraries/XMCLib/inc\xmc_ccu4.h ****   tmp = tmp || (slice == CCU43_CC42);
 771:C:/Workspaces/DAVE-4.4.2-64Bit/WIRELESS_CHARGER_RECVEIVER_delivered/Libraries/XMCLib/inc\xmc_ccu4.h **** #endif
 772:C:/Workspaces/DAVE-4.4.2-64Bit/WIRELESS_CHARGER_RECVEIVER_delivered/Libraries/XMCLib/inc\xmc_ccu4.h **** #if defined(CCU43_CC43)  
 773:C:/Workspaces/DAVE-4.4.2-64Bit/WIRELESS_CHARGER_RECVEIVER_delivered/Libraries/XMCLib/inc\xmc_ccu4.h ****   tmp = tmp || (slice == CCU43_CC43);
 774:C:/Workspaces/DAVE-4.4.2-64Bit/WIRELESS_CHARGER_RECVEIVER_delivered/Libraries/XMCLib/inc\xmc_ccu4.h **** #endif
 775:C:/Workspaces/DAVE-4.4.2-64Bit/WIRELESS_CHARGER_RECVEIVER_delivered/Libraries/XMCLib/inc\xmc_ccu4.h **** #endif 
 776:C:/Workspaces/DAVE-4.4.2-64Bit/WIRELESS_CHARGER_RECVEIVER_delivered/Libraries/XMCLib/inc\xmc_ccu4.h ****   
 777:C:/Workspaces/DAVE-4.4.2-64Bit/WIRELESS_CHARGER_RECVEIVER_delivered/Libraries/XMCLib/inc\xmc_ccu4.h ****   return tmp;  
 778:C:/Workspaces/DAVE-4.4.2-64Bit/WIRELESS_CHARGER_RECVEIVER_delivered/Libraries/XMCLib/inc\xmc_ccu4.h **** } 
 779:C:/Workspaces/DAVE-4.4.2-64Bit/WIRELESS_CHARGER_RECVEIVER_delivered/Libraries/XMCLib/inc\xmc_ccu4.h **** 
 780:C:/Workspaces/DAVE-4.4.2-64Bit/WIRELESS_CHARGER_RECVEIVER_delivered/Libraries/XMCLib/inc\xmc_ccu4.h **** /**
 781:C:/Workspaces/DAVE-4.4.2-64Bit/WIRELESS_CHARGER_RECVEIVER_delivered/Libraries/XMCLib/inc\xmc_ccu4.h ****  * @param module Constant pointer to CCU4 module
 782:C:/Workspaces/DAVE-4.4.2-64Bit/WIRELESS_CHARGER_RECVEIVER_delivered/Libraries/XMCLib/inc\xmc_ccu4.h ****  * @param mcs_action multi-channel shadow transfer request configuration
 783:C:/Workspaces/DAVE-4.4.2-64Bit/WIRELESS_CHARGER_RECVEIVER_delivered/Libraries/XMCLib/inc\xmc_ccu4.h ****  * @return <BR>
 784:C:/Workspaces/DAVE-4.4.2-64Bit/WIRELESS_CHARGER_RECVEIVER_delivered/Libraries/XMCLib/inc\xmc_ccu4.h ****  *    None<BR>
 785:C:/Workspaces/DAVE-4.4.2-64Bit/WIRELESS_CHARGER_RECVEIVER_delivered/Libraries/XMCLib/inc\xmc_ccu4.h ****  *
 786:C:/Workspaces/DAVE-4.4.2-64Bit/WIRELESS_CHARGER_RECVEIVER_delivered/Libraries/XMCLib/inc\xmc_ccu4.h ****  * \par<b>Description:</b><br>
 787:C:/Workspaces/DAVE-4.4.2-64Bit/WIRELESS_CHARGER_RECVEIVER_delivered/Libraries/XMCLib/inc\xmc_ccu4.h ****  *  Initialization of global register GCTRL.<br>\n
 788:C:/Workspaces/DAVE-4.4.2-64Bit/WIRELESS_CHARGER_RECVEIVER_delivered/Libraries/XMCLib/inc\xmc_ccu4.h ****  *  As part of module initialization, behaviour of the module upon detection
 789:C:/Workspaces/DAVE-4.4.2-64Bit/WIRELESS_CHARGER_RECVEIVER_delivered/Libraries/XMCLib/inc\xmc_ccu4.h ****  *  Multi-Channel Mode trigger is configured. Will also invoke the XMC_CCU4_EnableModule().
 790:C:/Workspaces/DAVE-4.4.2-64Bit/WIRELESS_CHARGER_RECVEIVER_delivered/Libraries/XMCLib/inc\xmc_ccu4.h ****  *  The API call would bring up the required CCU4 module and also initialize the module for
 791:C:/Workspaces/DAVE-4.4.2-64Bit/WIRELESS_CHARGER_RECVEIVER_delivered/Libraries/XMCLib/inc\xmc_ccu4.h ****  *  the required multi-channel shadow transfer.
 792:C:/Workspaces/DAVE-4.4.2-64Bit/WIRELESS_CHARGER_RECVEIVER_delivered/Libraries/XMCLib/inc\xmc_ccu4.h ****  *
 793:C:/Workspaces/DAVE-4.4.2-64Bit/WIRELESS_CHARGER_RECVEIVER_delivered/Libraries/XMCLib/inc\xmc_ccu4.h ****  * \par<b>Related APIs:</b><br>
 794:C:/Workspaces/DAVE-4.4.2-64Bit/WIRELESS_CHARGER_RECVEIVER_delivered/Libraries/XMCLib/inc\xmc_ccu4.h ****  * XMC_CCU4_SLICE_CompareInit()<BR> XMC_CCU4_SLICE_CaptureInit().
 795:C:/Workspaces/DAVE-4.4.2-64Bit/WIRELESS_CHARGER_RECVEIVER_delivered/Libraries/XMCLib/inc\xmc_ccu4.h ****  */
 796:C:/Workspaces/DAVE-4.4.2-64Bit/WIRELESS_CHARGER_RECVEIVER_delivered/Libraries/XMCLib/inc\xmc_ccu4.h **** void XMC_CCU4_Init(XMC_CCU4_MODULE_t *const module, const XMC_CCU4_SLICE_MCMS_ACTION_t mcs_action);
 797:C:/Workspaces/DAVE-4.4.2-64Bit/WIRELESS_CHARGER_RECVEIVER_delivered/Libraries/XMCLib/inc\xmc_ccu4.h **** 
 798:C:/Workspaces/DAVE-4.4.2-64Bit/WIRELESS_CHARGER_RECVEIVER_delivered/Libraries/XMCLib/inc\xmc_ccu4.h **** /**
 799:C:/Workspaces/DAVE-4.4.2-64Bit/WIRELESS_CHARGER_RECVEIVER_delivered/Libraries/XMCLib/inc\xmc_ccu4.h ****  * @param module Constant pointer to CCU4 module
 800:C:/Workspaces/DAVE-4.4.2-64Bit/WIRELESS_CHARGER_RECVEIVER_delivered/Libraries/XMCLib/inc\xmc_ccu4.h ****  * @param clock Choice of input clock to the module
 801:C:/Workspaces/DAVE-4.4.2-64Bit/WIRELESS_CHARGER_RECVEIVER_delivered/Libraries/XMCLib/inc\xmc_ccu4.h ****  * @return <BR>
 802:C:/Workspaces/DAVE-4.4.2-64Bit/WIRELESS_CHARGER_RECVEIVER_delivered/Libraries/XMCLib/inc\xmc_ccu4.h ****  *    None<BR>
 803:C:/Workspaces/DAVE-4.4.2-64Bit/WIRELESS_CHARGER_RECVEIVER_delivered/Libraries/XMCLib/inc\xmc_ccu4.h ****  *
 804:C:/Workspaces/DAVE-4.4.2-64Bit/WIRELESS_CHARGER_RECVEIVER_delivered/Libraries/XMCLib/inc\xmc_ccu4.h ****  * \par<b>Description:</b><br>
 805:C:/Workspaces/DAVE-4.4.2-64Bit/WIRELESS_CHARGER_RECVEIVER_delivered/Libraries/XMCLib/inc\xmc_ccu4.h ****  *  Selects the Module Clock by configuring GCTRL.PCIS bits.<BR>\n
 806:C:/Workspaces/DAVE-4.4.2-64Bit/WIRELESS_CHARGER_RECVEIVER_delivered/Libraries/XMCLib/inc\xmc_ccu4.h ****  *  There are 3 potential clock sources. This API helps to select the required clock source.
 807:C:/Workspaces/DAVE-4.4.2-64Bit/WIRELESS_CHARGER_RECVEIVER_delivered/Libraries/XMCLib/inc\xmc_ccu4.h ****  *  Call to this API is valid after the XMC_CCU4_Init().
 808:C:/Workspaces/DAVE-4.4.2-64Bit/WIRELESS_CHARGER_RECVEIVER_delivered/Libraries/XMCLib/inc\xmc_ccu4.h ****  *
 809:C:/Workspaces/DAVE-4.4.2-64Bit/WIRELESS_CHARGER_RECVEIVER_delivered/Libraries/XMCLib/inc\xmc_ccu4.h ****  * \par<b>Related APIs:</b><br>
 810:C:/Workspaces/DAVE-4.4.2-64Bit/WIRELESS_CHARGER_RECVEIVER_delivered/Libraries/XMCLib/inc\xmc_ccu4.h ****  * None.<BR>
 811:C:/Workspaces/DAVE-4.4.2-64Bit/WIRELESS_CHARGER_RECVEIVER_delivered/Libraries/XMCLib/inc\xmc_ccu4.h ****  */
 812:C:/Workspaces/DAVE-4.4.2-64Bit/WIRELESS_CHARGER_RECVEIVER_delivered/Libraries/XMCLib/inc\xmc_ccu4.h **** void XMC_CCU4_SetModuleClock(XMC_CCU4_MODULE_t *const module, const XMC_CCU4_CLOCK_t clock);
 813:C:/Workspaces/DAVE-4.4.2-64Bit/WIRELESS_CHARGER_RECVEIVER_delivered/Libraries/XMCLib/inc\xmc_ccu4.h **** 
 814:C:/Workspaces/DAVE-4.4.2-64Bit/WIRELESS_CHARGER_RECVEIVER_delivered/Libraries/XMCLib/inc\xmc_ccu4.h **** /**
 815:C:/Workspaces/DAVE-4.4.2-64Bit/WIRELESS_CHARGER_RECVEIVER_delivered/Libraries/XMCLib/inc\xmc_ccu4.h ****  * @param module Constant pointer to CCU4 module
 816:C:/Workspaces/DAVE-4.4.2-64Bit/WIRELESS_CHARGER_RECVEIVER_delivered/Libraries/XMCLib/inc\xmc_ccu4.h ****  * @return <BR>
 817:C:/Workspaces/DAVE-4.4.2-64Bit/WIRELESS_CHARGER_RECVEIVER_delivered/Libraries/XMCLib/inc\xmc_ccu4.h ****  *    None<BR>
 818:C:/Workspaces/DAVE-4.4.2-64Bit/WIRELESS_CHARGER_RECVEIVER_delivered/Libraries/XMCLib/inc\xmc_ccu4.h ****  *
 819:C:/Workspaces/DAVE-4.4.2-64Bit/WIRELESS_CHARGER_RECVEIVER_delivered/Libraries/XMCLib/inc\xmc_ccu4.h ****  * \par<b>Description:</b><br>
 820:C:/Workspaces/DAVE-4.4.2-64Bit/WIRELESS_CHARGER_RECVEIVER_delivered/Libraries/XMCLib/inc\xmc_ccu4.h ****  * Enables the CCU4 module and brings it to active state.<BR>\n
 821:C:/Workspaces/DAVE-4.4.2-64Bit/WIRELESS_CHARGER_RECVEIVER_delivered/Libraries/XMCLib/inc\xmc_ccu4.h ****  * Also disables the gating of the clock signal (if applicable depending on the device being select
 822:C:/Workspaces/DAVE-4.4.2-64Bit/WIRELESS_CHARGER_RECVEIVER_delivered/Libraries/XMCLib/inc\xmc_ccu4.h ****  * Invoke this API before any operations are done on the CCU4 module. Invoked from  XMC_CCU4_Init()
 823:C:/Workspaces/DAVE-4.4.2-64Bit/WIRELESS_CHARGER_RECVEIVER_delivered/Libraries/XMCLib/inc\xmc_ccu4.h ****  *
 824:C:/Workspaces/DAVE-4.4.2-64Bit/WIRELESS_CHARGER_RECVEIVER_delivered/Libraries/XMCLib/inc\xmc_ccu4.h ****  * \par<b>Related APIs:</b><br>
 825:C:/Workspaces/DAVE-4.4.2-64Bit/WIRELESS_CHARGER_RECVEIVER_delivered/Libraries/XMCLib/inc\xmc_ccu4.h ****  * XMC_CCU4_SetModuleClock()<BR> XMC_CCU4_DisableModule()<BR> XMC_CCU4_StartPrescaler().
 826:C:/Workspaces/DAVE-4.4.2-64Bit/WIRELESS_CHARGER_RECVEIVER_delivered/Libraries/XMCLib/inc\xmc_ccu4.h ****  */
 827:C:/Workspaces/DAVE-4.4.2-64Bit/WIRELESS_CHARGER_RECVEIVER_delivered/Libraries/XMCLib/inc\xmc_ccu4.h **** void XMC_CCU4_EnableModule(XMC_CCU4_MODULE_t *const module);
 828:C:/Workspaces/DAVE-4.4.2-64Bit/WIRELESS_CHARGER_RECVEIVER_delivered/Libraries/XMCLib/inc\xmc_ccu4.h **** 
 829:C:/Workspaces/DAVE-4.4.2-64Bit/WIRELESS_CHARGER_RECVEIVER_delivered/Libraries/XMCLib/inc\xmc_ccu4.h **** /**
 830:C:/Workspaces/DAVE-4.4.2-64Bit/WIRELESS_CHARGER_RECVEIVER_delivered/Libraries/XMCLib/inc\xmc_ccu4.h ****  * @param module Constant pointer to CCU4 module
 831:C:/Workspaces/DAVE-4.4.2-64Bit/WIRELESS_CHARGER_RECVEIVER_delivered/Libraries/XMCLib/inc\xmc_ccu4.h ****  * @return <BR>
 832:C:/Workspaces/DAVE-4.4.2-64Bit/WIRELESS_CHARGER_RECVEIVER_delivered/Libraries/XMCLib/inc\xmc_ccu4.h ****  *    None<BR>
 833:C:/Workspaces/DAVE-4.4.2-64Bit/WIRELESS_CHARGER_RECVEIVER_delivered/Libraries/XMCLib/inc\xmc_ccu4.h ****  *
 834:C:/Workspaces/DAVE-4.4.2-64Bit/WIRELESS_CHARGER_RECVEIVER_delivered/Libraries/XMCLib/inc\xmc_ccu4.h ****  * \par<b>Description:</b><br>
 835:C:/Workspaces/DAVE-4.4.2-64Bit/WIRELESS_CHARGER_RECVEIVER_delivered/Libraries/XMCLib/inc\xmc_ccu4.h ****  * Brings the CCU4 module to reset state and enables gating of the clock signal(if applicable depen
 836:C:/Workspaces/DAVE-4.4.2-64Bit/WIRELESS_CHARGER_RECVEIVER_delivered/Libraries/XMCLib/inc\xmc_ccu4.h ****  * on the device being selected).<BR>\n
 837:C:/Workspaces/DAVE-4.4.2-64Bit/WIRELESS_CHARGER_RECVEIVER_delivered/Libraries/XMCLib/inc\xmc_ccu4.h ****  * Invoke this API when a CCU4 module needs to be disabled completely.
 838:C:/Workspaces/DAVE-4.4.2-64Bit/WIRELESS_CHARGER_RECVEIVER_delivered/Libraries/XMCLib/inc\xmc_ccu4.h ****  * Any operation on the CCU4 module will have no effect after this API is called.
 839:C:/Workspaces/DAVE-4.4.2-64Bit/WIRELESS_CHARGER_RECVEIVER_delivered/Libraries/XMCLib/inc\xmc_ccu4.h ****  *
 840:C:/Workspaces/DAVE-4.4.2-64Bit/WIRELESS_CHARGER_RECVEIVER_delivered/Libraries/XMCLib/inc\xmc_ccu4.h ****  * \par<b>Related APIs:</b><br>
 841:C:/Workspaces/DAVE-4.4.2-64Bit/WIRELESS_CHARGER_RECVEIVER_delivered/Libraries/XMCLib/inc\xmc_ccu4.h ****  * XMC_CCU4_EnableModule()<BR> XMC_CCU4_DisableModule().
 842:C:/Workspaces/DAVE-4.4.2-64Bit/WIRELESS_CHARGER_RECVEIVER_delivered/Libraries/XMCLib/inc\xmc_ccu4.h ****  */
 843:C:/Workspaces/DAVE-4.4.2-64Bit/WIRELESS_CHARGER_RECVEIVER_delivered/Libraries/XMCLib/inc\xmc_ccu4.h **** void XMC_CCU4_DisableModule(XMC_CCU4_MODULE_t *const module);
 844:C:/Workspaces/DAVE-4.4.2-64Bit/WIRELESS_CHARGER_RECVEIVER_delivered/Libraries/XMCLib/inc\xmc_ccu4.h **** 
 845:C:/Workspaces/DAVE-4.4.2-64Bit/WIRELESS_CHARGER_RECVEIVER_delivered/Libraries/XMCLib/inc\xmc_ccu4.h **** /**
 846:C:/Workspaces/DAVE-4.4.2-64Bit/WIRELESS_CHARGER_RECVEIVER_delivered/Libraries/XMCLib/inc\xmc_ccu4.h ****  * @param module Constant pointer to CCU4 module
 847:C:/Workspaces/DAVE-4.4.2-64Bit/WIRELESS_CHARGER_RECVEIVER_delivered/Libraries/XMCLib/inc\xmc_ccu4.h ****  * @return <BR>
 848:C:/Workspaces/DAVE-4.4.2-64Bit/WIRELESS_CHARGER_RECVEIVER_delivered/Libraries/XMCLib/inc\xmc_ccu4.h ****  *    None<BR>
 849:C:/Workspaces/DAVE-4.4.2-64Bit/WIRELESS_CHARGER_RECVEIVER_delivered/Libraries/XMCLib/inc\xmc_ccu4.h ****  *
 850:C:/Workspaces/DAVE-4.4.2-64Bit/WIRELESS_CHARGER_RECVEIVER_delivered/Libraries/XMCLib/inc\xmc_ccu4.h ****  * \par<b>Description:</b><br>
 851:C:/Workspaces/DAVE-4.4.2-64Bit/WIRELESS_CHARGER_RECVEIVER_delivered/Libraries/XMCLib/inc\xmc_ccu4.h ****  *  Starts the prescaler and restores clocks to the timer slices, by setting GIDLC.SPRB bit.<BR>\n
 852:C:/Workspaces/DAVE-4.4.2-64Bit/WIRELESS_CHARGER_RECVEIVER_delivered/Libraries/XMCLib/inc\xmc_ccu4.h ****  *  Once the input to the prescaler has been chosen and the prescaler divider of all slices program
 853:C:/Workspaces/DAVE-4.4.2-64Bit/WIRELESS_CHARGER_RECVEIVER_delivered/Libraries/XMCLib/inc\xmc_ccu4.h ****  *  the prescaler itself may be started. Invoke this  API after XMC_CCU4_Init()
 854:C:/Workspaces/DAVE-4.4.2-64Bit/WIRELESS_CHARGER_RECVEIVER_delivered/Libraries/XMCLib/inc\xmc_ccu4.h ****  *  (Mandatory to fully initialize the module).Directly accessed register is GIDLC.
 855:C:/Workspaces/DAVE-4.4.2-64Bit/WIRELESS_CHARGER_RECVEIVER_delivered/Libraries/XMCLib/inc\xmc_ccu4.h ****  *
 856:C:/Workspaces/DAVE-4.4.2-64Bit/WIRELESS_CHARGER_RECVEIVER_delivered/Libraries/XMCLib/inc\xmc_ccu4.h ****  * \par<b>Related APIs:</b><br>
 857:C:/Workspaces/DAVE-4.4.2-64Bit/WIRELESS_CHARGER_RECVEIVER_delivered/Libraries/XMCLib/inc\xmc_ccu4.h ****  * XMC_CCU4_Init()<BR> XMC_CCU4_EnableClock()<BR> XMC_CCU4_DisableClock()<BR> XMC_CCU4_StartPrescal
 858:C:/Workspaces/DAVE-4.4.2-64Bit/WIRELESS_CHARGER_RECVEIVER_delivered/Libraries/XMCLib/inc\xmc_ccu4.h ****  * XMC_CCU4_StopPrescaler().
 859:C:/Workspaces/DAVE-4.4.2-64Bit/WIRELESS_CHARGER_RECVEIVER_delivered/Libraries/XMCLib/inc\xmc_ccu4.h ****  */
 860:C:/Workspaces/DAVE-4.4.2-64Bit/WIRELESS_CHARGER_RECVEIVER_delivered/Libraries/XMCLib/inc\xmc_ccu4.h **** __STATIC_INLINE void XMC_CCU4_StartPrescaler(XMC_CCU4_MODULE_t *const module)
 861:C:/Workspaces/DAVE-4.4.2-64Bit/WIRELESS_CHARGER_RECVEIVER_delivered/Libraries/XMCLib/inc\xmc_ccu4.h **** {
 862:C:/Workspaces/DAVE-4.4.2-64Bit/WIRELESS_CHARGER_RECVEIVER_delivered/Libraries/XMCLib/inc\xmc_ccu4.h ****   XMC_ASSERT("XMC_CCU4_StartPrescaler:Invalid Module Pointer", XMC_CCU4_IsValidModule(module));
 863:C:/Workspaces/DAVE-4.4.2-64Bit/WIRELESS_CHARGER_RECVEIVER_delivered/Libraries/XMCLib/inc\xmc_ccu4.h ****   module->GIDLC |= (uint32_t) CCU4_GIDLC_SPRB_Msk;
 157              	 .loc 2 863 0
 158 000c 8022     	 mov r2,#128
 159 000e E368     	 ldr r3,[r4,#12]
 160 0010 5200     	 lsl r2,r2,#1
 161 0012 1343     	 orr r3,r2
 162 0014 E360     	 str r3,[r4,#12]
 163              	.LBE31:
 164              	.LBE30:
 319:../Libraries/XMCLib/src/xmc_ccu4.c ****   uint32_t gctrl;
 320:../Libraries/XMCLib/src/xmc_ccu4.c ****   
 321:../Libraries/XMCLib/src/xmc_ccu4.c ****   XMC_ASSERT("XMC_CCU4_Init:Invalid module pointer", XMC_CCU4_IsValidModule(module));
 322:../Libraries/XMCLib/src/xmc_ccu4.c ****   XMC_ASSERT("XMC_CCU4_Init:Invalid mcs action", XMC_CCU4_SLICE_CHECK_MCS_ACTION(mcs_action));
 323:../Libraries/XMCLib/src/xmc_ccu4.c **** 
 324:../Libraries/XMCLib/src/xmc_ccu4.c ****   /* Enable CCU4 module */
 325:../Libraries/XMCLib/src/xmc_ccu4.c ****   XMC_CCU4_EnableModule(module);
 326:../Libraries/XMCLib/src/xmc_ccu4.c ****   /* Start the prescaler */
 327:../Libraries/XMCLib/src/xmc_ccu4.c ****   XMC_CCU4_StartPrescaler(module);
 328:../Libraries/XMCLib/src/xmc_ccu4.c ****   
 329:../Libraries/XMCLib/src/xmc_ccu4.c ****   gctrl = module->GCTRL;
 165              	 .loc 1 329 0
 166 0016 2168     	 ldr r1,[r4]
 167              	.LVL12:
 330:../Libraries/XMCLib/src/xmc_ccu4.c ****   gctrl &= ~((uint32_t) CCU4_GCTRL_MSDE_Msk);
 168              	 .loc 1 330 0
 169 0018 054B     	 ldr r3,.L15+4
 331:../Libraries/XMCLib/src/xmc_ccu4.c ****   gctrl |= ((uint32_t) mcs_action) << CCU4_GCTRL_MSDE_Pos;
 332:../Libraries/XMCLib/src/xmc_ccu4.c ****   
 333:../Libraries/XMCLib/src/xmc_ccu4.c ****   module->GCTRL = gctrl;
 334:../Libraries/XMCLib/src/xmc_ccu4.c **** }
 170              	 .loc 1 334 0
 171              	 
 330:../Libraries/XMCLib/src/xmc_ccu4.c ****   gctrl &= ~((uint32_t) CCU4_GCTRL_MSDE_Msk);
 172              	 .loc 1 330 0
 173 001a 0B40     	 and r3,r1
 174              	.LVL13:
 331:../Libraries/XMCLib/src/xmc_ccu4.c ****   gctrl |= ((uint32_t) mcs_action) << CCU4_GCTRL_MSDE_Pos;
 175              	 .loc 1 331 0
 176 001c A903     	 lsl r1,r5,#14
 177 001e 1943     	 orr r1,r3
 178              	.LVL14:
 333:../Libraries/XMCLib/src/xmc_ccu4.c **** }
 179              	 .loc 1 333 0
 180 0020 2160     	 str r1,[r4]
 181              	.LVL15:
 182              	 .loc 1 334 0
 183 0022 38BD     	 pop {r3,r4,r5,pc}
 184              	.LVL16:
 185              	.L14:
 186              	.LBB32:
 187              	.LBB28:
 188              	.LBB26:
 244:../Libraries/XMCLib/src/xmc_ccu4.c ****   }
 189              	 .loc 1 244 0
 190 0024 0420     	 mov r0,#4
 191              	.LVL17:
 192 0026 FFF7FEFF 	 bl XMC_SCU_CLOCK_UngatePeripheralClock
 193              	.LVL18:
 194 002a EFE7     	 b .L13
 195              	.L16:
 196              	 .align 2
 197              	.L15:
 198 002c 00000448 	 .word 1208221696
 199 0030 FF3FFFFF 	 .word -49153
 200              	.LBE26:
 201              	.LBE28:
 202              	.LBE32:
 203              	 .cfi_endproc
 204              	.LFE95:
 206              	 .section .text.XMC_CCU4_SetModuleClock,"ax",%progbits
 207              	 .align 2
 208              	 .global XMC_CCU4_SetModuleClock
 209              	 .code 16
 210              	 .thumb_func
 212              	XMC_CCU4_SetModuleClock:
 213              	.LFB96:
 335:../Libraries/XMCLib/src/xmc_ccu4.c **** 
 336:../Libraries/XMCLib/src/xmc_ccu4.c **** /* API to select CCU4 module clock */
 337:../Libraries/XMCLib/src/xmc_ccu4.c **** void XMC_CCU4_SetModuleClock(XMC_CCU4_MODULE_t *const module, const XMC_CCU4_CLOCK_t clock)
 338:../Libraries/XMCLib/src/xmc_ccu4.c **** {
 214              	 .loc 1 338 0
 215              	 .cfi_startproc
 216              	.LVL19:
 339:../Libraries/XMCLib/src/xmc_ccu4.c ****   uint32_t gctrl;
 340:../Libraries/XMCLib/src/xmc_ccu4.c **** 
 341:../Libraries/XMCLib/src/xmc_ccu4.c ****   XMC_ASSERT("XMC_CCU4_SetModuleClock:Invalid Module Pointer", XMC_CCU4_IsValidModule(module));
 342:../Libraries/XMCLib/src/xmc_ccu4.c ****   XMC_ASSERT("XMC_CCU4_SetModuleClock:Invalid Module Clock", XMC_CCU4_SLICE_CHECK_CLOCK(clock));
 343:../Libraries/XMCLib/src/xmc_ccu4.c **** 
 344:../Libraries/XMCLib/src/xmc_ccu4.c ****   gctrl = module->GCTRL;
 345:../Libraries/XMCLib/src/xmc_ccu4.c ****   gctrl &= ~((uint32_t) CCU4_GCTRL_PCIS_Msk);
 217              	 .loc 1 345 0
 218 0000 3022     	 mov r2,#48
 344:../Libraries/XMCLib/src/xmc_ccu4.c ****   gctrl &= ~((uint32_t) CCU4_GCTRL_PCIS_Msk);
 219              	 .loc 1 344 0
 220 0002 0368     	 ldr r3,[r0]
 221              	.LVL20:
 346:../Libraries/XMCLib/src/xmc_ccu4.c ****   gctrl |= ((uint32_t) clock) << CCU4_GCTRL_PCIS_Pos;
 222              	 .loc 1 346 0
 223 0004 0901     	 lsl r1,r1,#4
 224              	.LVL21:
 345:../Libraries/XMCLib/src/xmc_ccu4.c ****   gctrl |= ((uint32_t) clock) << CCU4_GCTRL_PCIS_Pos;
 225              	 .loc 1 345 0
 226 0006 9343     	 bic r3,r2
 227              	.LVL22:
 228              	 .loc 1 346 0
 229 0008 1943     	 orr r1,r3
 230              	.LVL23:
 347:../Libraries/XMCLib/src/xmc_ccu4.c ****   
 348:../Libraries/XMCLib/src/xmc_ccu4.c ****   module->GCTRL = gctrl;
 231              	 .loc 1 348 0
 232 000a 0160     	 str r1,[r0]
 349:../Libraries/XMCLib/src/xmc_ccu4.c **** }
 233              	 .loc 1 349 0
 234              	 
 235 000c 7047     	 bx lr
 236              	 .cfi_endproc
 237              	.LFE96:
 239 000e C046     	 .section .text.XMC_CCU4_SetMultiChannelShadowTransferMode,"ax",%progbits
 240              	 .align 2
 241              	 .global XMC_CCU4_SetMultiChannelShadowTransferMode
 242              	 .code 16
 243              	 .thumb_func
 245              	XMC_CCU4_SetMultiChannelShadowTransferMode:
 246              	.LFB97:
 350:../Libraries/XMCLib/src/xmc_ccu4.c **** 
 351:../Libraries/XMCLib/src/xmc_ccu4.c **** /* API to configure the multichannel shadow transfer request via SW and via the CCU4x.MCSS input. *
 352:../Libraries/XMCLib/src/xmc_ccu4.c **** void XMC_CCU4_SetMultiChannelShadowTransferMode(XMC_CCU4_MODULE_t *const module, const uint32_t sli
 353:../Libraries/XMCLib/src/xmc_ccu4.c **** {
 247              	 .loc 1 353 0
 248              	 .cfi_startproc
 249              	.LVL24:
 354:../Libraries/XMCLib/src/xmc_ccu4.c ****   uint32_t gctrl;
 355:../Libraries/XMCLib/src/xmc_ccu4.c **** 
 356:../Libraries/XMCLib/src/xmc_ccu4.c ****   XMC_ASSERT("XMC_CCU4_SetMultiChannelShadowTransferMode:Invalid module Pointer", XMC_CCU4_IsValidM
 357:../Libraries/XMCLib/src/xmc_ccu4.c ****   
 358:../Libraries/XMCLib/src/xmc_ccu4.c ****   gctrl = module->GCTRL;
 250              	 .loc 1 358 0
 251 0000 0368     	 ldr r3,[r0]
 252              	.LVL25:
 359:../Libraries/XMCLib/src/xmc_ccu4.c ****   gctrl &= ~((uint32_t)slice_mode_msk >> 16U);
 253              	 .loc 1 359 0
 254 0002 0A0C     	 lsr r2,r1,#16
 360:../Libraries/XMCLib/src/xmc_ccu4.c ****   gctrl |= ((uint32_t)slice_mode_msk & 0xFFFFU);
 255              	 .loc 1 360 0
 256 0004 0904     	 lsl r1,r1,#16
 257              	.LVL26:
 359:../Libraries/XMCLib/src/xmc_ccu4.c ****   gctrl &= ~((uint32_t)slice_mode_msk >> 16U);
 258              	 .loc 1 359 0
 259 0006 9343     	 bic r3,r2
 260              	.LVL27:
 261              	 .loc 1 360 0
 262 0008 090C     	 lsr r1,r1,#16
 263 000a 1943     	 orr r1,r3
 264              	.LVL28:
 361:../Libraries/XMCLib/src/xmc_ccu4.c ****   module->GCTRL = gctrl;
 265              	 .loc 1 361 0
 266 000c 0160     	 str r1,[r0]
 362:../Libraries/XMCLib/src/xmc_ccu4.c **** }
 267              	 .loc 1 362 0
 268              	 
 269 000e 7047     	 bx lr
 270              	 .cfi_endproc
 271              	.LFE97:
 273              	 .section .text.XMC_CCU4_SLICE_CompareInit,"ax",%progbits
 274              	 .align 2
 275              	 .global XMC_CCU4_SLICE_CompareInit
 276              	 .code 16
 277              	 .thumb_func
 279              	XMC_CCU4_SLICE_CompareInit:
 280              	.LFB98:
 363:../Libraries/XMCLib/src/xmc_ccu4.c **** 
 364:../Libraries/XMCLib/src/xmc_ccu4.c **** /* API to configure CC4 Slice as Timer */
 365:../Libraries/XMCLib/src/xmc_ccu4.c **** void XMC_CCU4_SLICE_CompareInit(XMC_CCU4_SLICE_t *const slice,
 366:../Libraries/XMCLib/src/xmc_ccu4.c ****                                 const XMC_CCU4_SLICE_COMPARE_CONFIG_t *const compare_init)
 367:../Libraries/XMCLib/src/xmc_ccu4.c **** {
 281              	 .loc 1 367 0
 282              	 .cfi_startproc
 283              	.LVL29:
 368:../Libraries/XMCLib/src/xmc_ccu4.c ****   XMC_ASSERT("XMC_CCU4_SLICE_CompareInit:Invalid Slice Pointer", XMC_CCU4_IsValidSlice(slice));
 369:../Libraries/XMCLib/src/xmc_ccu4.c ****   XMC_ASSERT("XMC_CCU4_SLICE_CompareInit:Compare Init Pointer is NULL",
 370:../Libraries/XMCLib/src/xmc_ccu4.c ****              (XMC_CCU4_SLICE_COMPARE_CONFIG_t *) NULL != compare_init);
 371:../Libraries/XMCLib/src/xmc_ccu4.c **** 
 372:../Libraries/XMCLib/src/xmc_ccu4.c ****   /* Program the timer mode */
 373:../Libraries/XMCLib/src/xmc_ccu4.c ****   slice->TC = compare_init->tc;
 284              	 .loc 1 373 0
 285 0000 0B68     	 ldr r3,[r1]
 374:../Libraries/XMCLib/src/xmc_ccu4.c ****   /* Enable the timer concatenation */
 375:../Libraries/XMCLib/src/xmc_ccu4.c ****   slice->CMC = ((uint32_t) compare_init->timer_concatenation << CCU4_CC4_CMC_TCE_Pos);
 376:../Libraries/XMCLib/src/xmc_ccu4.c ****   /* Program initial prescaler divider value */
 377:../Libraries/XMCLib/src/xmc_ccu4.c ****   slice->PSC = (uint32_t) compare_init->prescaler_initval;
 378:../Libraries/XMCLib/src/xmc_ccu4.c ****   /* Program the dither compare value */
 379:../Libraries/XMCLib/src/xmc_ccu4.c ****   slice->DITS = (uint32_t) compare_init->dither_limit;
 380:../Libraries/XMCLib/src/xmc_ccu4.c ****   /* Program timer output passive level */
 381:../Libraries/XMCLib/src/xmc_ccu4.c ****   slice->PSL = (uint32_t) compare_init->passive_level;
 382:../Libraries/XMCLib/src/xmc_ccu4.c ****   /* Program floating prescaler compare value */
 383:../Libraries/XMCLib/src/xmc_ccu4.c ****   slice->FPCS = (uint32_t) compare_init->float_limit;
 384:../Libraries/XMCLib/src/xmc_ccu4.c **** }
 286              	 .loc 1 384 0
 287              	 
 373:../Libraries/XMCLib/src/xmc_ccu4.c ****   /* Enable the timer concatenation */
 288              	 .loc 1 373 0
 289 0002 4361     	 str r3,[r0,#20]
 375:../Libraries/XMCLib/src/xmc_ccu4.c ****   /* Program initial prescaler divider value */
 290              	 .loc 1 375 0
 291 0004 4B79     	 ldrb r3,[r1,#5]
 292 0006 9B06     	 lsl r3,r3,#26
 293 0008 DB0F     	 lsr r3,r3,#31
 294 000a 1B05     	 lsl r3,r3,#20
 295 000c 4360     	 str r3,[r0,#4]
 377:../Libraries/XMCLib/src/xmc_ccu4.c ****   /* Program the dither compare value */
 296              	 .loc 1 377 0
 297 000e 0B79     	 ldrb r3,[r1,#4]
 298 0010 1B07     	 lsl r3,r3,#28
 299 0012 1B0F     	 lsr r3,r3,#28
 300 0014 4362     	 str r3,[r0,#36]
 379:../Libraries/XMCLib/src/xmc_ccu4.c ****   /* Program timer output passive level */
 301              	 .loc 1 379 0
 302 0016 4B79     	 ldrb r3,[r1,#5]
 303 0018 1B07     	 lsl r3,r3,#28
 304 001a 1B0F     	 lsr r3,r3,#28
 305 001c 0362     	 str r3,[r0,#32]
 381:../Libraries/XMCLib/src/xmc_ccu4.c ****   /* Program floating prescaler compare value */
 306              	 .loc 1 381 0
 307 001e 4B79     	 ldrb r3,[r1,#5]
 308 0020 DB06     	 lsl r3,r3,#27
 309 0022 DB0F     	 lsr r3,r3,#31
 310 0024 8361     	 str r3,[r0,#24]
 383:../Libraries/XMCLib/src/xmc_ccu4.c **** }
 311              	 .loc 1 383 0
 312 0026 0B79     	 ldrb r3,[r1,#4]
 313 0028 1B09     	 lsr r3,r3,#4
 314 002a C362     	 str r3,[r0,#44]
 315              	 .loc 1 384 0
 316 002c 7047     	 bx lr
 317              	 .cfi_endproc
 318              	.LFE98:
 320              	 .section .text.XMC_CCU4_SLICE_CaptureInit,"ax",%progbits
 321              	 .align 2
 322              	 .global XMC_CCU4_SLICE_CaptureInit
 323              	 .code 16
 324              	 .thumb_func
 326              	XMC_CCU4_SLICE_CaptureInit:
 327              	.LFB99:
 385:../Libraries/XMCLib/src/xmc_ccu4.c **** 
 386:../Libraries/XMCLib/src/xmc_ccu4.c **** /* API to configure CC4 Slice for Capture */
 387:../Libraries/XMCLib/src/xmc_ccu4.c **** void XMC_CCU4_SLICE_CaptureInit(XMC_CCU4_SLICE_t *const slice,
 388:../Libraries/XMCLib/src/xmc_ccu4.c ****                             const XMC_CCU4_SLICE_CAPTURE_CONFIG_t *const capture_init)
 389:../Libraries/XMCLib/src/xmc_ccu4.c **** {
 328              	 .loc 1 389 0
 329              	 .cfi_startproc
 330              	.LVL30:
 390:../Libraries/XMCLib/src/xmc_ccu4.c ****   XMC_ASSERT("XMC_CCU4_SLICE_CaptureInit:Invalid Slice Pointer", XMC_CCU4_IsValidSlice(slice));
 391:../Libraries/XMCLib/src/xmc_ccu4.c ****   XMC_ASSERT("XMC_CCU4_SLICE_CaptureInit:Capture Init Pointer is NULL",
 392:../Libraries/XMCLib/src/xmc_ccu4.c ****              (XMC_CCU4_SLICE_CAPTURE_CONFIG_t *) NULL != capture_init);
 393:../Libraries/XMCLib/src/xmc_ccu4.c **** 
 394:../Libraries/XMCLib/src/xmc_ccu4.c ****   /* Program the capture mode */
 395:../Libraries/XMCLib/src/xmc_ccu4.c ****   slice->TC = capture_init->tc;
 331              	 .loc 1 395 0
 332 0000 0B68     	 ldr r3,[r1]
 396:../Libraries/XMCLib/src/xmc_ccu4.c ****   /* Enable the timer concatenation */
 397:../Libraries/XMCLib/src/xmc_ccu4.c ****   slice->CMC = ((uint32_t)capture_init->timer_concatenation << CCU4_CC4_CMC_TCE_Pos);
 398:../Libraries/XMCLib/src/xmc_ccu4.c ****   /* Program initial prescaler divider value */
 399:../Libraries/XMCLib/src/xmc_ccu4.c ****   slice->PSC = (uint32_t) capture_init->prescaler_initval;
 400:../Libraries/XMCLib/src/xmc_ccu4.c ****   /* Program initial floating prescaler compare value */
 401:../Libraries/XMCLib/src/xmc_ccu4.c ****   slice->FPCS = (uint32_t) capture_init->float_limit;
 402:../Libraries/XMCLib/src/xmc_ccu4.c **** }
 333              	 .loc 1 402 0
 334              	 
 395:../Libraries/XMCLib/src/xmc_ccu4.c ****   /* Enable the timer concatenation */
 335              	 .loc 1 395 0
 336 0002 4361     	 str r3,[r0,#20]
 397:../Libraries/XMCLib/src/xmc_ccu4.c ****   /* Program initial prescaler divider value */
 337              	 .loc 1 397 0
 338 0004 4B79     	 ldrb r3,[r1,#5]
 339 0006 DB07     	 lsl r3,r3,#31
 340 0008 DB0F     	 lsr r3,r3,#31
 341 000a DBB2     	 uxtb r3,r3
 342 000c 1B05     	 lsl r3,r3,#20
 343 000e 4360     	 str r3,[r0,#4]
 399:../Libraries/XMCLib/src/xmc_ccu4.c ****   /* Program initial floating prescaler compare value */
 344              	 .loc 1 399 0
 345 0010 0B79     	 ldrb r3,[r1,#4]
 346 0012 1B07     	 lsl r3,r3,#28
 347 0014 1B0F     	 lsr r3,r3,#28
 348 0016 4362     	 str r3,[r0,#36]
 401:../Libraries/XMCLib/src/xmc_ccu4.c **** }
 349              	 .loc 1 401 0
 350 0018 0B79     	 ldrb r3,[r1,#4]
 351 001a 1B09     	 lsr r3,r3,#4
 352 001c C362     	 str r3,[r0,#44]
 353              	 .loc 1 402 0
 354 001e 7047     	 bx lr
 355              	 .cfi_endproc
 356              	.LFE99:
 358              	 .section .text.XMC_CCU4_SLICE_StartConfig,"ax",%progbits
 359              	 .align 2
 360              	 .global XMC_CCU4_SLICE_StartConfig
 361              	 .code 16
 362              	 .thumb_func
 364              	XMC_CCU4_SLICE_StartConfig:
 365              	.LFB100:
 403:../Libraries/XMCLib/src/xmc_ccu4.c **** 
 404:../Libraries/XMCLib/src/xmc_ccu4.c **** 
 405:../Libraries/XMCLib/src/xmc_ccu4.c **** /* API to configure the Start trigger function of a slice */
 406:../Libraries/XMCLib/src/xmc_ccu4.c **** void XMC_CCU4_SLICE_StartConfig(XMC_CCU4_SLICE_t *const slice,
 407:../Libraries/XMCLib/src/xmc_ccu4.c ****                             const XMC_CCU4_SLICE_EVENT_t event,
 408:../Libraries/XMCLib/src/xmc_ccu4.c ****                                 const XMC_CCU4_SLICE_START_MODE_t start_mode)
 409:../Libraries/XMCLib/src/xmc_ccu4.c **** {
 366              	 .loc 1 409 0
 367              	 .cfi_startproc
 368              	.LVL31:
 369 0000 10B5     	 push {r4,lr}
 370              	.LCFI3:
 371              	 .cfi_def_cfa_offset 8
 372              	 .cfi_offset 4,-8
 373              	 .cfi_offset 14,-4
 410:../Libraries/XMCLib/src/xmc_ccu4.c ****   uint32_t cmc;
 411:../Libraries/XMCLib/src/xmc_ccu4.c ****   uint32_t tc;
 412:../Libraries/XMCLib/src/xmc_ccu4.c ****   
 413:../Libraries/XMCLib/src/xmc_ccu4.c ****   XMC_ASSERT("XMC_CCU4_SLICE_StartConfig:Invalid Slice Pointer", XMC_CCU4_IsValidSlice(slice));
 414:../Libraries/XMCLib/src/xmc_ccu4.c ****   XMC_ASSERT("XMC_CCU4_SLICE_StartConfig:Invalid Event ID", XMC_CCU4_SLICE_CHECK_EVENT_ID(event));
 415:../Libraries/XMCLib/src/xmc_ccu4.c ****   XMC_ASSERT("XMC_CCU4_SLICE_StartConfig:Invalid Start Mode", 
 416:../Libraries/XMCLib/src/xmc_ccu4.c ****              ((start_mode == XMC_CCU4_SLICE_START_MODE_TIMER_START_CLEAR) ||\
 417:../Libraries/XMCLib/src/xmc_ccu4.c ****               (start_mode == XMC_CCU4_SLICE_START_MODE_TIMER_START)));
 418:../Libraries/XMCLib/src/xmc_ccu4.c ****   /* First, Bind the event with the stop function */
 419:../Libraries/XMCLib/src/xmc_ccu4.c ****   cmc = slice->CMC;
 420:../Libraries/XMCLib/src/xmc_ccu4.c ****   cmc &= ~((uint32_t) CCU4_CC4_CMC_STRTS_Msk);
 374              	 .loc 1 420 0
 375 0002 0324     	 mov r4,#3
 419:../Libraries/XMCLib/src/xmc_ccu4.c ****   cmc &= ~((uint32_t) CCU4_CC4_CMC_STRTS_Msk);
 376              	 .loc 1 419 0
 377 0004 4368     	 ldr r3,[r0,#4]
 378              	.LVL32:
 379              	 .loc 1 420 0
 380 0006 A343     	 bic r3,r4
 381              	.LVL33:
 421:../Libraries/XMCLib/src/xmc_ccu4.c ****   cmc |= ((uint32_t) event) << CCU4_CC4_CMC_STRTS_Pos;
 382              	 .loc 1 421 0
 383 0008 1943     	 orr r1,r3
 384              	.LVL34:
 422:../Libraries/XMCLib/src/xmc_ccu4.c **** 
 423:../Libraries/XMCLib/src/xmc_ccu4.c ****   slice->CMC = cmc;
 385              	 .loc 1 423 0
 386 000a 4160     	 str r1,[r0,#4]
 424:../Libraries/XMCLib/src/xmc_ccu4.c ****   
 425:../Libraries/XMCLib/src/xmc_ccu4.c ****   tc  = slice->TC;
 387              	 .loc 1 425 0
 388 000c 4369     	 ldr r3,[r0,#20]
 389              	.LVL35:
 426:../Libraries/XMCLib/src/xmc_ccu4.c ****   /* Next, Configure the start mode */
 427:../Libraries/XMCLib/src/xmc_ccu4.c ****   if (start_mode == XMC_CCU4_SLICE_START_MODE_TIMER_START_CLEAR)
 390              	 .loc 1 427 0
 391 000e 012A     	 cmp r2,#1
 392 0010 03D0     	 beq .L24
 428:../Libraries/XMCLib/src/xmc_ccu4.c ****   {
 429:../Libraries/XMCLib/src/xmc_ccu4.c ****     tc |= (uint32_t)CCU4_CC4_TC_STRM_Msk;
 430:../Libraries/XMCLib/src/xmc_ccu4.c ****   }
 431:../Libraries/XMCLib/src/xmc_ccu4.c ****   else
 432:../Libraries/XMCLib/src/xmc_ccu4.c ****   {
 433:../Libraries/XMCLib/src/xmc_ccu4.c ****     tc &= ~((uint32_t)CCU4_CC4_TC_STRM_Msk);
 393              	 .loc 1 433 0
 394 0012 044A     	 ldr r2,.L25
 395              	.LVL36:
 396 0014 1340     	 and r3,r2
 397              	.LVL37:
 398              	.L23:
 434:../Libraries/XMCLib/src/xmc_ccu4.c ****   }
 435:../Libraries/XMCLib/src/xmc_ccu4.c ****   
 436:../Libraries/XMCLib/src/xmc_ccu4.c ****   slice->TC = tc;
 399              	 .loc 1 436 0
 400 0016 4361     	 str r3,[r0,#20]
 437:../Libraries/XMCLib/src/xmc_ccu4.c **** }
 401              	 .loc 1 437 0
 402              	 
 403 0018 10BD     	 pop {r4,pc}
 404              	.LVL38:
 405              	.L24:
 429:../Libraries/XMCLib/src/xmc_ccu4.c ****   }
 406              	 .loc 1 429 0
 407 001a 8022     	 mov r2,#128
 408              	.LVL39:
 409 001c D200     	 lsl r2,r2,#3
 410 001e 1343     	 orr r3,r2
 411              	.LVL40:
 412 0020 F9E7     	 b .L23
 413              	.L26:
 414 0022 C046     	 .align 2
 415              	.L25:
 416 0024 FFFBFFFF 	 .word -1025
 417              	 .cfi_endproc
 418              	.LFE100:
 420              	 .section .text.XMC_CCU4_SLICE_StopConfig,"ax",%progbits
 421              	 .align 2
 422              	 .global XMC_CCU4_SLICE_StopConfig
 423              	 .code 16
 424              	 .thumb_func
 426              	XMC_CCU4_SLICE_StopConfig:
 427              	.LFB101:
 438:../Libraries/XMCLib/src/xmc_ccu4.c **** 
 439:../Libraries/XMCLib/src/xmc_ccu4.c **** /* API to configure the Stop trigger function of a slice */
 440:../Libraries/XMCLib/src/xmc_ccu4.c **** void XMC_CCU4_SLICE_StopConfig(XMC_CCU4_SLICE_t *const slice,
 441:../Libraries/XMCLib/src/xmc_ccu4.c ****                            const XMC_CCU4_SLICE_EVENT_t event,
 442:../Libraries/XMCLib/src/xmc_ccu4.c ****                                const XMC_CCU4_SLICE_END_MODE_t end_mode)
 443:../Libraries/XMCLib/src/xmc_ccu4.c **** {
 428              	 .loc 1 443 0
 429              	 .cfi_startproc
 430              	.LVL41:
 431 0000 10B5     	 push {r4,lr}
 432              	.LCFI4:
 433              	 .cfi_def_cfa_offset 8
 434              	 .cfi_offset 4,-8
 435              	 .cfi_offset 14,-4
 444:../Libraries/XMCLib/src/xmc_ccu4.c ****   uint32_t cmc;
 445:../Libraries/XMCLib/src/xmc_ccu4.c ****   uint32_t tc;
 446:../Libraries/XMCLib/src/xmc_ccu4.c ****   
 447:../Libraries/XMCLib/src/xmc_ccu4.c ****   XMC_ASSERT("XMC_CCU4_SLICE_StopConfig:Invalid Slice Pointer", XMC_CCU4_IsValidSlice(slice));
 448:../Libraries/XMCLib/src/xmc_ccu4.c ****   XMC_ASSERT("XMC_CCU4_SLICE_StopConfig:Invalid Event ID", XMC_CCU4_SLICE_CHECK_EVENT_ID(event));
 449:../Libraries/XMCLib/src/xmc_ccu4.c ****   XMC_ASSERT("XMC_CCU4_SLICE_StopConfig:Invalid Start Mode", XMC_CCU4_CHECK_END_MODE(end_mode));
 450:../Libraries/XMCLib/src/xmc_ccu4.c ****   
 451:../Libraries/XMCLib/src/xmc_ccu4.c ****   /* First, Bind the event with the stop function */
 452:../Libraries/XMCLib/src/xmc_ccu4.c ****   cmc = slice->CMC;
 453:../Libraries/XMCLib/src/xmc_ccu4.c ****   cmc &= ~((uint32_t) CCU4_CC4_CMC_ENDS_Msk);
 436              	 .loc 1 453 0
 437 0002 0C24     	 mov r4,#12
 452:../Libraries/XMCLib/src/xmc_ccu4.c ****   cmc &= ~((uint32_t) CCU4_CC4_CMC_ENDS_Msk);
 438              	 .loc 1 452 0
 439 0004 4368     	 ldr r3,[r0,#4]
 440              	.LVL42:
 454:../Libraries/XMCLib/src/xmc_ccu4.c ****   cmc |= ((uint32_t) event) << CCU4_CC4_CMC_ENDS_Pos;
 441              	 .loc 1 454 0
 442 0006 8900     	 lsl r1,r1,#2
 443              	.LVL43:
 453:../Libraries/XMCLib/src/xmc_ccu4.c ****   cmc |= ((uint32_t) event) << CCU4_CC4_CMC_ENDS_Pos;
 444              	 .loc 1 453 0
 445 0008 A343     	 bic r3,r4
 446              	.LVL44:
 447              	 .loc 1 454 0
 448 000a 1943     	 orr r1,r3
 449              	.LVL45:
 455:../Libraries/XMCLib/src/xmc_ccu4.c **** 
 456:../Libraries/XMCLib/src/xmc_ccu4.c ****   slice->CMC = cmc;
 450              	 .loc 1 456 0
 451 000c 4160     	 str r1,[r0,#4]
 457:../Libraries/XMCLib/src/xmc_ccu4.c ****   
 458:../Libraries/XMCLib/src/xmc_ccu4.c ****   /* Next, Configure the stop mode */
 459:../Libraries/XMCLib/src/xmc_ccu4.c ****   tc = slice->TC;
 452              	 .loc 1 459 0
 453 000e 4169     	 ldr r1,[r0,#20]
 454              	.LVL46:
 460:../Libraries/XMCLib/src/xmc_ccu4.c ****   tc &= ~((uint32_t) CCU4_CC4_TC_ENDM_Msk);
 455              	 .loc 1 460 0
 456 0010 024B     	 ldr r3,.L28
 461:../Libraries/XMCLib/src/xmc_ccu4.c ****   tc |= ((uint32_t) end_mode) << CCU4_CC4_TC_ENDM_Pos;
 457              	 .loc 1 461 0
 458 0012 1202     	 lsl r2,r2,#8
 459              	.LVL47:
 460:../Libraries/XMCLib/src/xmc_ccu4.c ****   tc &= ~((uint32_t) CCU4_CC4_TC_ENDM_Msk);
 460              	 .loc 1 460 0
 461 0014 0B40     	 and r3,r1
 462              	.LVL48:
 463              	 .loc 1 461 0
 464 0016 1A43     	 orr r2,r3
 465              	.LVL49:
 462:../Libraries/XMCLib/src/xmc_ccu4.c **** 
 463:../Libraries/XMCLib/src/xmc_ccu4.c ****   slice->TC = tc;
 466              	 .loc 1 463 0
 467 0018 4261     	 str r2,[r0,#20]
 468              	.LVL50:
 464:../Libraries/XMCLib/src/xmc_ccu4.c **** }
 469              	 .loc 1 464 0
 470              	 
 471 001a 10BD     	 pop {r4,pc}
 472              	.L29:
 473              	 .align 2
 474              	.L28:
 475 001c FFFCFFFF 	 .word -769
 476              	 .cfi_endproc
 477              	.LFE101:
 479              	 .section .text.XMC_CCU4_SLICE_LoadConfig,"ax",%progbits
 480              	 .align 2
 481              	 .global XMC_CCU4_SLICE_LoadConfig
 482              	 .code 16
 483              	 .thumb_func
 485              	XMC_CCU4_SLICE_LoadConfig:
 486              	.LFB102:
 465:../Libraries/XMCLib/src/xmc_ccu4.c **** 
 466:../Libraries/XMCLib/src/xmc_ccu4.c **** /* API to configure the Load trigger function of a slice */
 467:../Libraries/XMCLib/src/xmc_ccu4.c **** void XMC_CCU4_SLICE_LoadConfig(XMC_CCU4_SLICE_t *const slice, const XMC_CCU4_SLICE_EVENT_t event)
 468:../Libraries/XMCLib/src/xmc_ccu4.c **** {
 487              	 .loc 1 468 0
 488              	 .cfi_startproc
 489              	.LVL51:
 469:../Libraries/XMCLib/src/xmc_ccu4.c ****   uint32_t cmc;
 470:../Libraries/XMCLib/src/xmc_ccu4.c ****   
 471:../Libraries/XMCLib/src/xmc_ccu4.c ****   XMC_ASSERT("XMC_CCU4_SLICE_LoadConfig:Invalid Slice Pointer", XMC_CCU4_IsValidSlice(slice));
 472:../Libraries/XMCLib/src/xmc_ccu4.c ****   XMC_ASSERT("XMC_CCU4_SLICE_LoadConfig:Invalid Event ID", XMC_CCU4_SLICE_CHECK_EVENT_ID(event));
 473:../Libraries/XMCLib/src/xmc_ccu4.c ****   
 474:../Libraries/XMCLib/src/xmc_ccu4.c ****   /* Bind the event with the load function */
 475:../Libraries/XMCLib/src/xmc_ccu4.c ****   cmc = slice->CMC;
 490              	 .loc 1 475 0
 491 0000 4268     	 ldr r2,[r0,#4]
 492              	.LVL52:
 476:../Libraries/XMCLib/src/xmc_ccu4.c ****   cmc &= ~((uint32_t) CCU4_CC4_CMC_LDS_Msk);
 493              	 .loc 1 476 0
 494 0002 034B     	 ldr r3,.L31
 477:../Libraries/XMCLib/src/xmc_ccu4.c ****   cmc |= ((uint32_t) event) << CCU4_CC4_CMC_LDS_Pos;
 495              	 .loc 1 477 0
 496 0004 0903     	 lsl r1,r1,#12
 497              	.LVL53:
 476:../Libraries/XMCLib/src/xmc_ccu4.c ****   cmc &= ~((uint32_t) CCU4_CC4_CMC_LDS_Msk);
 498              	 .loc 1 476 0
 499 0006 1340     	 and r3,r2
 500              	.LVL54:
 501              	 .loc 1 477 0
 502 0008 1943     	 orr r1,r3
 503              	.LVL55:
 478:../Libraries/XMCLib/src/xmc_ccu4.c **** 
 479:../Libraries/XMCLib/src/xmc_ccu4.c ****   slice->CMC = cmc;
 504              	 .loc 1 479 0
 505 000a 4160     	 str r1,[r0,#4]
 480:../Libraries/XMCLib/src/xmc_ccu4.c **** }
 506              	 .loc 1 480 0
 507              	 
 508 000c 7047     	 bx lr
 509              	.L32:
 510 000e C046     	 .align 2
 511              	.L31:
 512 0010 FFCFFFFF 	 .word -12289
 513              	 .cfi_endproc
 514              	.LFE102:
 516              	 .section .text.XMC_CCU4_SLICE_ModulationConfig,"ax",%progbits
 517              	 .align 2
 518              	 .global XMC_CCU4_SLICE_ModulationConfig
 519              	 .code 16
 520              	 .thumb_func
 522              	XMC_CCU4_SLICE_ModulationConfig:
 523              	.LFB103:
 481:../Libraries/XMCLib/src/xmc_ccu4.c **** 
 482:../Libraries/XMCLib/src/xmc_ccu4.c **** /* API to configure the slice modulation function */
 483:../Libraries/XMCLib/src/xmc_ccu4.c **** void XMC_CCU4_SLICE_ModulationConfig(XMC_CCU4_SLICE_t *const slice,
 484:../Libraries/XMCLib/src/xmc_ccu4.c ****                                      const XMC_CCU4_SLICE_EVENT_t event,
 485:../Libraries/XMCLib/src/xmc_ccu4.c ****                                      const XMC_CCU4_SLICE_MODULATION_MODE_t mod_mode,
 486:../Libraries/XMCLib/src/xmc_ccu4.c ****                                      const bool synch_with_pwm)
 487:../Libraries/XMCLib/src/xmc_ccu4.c **** {
 524              	 .loc 1 487 0
 525              	 .cfi_startproc
 526              	.LVL56:
 527 0000 70B5     	 push {r4,r5,r6,lr}
 528              	.LCFI5:
 529              	 .cfi_def_cfa_offset 16
 530              	 .cfi_offset 4,-16
 531              	 .cfi_offset 5,-12
 532              	 .cfi_offset 6,-8
 533              	 .cfi_offset 14,-4
 488:../Libraries/XMCLib/src/xmc_ccu4.c ****   uint32_t cmc;
 489:../Libraries/XMCLib/src/xmc_ccu4.c ****   uint32_t tc;
 490:../Libraries/XMCLib/src/xmc_ccu4.c ****   
 491:../Libraries/XMCLib/src/xmc_ccu4.c ****   XMC_ASSERT("XMC_CCU4_SLICE_ModulationConfig:Invalid Slice Pointer", XMC_CCU4_IsValidSlice(slice))
 492:../Libraries/XMCLib/src/xmc_ccu4.c ****   XMC_ASSERT("XMC_CCU4_SLICE_ModulationConfig:Invalid Event ID", XMC_CCU4_SLICE_CHECK_EVENT_ID(even
 493:../Libraries/XMCLib/src/xmc_ccu4.c ****   XMC_ASSERT("XMC_CCU4_SLICE_ModulationConfig:Invalid Modulation Mode",
 494:../Libraries/XMCLib/src/xmc_ccu4.c ****              ((mod_mode == XMC_CCU4_SLICE_MODULATION_MODE_CLEAR_OUT) ||\
 495:../Libraries/XMCLib/src/xmc_ccu4.c ****               (mod_mode == XMC_CCU4_SLICE_MODULATION_MODE_CLEAR_ST_OUT)));
 496:../Libraries/XMCLib/src/xmc_ccu4.c ****   
 497:../Libraries/XMCLib/src/xmc_ccu4.c ****   tc  = slice->TC;
 534              	 .loc 1 497 0
 535 0002 4469     	 ldr r4,[r0,#20]
 536              	.LVL57:
 498:../Libraries/XMCLib/src/xmc_ccu4.c ****   cmc = slice->CMC;
 499:../Libraries/XMCLib/src/xmc_ccu4.c ****   
 500:../Libraries/XMCLib/src/xmc_ccu4.c ****   /* First, Bind the event with the modulation function */
 501:../Libraries/XMCLib/src/xmc_ccu4.c ****   cmc &= ~((uint32_t) CCU4_CC4_CMC_MOS_Msk);
 537              	 .loc 1 501 0
 538 0004 0B4D     	 ldr r5,.L40
 498:../Libraries/XMCLib/src/xmc_ccu4.c ****   cmc = slice->CMC;
 539              	 .loc 1 498 0
 540 0006 4668     	 ldr r6,[r0,#4]
 541              	.LVL58:
 502:../Libraries/XMCLib/src/xmc_ccu4.c ****   cmc |= ((uint32_t) event) << CCU4_CC4_CMC_MOS_Pos;
 542              	 .loc 1 502 0
 543 0008 8904     	 lsl r1,r1,#18
 544              	.LVL59:
 501:../Libraries/XMCLib/src/xmc_ccu4.c ****   cmc |= ((uint32_t) event) << CCU4_CC4_CMC_MOS_Pos;
 545              	 .loc 1 501 0
 546 000a 3540     	 and r5,r6
 547              	.LVL60:
 548              	 .loc 1 502 0
 549 000c 2943     	 orr r1,r5
 550              	.LVL61:
 503:../Libraries/XMCLib/src/xmc_ccu4.c ****   slice->CMC = cmc;
 551              	 .loc 1 503 0
 552 000e 4160     	 str r1,[r0,#4]
 504:../Libraries/XMCLib/src/xmc_ccu4.c ****   
 505:../Libraries/XMCLib/src/xmc_ccu4.c ****   /* Next, Modulation mode */
 506:../Libraries/XMCLib/src/xmc_ccu4.c ****   if (mod_mode == XMC_CCU4_SLICE_MODULATION_MODE_CLEAR_OUT)
 553              	 .loc 1 506 0
 554 0010 012A     	 cmp r2,#1
 555 0012 0BD0     	 beq .L38
 507:../Libraries/XMCLib/src/xmc_ccu4.c ****   {
 508:../Libraries/XMCLib/src/xmc_ccu4.c ****     tc |= (uint32_t) CCU4_CC4_TC_EMT_Msk;
 509:../Libraries/XMCLib/src/xmc_ccu4.c ****   }
 510:../Libraries/XMCLib/src/xmc_ccu4.c ****   else
 511:../Libraries/XMCLib/src/xmc_ccu4.c ****   {
 512:../Libraries/XMCLib/src/xmc_ccu4.c ****     tc &= ~((uint32_t) CCU4_CC4_TC_EMT_Msk);
 556              	 .loc 1 512 0
 557 0014 084A     	 ldr r2,.L40+4
 558              	.LVL62:
 559 0016 2240     	 and r2,r4
 560              	.LVL63:
 561              	.L35:
 513:../Libraries/XMCLib/src/xmc_ccu4.c ****   }
 514:../Libraries/XMCLib/src/xmc_ccu4.c **** 
 515:../Libraries/XMCLib/src/xmc_ccu4.c ****   /* Synchronization of modulation effect with PWM cycle */
 516:../Libraries/XMCLib/src/xmc_ccu4.c ****   if (synch_with_pwm == (bool) true)
 562              	 .loc 1 516 0
 563 0018 002B     	 cmp r3,#0
 564 001a 03D1     	 bne .L39
 517:../Libraries/XMCLib/src/xmc_ccu4.c ****   {
 518:../Libraries/XMCLib/src/xmc_ccu4.c ****     tc |= (uint32_t) CCU4_CC4_TC_EMS_Msk;
 519:../Libraries/XMCLib/src/xmc_ccu4.c ****   }
 520:../Libraries/XMCLib/src/xmc_ccu4.c ****   else
 521:../Libraries/XMCLib/src/xmc_ccu4.c ****   {
 522:../Libraries/XMCLib/src/xmc_ccu4.c ****     tc &= ~((uint32_t) CCU4_CC4_TC_EMS_Msk);
 565              	 .loc 1 522 0
 566 001c 074B     	 ldr r3,.L40+8
 567              	.LVL64:
 568 001e 1340     	 and r3,r2
 569              	.LVL65:
 570              	.L37:
 523:../Libraries/XMCLib/src/xmc_ccu4.c ****   }
 524:../Libraries/XMCLib/src/xmc_ccu4.c ****   
 525:../Libraries/XMCLib/src/xmc_ccu4.c ****   slice->TC = tc;
 571              	 .loc 1 525 0
 572 0020 4361     	 str r3,[r0,#20]
 526:../Libraries/XMCLib/src/xmc_ccu4.c **** }
 573              	 .loc 1 526 0
 574              	 
 575 0022 70BD     	 pop {r4,r5,r6,pc}
 576              	.LVL66:
 577              	.L39:
 518:../Libraries/XMCLib/src/xmc_ccu4.c ****   }
 578              	 .loc 1 518 0
 579 0024 8023     	 mov r3,#128
 580              	.LVL67:
 581 0026 1B04     	 lsl r3,r3,#16
 582 0028 1343     	 orr r3,r2
 583              	.LVL68:
 584 002a F9E7     	 b .L37
 585              	.LVL69:
 586              	.L38:
 508:../Libraries/XMCLib/src/xmc_ccu4.c ****   }
 587              	 .loc 1 508 0
 588 002c 8022     	 mov r2,#128
 589              	.LVL70:
 590 002e 5204     	 lsl r2,r2,#17
 591 0030 2243     	 orr r2,r4
 592              	.LVL71:
 593 0032 F1E7     	 b .L35
 594              	.L41:
 595              	 .align 2
 596              	.L40:
 597 0034 FFFFF3FF 	 .word -786433
 598 0038 FFFFFFFE 	 .word -16777217
 599 003c FFFF7FFF 	 .word -8388609
 600              	 .cfi_endproc
 601              	.LFE103:
 603              	 .section .text.XMC_CCU4_SLICE_CountConfig,"ax",%progbits
 604              	 .align 2
 605              	 .global XMC_CCU4_SLICE_CountConfig
 606              	 .code 16
 607              	 .thumb_func
 609              	XMC_CCU4_SLICE_CountConfig:
 610              	.LFB104:
 527:../Libraries/XMCLib/src/xmc_ccu4.c **** 
 528:../Libraries/XMCLib/src/xmc_ccu4.c **** /* API to configure the slice count function */
 529:../Libraries/XMCLib/src/xmc_ccu4.c **** void XMC_CCU4_SLICE_CountConfig(XMC_CCU4_SLICE_t *const slice, const XMC_CCU4_SLICE_EVENT_t event)
 530:../Libraries/XMCLib/src/xmc_ccu4.c **** {
 611              	 .loc 1 530 0
 612              	 .cfi_startproc
 613              	.LVL72:
 531:../Libraries/XMCLib/src/xmc_ccu4.c ****   uint32_t cmc;
 532:../Libraries/XMCLib/src/xmc_ccu4.c ****   
 533:../Libraries/XMCLib/src/xmc_ccu4.c ****   XMC_ASSERT("XMC_CCU4_SLICE_CountConfig:Invalid Slice Pointer", XMC_CCU4_IsValidSlice(slice));
 534:../Libraries/XMCLib/src/xmc_ccu4.c ****   XMC_ASSERT("XMC_CCU4_SLICE_CountConfig:Invalid Event ID", XMC_CCU4_SLICE_CHECK_EVENT_ID(event));
 535:../Libraries/XMCLib/src/xmc_ccu4.c **** 
 536:../Libraries/XMCLib/src/xmc_ccu4.c ****   /* Bind the event with the count function */
 537:../Libraries/XMCLib/src/xmc_ccu4.c ****   cmc = slice->CMC;
 614              	 .loc 1 537 0
 615 0000 4268     	 ldr r2,[r0,#4]
 616              	.LVL73:
 538:../Libraries/XMCLib/src/xmc_ccu4.c ****   cmc &= ~((uint32_t) CCU4_CC4_CMC_CNTS_Msk);
 617              	 .loc 1 538 0
 618 0002 034B     	 ldr r3,.L43
 539:../Libraries/XMCLib/src/xmc_ccu4.c ****   cmc |= ((uint32_t) event) << CCU4_CC4_CMC_CNTS_Pos;
 619              	 .loc 1 539 0
 620 0004 8903     	 lsl r1,r1,#14
 621              	.LVL74:
 538:../Libraries/XMCLib/src/xmc_ccu4.c ****   cmc &= ~((uint32_t) CCU4_CC4_CMC_CNTS_Msk);
 622              	 .loc 1 538 0
 623 0006 1340     	 and r3,r2
 624              	.LVL75:
 625              	 .loc 1 539 0
 626 0008 1943     	 orr r1,r3
 627              	.LVL76:
 540:../Libraries/XMCLib/src/xmc_ccu4.c **** 
 541:../Libraries/XMCLib/src/xmc_ccu4.c ****   slice->CMC = cmc;
 628              	 .loc 1 541 0
 629 000a 4160     	 str r1,[r0,#4]
 542:../Libraries/XMCLib/src/xmc_ccu4.c **** }
 630              	 .loc 1 542 0
 631              	 
 632 000c 7047     	 bx lr
 633              	.L44:
 634 000e C046     	 .align 2
 635              	.L43:
 636 0010 FF3FFFFF 	 .word -49153
 637              	 .cfi_endproc
 638              	.LFE104:
 640              	 .section .text.XMC_CCU4_SLICE_GateConfig,"ax",%progbits
 641              	 .align 2
 642              	 .global XMC_CCU4_SLICE_GateConfig
 643              	 .code 16
 644              	 .thumb_func
 646              	XMC_CCU4_SLICE_GateConfig:
 647              	.LFB105:
 543:../Libraries/XMCLib/src/xmc_ccu4.c **** 
 544:../Libraries/XMCLib/src/xmc_ccu4.c **** /* API to configure slice gate function */
 545:../Libraries/XMCLib/src/xmc_ccu4.c **** void XMC_CCU4_SLICE_GateConfig(XMC_CCU4_SLICE_t *const slice, const XMC_CCU4_SLICE_EVENT_t event)
 546:../Libraries/XMCLib/src/xmc_ccu4.c **** {
 648              	 .loc 1 546 0
 649              	 .cfi_startproc
 650              	.LVL77:
 547:../Libraries/XMCLib/src/xmc_ccu4.c ****   uint32_t cmc;
 548:../Libraries/XMCLib/src/xmc_ccu4.c ****   
 549:../Libraries/XMCLib/src/xmc_ccu4.c ****   XMC_ASSERT("XMC_CCU4_SLICE_GateConfig:Invalid Slice Pointer", XMC_CCU4_IsValidSlice(slice));
 550:../Libraries/XMCLib/src/xmc_ccu4.c ****   XMC_ASSERT("XMC_CCU4_SLICE_GateConfig:Invalid Event ID", XMC_CCU4_SLICE_CHECK_EVENT_ID(event));
 551:../Libraries/XMCLib/src/xmc_ccu4.c ****   
 552:../Libraries/XMCLib/src/xmc_ccu4.c ****   /* Bind the event with the gate function */
 553:../Libraries/XMCLib/src/xmc_ccu4.c ****   cmc = slice->CMC;
 651              	 .loc 1 553 0
 652 0000 4268     	 ldr r2,[r0,#4]
 653              	.LVL78:
 554:../Libraries/XMCLib/src/xmc_ccu4.c ****   cmc &= ~((uint32_t) CCU4_CC4_CMC_GATES_Msk);
 654              	 .loc 1 554 0
 655 0002 034B     	 ldr r3,.L46
 555:../Libraries/XMCLib/src/xmc_ccu4.c ****   cmc |= ((uint32_t) event) << CCU4_CC4_CMC_GATES_Pos;
 656              	 .loc 1 555 0
 657 0004 0902     	 lsl r1,r1,#8
 658              	.LVL79:
 554:../Libraries/XMCLib/src/xmc_ccu4.c ****   cmc &= ~((uint32_t) CCU4_CC4_CMC_GATES_Msk);
 659              	 .loc 1 554 0
 660 0006 1340     	 and r3,r2
 661              	.LVL80:
 662              	 .loc 1 555 0
 663 0008 1943     	 orr r1,r3
 664              	.LVL81:
 556:../Libraries/XMCLib/src/xmc_ccu4.c **** 
 557:../Libraries/XMCLib/src/xmc_ccu4.c ****   slice->CMC = cmc;
 665              	 .loc 1 557 0
 666 000a 4160     	 str r1,[r0,#4]
 558:../Libraries/XMCLib/src/xmc_ccu4.c **** }
 667              	 .loc 1 558 0
 668              	 
 669 000c 7047     	 bx lr
 670              	.L47:
 671 000e C046     	 .align 2
 672              	.L46:
 673 0010 FFFCFFFF 	 .word -769
 674              	 .cfi_endproc
 675              	.LFE105:
 677              	 .section .text.XMC_CCU4_SLICE_Capture0Config,"ax",%progbits
 678              	 .align 2
 679              	 .global XMC_CCU4_SLICE_Capture0Config
 680              	 .code 16
 681              	 .thumb_func
 683              	XMC_CCU4_SLICE_Capture0Config:
 684              	.LFB106:
 559:../Libraries/XMCLib/src/xmc_ccu4.c **** 
 560:../Libraries/XMCLib/src/xmc_ccu4.c **** /* API to configure Capture-0 function */
 561:../Libraries/XMCLib/src/xmc_ccu4.c **** void XMC_CCU4_SLICE_Capture0Config(XMC_CCU4_SLICE_t *const slice, const XMC_CCU4_SLICE_EVENT_t even
 562:../Libraries/XMCLib/src/xmc_ccu4.c **** {
 685              	 .loc 1 562 0
 686              	 .cfi_startproc
 687              	.LVL82:
 563:../Libraries/XMCLib/src/xmc_ccu4.c ****   uint32_t cmc;
 564:../Libraries/XMCLib/src/xmc_ccu4.c ****   
 565:../Libraries/XMCLib/src/xmc_ccu4.c ****   XMC_ASSERT("XMC_CCU4_SLICE_Capture0Config:Invalid Slice Pointer", XMC_CCU4_IsValidSlice(slice));
 566:../Libraries/XMCLib/src/xmc_ccu4.c ****   XMC_ASSERT("XMC_CCU4_SLICE_Capture0Config:Invalid Event ID", XMC_CCU4_SLICE_CHECK_EVENT_ID(event)
 567:../Libraries/XMCLib/src/xmc_ccu4.c ****   
 568:../Libraries/XMCLib/src/xmc_ccu4.c ****   /* Bind the event with the gate function */
 569:../Libraries/XMCLib/src/xmc_ccu4.c ****   cmc = slice->CMC;
 570:../Libraries/XMCLib/src/xmc_ccu4.c ****   cmc &= ~((uint32_t) CCU4_CC4_CMC_CAP0S_Msk);
 688              	 .loc 1 570 0
 689 0000 3022     	 mov r2,#48
 569:../Libraries/XMCLib/src/xmc_ccu4.c ****   cmc &= ~((uint32_t) CCU4_CC4_CMC_CAP0S_Msk);
 690              	 .loc 1 569 0
 691 0002 4368     	 ldr r3,[r0,#4]
 692              	.LVL83:
 571:../Libraries/XMCLib/src/xmc_ccu4.c ****   cmc |= ((uint32_t) event) << CCU4_CC4_CMC_CAP0S_Pos;
 693              	 .loc 1 571 0
 694 0004 0901     	 lsl r1,r1,#4
 695              	.LVL84:
 570:../Libraries/XMCLib/src/xmc_ccu4.c ****   cmc |= ((uint32_t) event) << CCU4_CC4_CMC_CAP0S_Pos;
 696              	 .loc 1 570 0
 697 0006 9343     	 bic r3,r2
 698              	.LVL85:
 699              	 .loc 1 571 0
 700 0008 1943     	 orr r1,r3
 701              	.LVL86:
 572:../Libraries/XMCLib/src/xmc_ccu4.c **** 
 573:../Libraries/XMCLib/src/xmc_ccu4.c ****   slice->CMC = cmc;
 702              	 .loc 1 573 0
 703 000a 4160     	 str r1,[r0,#4]
 574:../Libraries/XMCLib/src/xmc_ccu4.c **** }
 704              	 .loc 1 574 0
 705              	 
 706 000c 7047     	 bx lr
 707              	 .cfi_endproc
 708              	.LFE106:
 710 000e C046     	 .section .text.XMC_CCU4_SLICE_Capture1Config,"ax",%progbits
 711              	 .align 2
 712              	 .global XMC_CCU4_SLICE_Capture1Config
 713              	 .code 16
 714              	 .thumb_func
 716              	XMC_CCU4_SLICE_Capture1Config:
 717              	.LFB107:
 575:../Libraries/XMCLib/src/xmc_ccu4.c **** 
 576:../Libraries/XMCLib/src/xmc_ccu4.c **** /* API to configure Capture-1 function */
 577:../Libraries/XMCLib/src/xmc_ccu4.c **** void XMC_CCU4_SLICE_Capture1Config(XMC_CCU4_SLICE_t *const slice, const XMC_CCU4_SLICE_EVENT_t even
 578:../Libraries/XMCLib/src/xmc_ccu4.c **** {
 718              	 .loc 1 578 0
 719              	 .cfi_startproc
 720              	.LVL87:
 579:../Libraries/XMCLib/src/xmc_ccu4.c ****   uint32_t cmc;
 580:../Libraries/XMCLib/src/xmc_ccu4.c ****   
 581:../Libraries/XMCLib/src/xmc_ccu4.c ****   XMC_ASSERT("XMC_CCU4_SLICE_Capture1Config:Invalid Slice Pointer", XMC_CCU4_IsValidSlice(slice));
 582:../Libraries/XMCLib/src/xmc_ccu4.c ****   XMC_ASSERT("XMC_CCU4_SLICE_Capture1Config:Invalid Event ID", XMC_CCU4_SLICE_CHECK_EVENT_ID(event)
 583:../Libraries/XMCLib/src/xmc_ccu4.c ****   
 584:../Libraries/XMCLib/src/xmc_ccu4.c ****   /* Bind the event with the gate function */
 585:../Libraries/XMCLib/src/xmc_ccu4.c ****   cmc = slice->CMC;
 586:../Libraries/XMCLib/src/xmc_ccu4.c ****   cmc &= ~((uint32_t) CCU4_CC4_CMC_CAP1S_Msk);
 721              	 .loc 1 586 0
 722 0000 C022     	 mov r2,#192
 585:../Libraries/XMCLib/src/xmc_ccu4.c ****   cmc &= ~((uint32_t) CCU4_CC4_CMC_CAP1S_Msk);
 723              	 .loc 1 585 0
 724 0002 4368     	 ldr r3,[r0,#4]
 725              	.LVL88:
 587:../Libraries/XMCLib/src/xmc_ccu4.c ****   cmc |= ((uint32_t) event) << CCU4_CC4_CMC_CAP1S_Pos;
 726              	 .loc 1 587 0
 727 0004 8901     	 lsl r1,r1,#6
 728              	.LVL89:
 586:../Libraries/XMCLib/src/xmc_ccu4.c ****   cmc |= ((uint32_t) event) << CCU4_CC4_CMC_CAP1S_Pos;
 729              	 .loc 1 586 0
 730 0006 9343     	 bic r3,r2
 731              	.LVL90:
 732              	 .loc 1 587 0
 733 0008 1943     	 orr r1,r3
 734              	.LVL91:
 588:../Libraries/XMCLib/src/xmc_ccu4.c **** 
 589:../Libraries/XMCLib/src/xmc_ccu4.c ****   slice->CMC = cmc;
 735              	 .loc 1 589 0
 736 000a 4160     	 str r1,[r0,#4]
 590:../Libraries/XMCLib/src/xmc_ccu4.c **** }
 737              	 .loc 1 590 0
 738              	 
 739 000c 7047     	 bx lr
 740              	 .cfi_endproc
 741              	.LFE107:
 743 000e C046     	 .section .text.XMC_CCU4_SLICE_DirectionConfig,"ax",%progbits
 744              	 .align 2
 745              	 .global XMC_CCU4_SLICE_DirectionConfig
 746              	 .code 16
 747              	 .thumb_func
 749              	XMC_CCU4_SLICE_DirectionConfig:
 750              	.LFB108:
 591:../Libraries/XMCLib/src/xmc_ccu4.c **** 
 592:../Libraries/XMCLib/src/xmc_ccu4.c **** /* API to configure direction function */
 593:../Libraries/XMCLib/src/xmc_ccu4.c **** void XMC_CCU4_SLICE_DirectionConfig(XMC_CCU4_SLICE_t *const slice, const XMC_CCU4_SLICE_EVENT_t eve
 594:../Libraries/XMCLib/src/xmc_ccu4.c **** {
 751              	 .loc 1 594 0
 752              	 .cfi_startproc
 753              	.LVL92:
 595:../Libraries/XMCLib/src/xmc_ccu4.c ****   uint32_t cmc;
 596:../Libraries/XMCLib/src/xmc_ccu4.c ****   
 597:../Libraries/XMCLib/src/xmc_ccu4.c ****   XMC_ASSERT("XMC_CCU4_SLICE_DirectionConfig:Invalid Slice Pointer", XMC_CCU4_IsValidSlice(slice));
 598:../Libraries/XMCLib/src/xmc_ccu4.c ****   XMC_ASSERT("XMC_CCU4_SLICE_DirectionConfig:Invalid Event ID", XMC_CCU4_SLICE_CHECK_EVENT_ID(event
 599:../Libraries/XMCLib/src/xmc_ccu4.c ****   
 600:../Libraries/XMCLib/src/xmc_ccu4.c ****   /* Bind the event with the direction function */
 601:../Libraries/XMCLib/src/xmc_ccu4.c ****   cmc = slice->CMC;
 754              	 .loc 1 601 0
 755 0000 4268     	 ldr r2,[r0,#4]
 756              	.LVL93:
 602:../Libraries/XMCLib/src/xmc_ccu4.c ****   cmc &= ~((uint32_t) CCU4_CC4_CMC_UDS_Msk);
 757              	 .loc 1 602 0
 758 0002 034B     	 ldr r3,.L51
 603:../Libraries/XMCLib/src/xmc_ccu4.c ****   cmc |= ((uint32_t) event) << CCU4_CC4_CMC_UDS_Pos;
 759              	 .loc 1 603 0
 760 0004 8902     	 lsl r1,r1,#10
 761              	.LVL94:
 602:../Libraries/XMCLib/src/xmc_ccu4.c ****   cmc &= ~((uint32_t) CCU4_CC4_CMC_UDS_Msk);
 762              	 .loc 1 602 0
 763 0006 1340     	 and r3,r2
 764              	.LVL95:
 765              	 .loc 1 603 0
 766 0008 1943     	 orr r1,r3
 767              	.LVL96:
 604:../Libraries/XMCLib/src/xmc_ccu4.c ****   
 605:../Libraries/XMCLib/src/xmc_ccu4.c ****   slice->CMC = cmc;
 768              	 .loc 1 605 0
 769 000a 4160     	 str r1,[r0,#4]
 606:../Libraries/XMCLib/src/xmc_ccu4.c **** }
 770              	 .loc 1 606 0
 771              	 
 772 000c 7047     	 bx lr
 773              	.L52:
 774 000e C046     	 .align 2
 775              	.L51:
 776 0010 FFF3FFFF 	 .word -3073
 777              	 .cfi_endproc
 778              	.LFE108:
 780              	 .section .text.XMC_CCU4_SLICE_StatusBitOverrideConfig,"ax",%progbits
 781              	 .align 2
 782              	 .global XMC_CCU4_SLICE_StatusBitOverrideConfig
 783              	 .code 16
 784              	 .thumb_func
 786              	XMC_CCU4_SLICE_StatusBitOverrideConfig:
 787              	.LFB109:
 607:../Libraries/XMCLib/src/xmc_ccu4.c **** 
 608:../Libraries/XMCLib/src/xmc_ccu4.c **** /* API to configure slice status bit override function */
 609:../Libraries/XMCLib/src/xmc_ccu4.c **** void XMC_CCU4_SLICE_StatusBitOverrideConfig(XMC_CCU4_SLICE_t *const slice)
 610:../Libraries/XMCLib/src/xmc_ccu4.c **** {
 788              	 .loc 1 610 0
 789              	 .cfi_startproc
 790              	.LVL97:
 611:../Libraries/XMCLib/src/xmc_ccu4.c ****   uint32_t cmc;
 612:../Libraries/XMCLib/src/xmc_ccu4.c ****   
 613:../Libraries/XMCLib/src/xmc_ccu4.c ****   XMC_ASSERT("XMC_CCU4_SLICE_StatusBitOverrideConfig:Invalid Slice Pointer", XMC_CCU4_IsValidSlice(
 614:../Libraries/XMCLib/src/xmc_ccu4.c ****   
 615:../Libraries/XMCLib/src/xmc_ccu4.c ****   /* Bind the event with the override function */
 616:../Libraries/XMCLib/src/xmc_ccu4.c ****   cmc = slice->CMC;
 617:../Libraries/XMCLib/src/xmc_ccu4.c ****   /* Map status bit trigger override to Event 1 & 
 618:../Libraries/XMCLib/src/xmc_ccu4.c ****          status bit value override to Event 2 */
 619:../Libraries/XMCLib/src/xmc_ccu4.c ****   cmc &= ~((uint32_t) CCU4_CC4_CMC_OFS_Msk);
 620:../Libraries/XMCLib/src/xmc_ccu4.c ****   cmc |= ((uint32_t) 1) << CCU4_CC4_CMC_OFS_Pos;
 791              	 .loc 1 620 0
 792 0000 8023     	 mov r3,#128
 616:../Libraries/XMCLib/src/xmc_ccu4.c ****   /* Map status bit trigger override to Event 1 & 
 793              	 .loc 1 616 0
 794 0002 4268     	 ldr r2,[r0,#4]
 795              	.LVL98:
 796              	 .loc 1 620 0
 797 0004 5B02     	 lsl r3,r3,#9
 798 0006 1343     	 orr r3,r2
 799              	.LVL99:
 621:../Libraries/XMCLib/src/xmc_ccu4.c **** 
 622:../Libraries/XMCLib/src/xmc_ccu4.c ****   slice->CMC = cmc;
 800              	 .loc 1 622 0
 801 0008 4360     	 str r3,[r0,#4]
 623:../Libraries/XMCLib/src/xmc_ccu4.c **** }
 802              	 .loc 1 623 0
 803              	 
 804 000a 7047     	 bx lr
 805              	 .cfi_endproc
 806              	.LFE109:
 808              	 .section .text.XMC_CCU4_SLICE_TrapConfig,"ax",%progbits
 809              	 .align 2
 810              	 .global XMC_CCU4_SLICE_TrapConfig
 811              	 .code 16
 812              	 .thumb_func
 814              	XMC_CCU4_SLICE_TrapConfig:
 815              	.LFB110:
 624:../Libraries/XMCLib/src/xmc_ccu4.c **** 
 625:../Libraries/XMCLib/src/xmc_ccu4.c **** /* API to configure trap function */
 626:../Libraries/XMCLib/src/xmc_ccu4.c **** void XMC_CCU4_SLICE_TrapConfig(XMC_CCU4_SLICE_t *const slice,
 627:../Libraries/XMCLib/src/xmc_ccu4.c ****                                const XMC_CCU4_SLICE_TRAP_EXIT_MODE_t exit_mode,
 628:../Libraries/XMCLib/src/xmc_ccu4.c ****                                const bool synch_with_pwm)
 629:../Libraries/XMCLib/src/xmc_ccu4.c **** {
 816              	 .loc 1 629 0
 817              	 .cfi_startproc
 818              	.LVL100:
 630:../Libraries/XMCLib/src/xmc_ccu4.c ****   uint32_t cmc;
 631:../Libraries/XMCLib/src/xmc_ccu4.c ****   uint32_t tc;
 632:../Libraries/XMCLib/src/xmc_ccu4.c ****   
 633:../Libraries/XMCLib/src/xmc_ccu4.c ****   XMC_ASSERT("XMC_CCU4_SLICE_TrapConfig:Invalid Slice Pointer", XMC_CCU4_IsValidSlice(slice));
 634:../Libraries/XMCLib/src/xmc_ccu4.c ****   XMC_ASSERT("XMC_CCU4_SLICE_TrapConfig:Invalid Exit Mode", ((exit_mode == XMC_CCU4_SLICE_TRAP_EXIT
 635:../Libraries/XMCLib/src/xmc_ccu4.c ****                                                              (exit_mode == XMC_CCU4_SLICE_TRAP_EXIT
 636:../Libraries/XMCLib/src/xmc_ccu4.c ****     
 637:../Libraries/XMCLib/src/xmc_ccu4.c ****   /* First, Map trap function to Event 2 */
 638:../Libraries/XMCLib/src/xmc_ccu4.c ****   cmc = slice->CMC;
 639:../Libraries/XMCLib/src/xmc_ccu4.c ****   cmc &= ~((uint32_t) CCU4_CC4_CMC_TS_Msk);
 640:../Libraries/XMCLib/src/xmc_ccu4.c ****   cmc |= ((uint32_t) 1) << CCU4_CC4_CMC_TS_Pos;
 819              	 .loc 1 640 0
 820 0000 8023     	 mov r3,#128
 629:../Libraries/XMCLib/src/xmc_ccu4.c ****   uint32_t cmc;
 821              	 .loc 1 629 0
 822 0002 10B5     	 push {r4,lr}
 823              	.LCFI6:
 824              	 .cfi_def_cfa_offset 8
 825              	 .cfi_offset 4,-8
 826              	 .cfi_offset 14,-4
 638:../Libraries/XMCLib/src/xmc_ccu4.c ****   cmc &= ~((uint32_t) CCU4_CC4_CMC_TS_Msk);
 827              	 .loc 1 638 0
 828 0004 4468     	 ldr r4,[r0,#4]
 829              	.LVL101:
 830              	 .loc 1 640 0
 831 0006 9B02     	 lsl r3,r3,#10
 832 0008 2343     	 orr r3,r4
 833              	.LVL102:
 641:../Libraries/XMCLib/src/xmc_ccu4.c ****   slice->CMC = cmc;
 834              	 .loc 1 641 0
 835 000a 4360     	 str r3,[r0,#4]
 642:../Libraries/XMCLib/src/xmc_ccu4.c ****   
 643:../Libraries/XMCLib/src/xmc_ccu4.c ****   /* Next, Configure synchronization option */
 644:../Libraries/XMCLib/src/xmc_ccu4.c ****   tc = slice->TC;
 836              	 .loc 1 644 0
 837 000c 4369     	 ldr r3,[r0,#20]
 838              	.LVL103:
 645:../Libraries/XMCLib/src/xmc_ccu4.c **** 
 646:../Libraries/XMCLib/src/xmc_ccu4.c ****   if (synch_with_pwm == (bool) true)
 839              	 .loc 1 646 0
 840 000e 002A     	 cmp r2,#0
 841 0010 08D0     	 beq .L55
 647:../Libraries/XMCLib/src/xmc_ccu4.c ****   {
 648:../Libraries/XMCLib/src/xmc_ccu4.c ****     tc |= (uint32_t) CCU4_CC4_TC_TRPSE_Msk;
 842              	 .loc 1 648 0
 843 0012 8022     	 mov r2,#128
 844              	.LVL104:
 845 0014 9203     	 lsl r2,r2,#14
 846 0016 1343     	 orr r3,r2
 847              	.LVL105:
 649:../Libraries/XMCLib/src/xmc_ccu4.c ****   }
 650:../Libraries/XMCLib/src/xmc_ccu4.c ****   else
 651:../Libraries/XMCLib/src/xmc_ccu4.c ****   {
 652:../Libraries/XMCLib/src/xmc_ccu4.c ****     tc &= ~((uint32_t) CCU4_CC4_TC_TRPSE_Msk);
 653:../Libraries/XMCLib/src/xmc_ccu4.c ****   }
 654:../Libraries/XMCLib/src/xmc_ccu4.c ****   
 655:../Libraries/XMCLib/src/xmc_ccu4.c ****   /* Configure exit mode */
 656:../Libraries/XMCLib/src/xmc_ccu4.c ****   if (exit_mode == XMC_CCU4_SLICE_TRAP_EXIT_MODE_SW)
 848              	 .loc 1 656 0
 849 0018 0129     	 cmp r1,#1
 850 001a 07D0     	 beq .L59
 851              	.L57:
 657:../Libraries/XMCLib/src/xmc_ccu4.c ****   {
 658:../Libraries/XMCLib/src/xmc_ccu4.c ****     tc |= (uint32_t) CCU4_CC4_TC_TRPSW_Msk;
 659:../Libraries/XMCLib/src/xmc_ccu4.c ****   }
 660:../Libraries/XMCLib/src/xmc_ccu4.c ****   else
 661:../Libraries/XMCLib/src/xmc_ccu4.c ****   {
 662:../Libraries/XMCLib/src/xmc_ccu4.c ****     tc &= ~((uint32_t) CCU4_CC4_TC_TRPSW_Msk);
 852              	 .loc 1 662 0
 853 001c 054A     	 ldr r2,.L60
 854 001e 1340     	 and r3,r2
 855              	.LVL106:
 856              	.L58:
 663:../Libraries/XMCLib/src/xmc_ccu4.c ****   }
 664:../Libraries/XMCLib/src/xmc_ccu4.c ****   
 665:../Libraries/XMCLib/src/xmc_ccu4.c ****   slice->TC = tc;
 857              	 .loc 1 665 0
 858 0020 4361     	 str r3,[r0,#20]
 859              	.LVL107:
 666:../Libraries/XMCLib/src/xmc_ccu4.c **** }
 860              	 .loc 1 666 0
 861              	 
 862              	.LVL108:
 863 0022 10BD     	 pop {r4,pc}
 864              	.LVL109:
 865              	.L55:
 652:../Libraries/XMCLib/src/xmc_ccu4.c ****   }
 866              	 .loc 1 652 0
 867 0024 044A     	 ldr r2,.L60+4
 868              	.LVL110:
 869 0026 1340     	 and r3,r2
 870              	.LVL111:
 656:../Libraries/XMCLib/src/xmc_ccu4.c ****   {
 871              	 .loc 1 656 0
 872 0028 0129     	 cmp r1,#1
 873 002a F7D1     	 bne .L57
 874              	.L59:
 658:../Libraries/XMCLib/src/xmc_ccu4.c ****   }
 875              	 .loc 1 658 0
 876 002c 8022     	 mov r2,#128
 877 002e D203     	 lsl r2,r2,#15
 878 0030 1343     	 orr r3,r2
 879              	.LVL112:
 880 0032 F5E7     	 b .L58
 881              	.L61:
 882              	 .align 2
 883              	.L60:
 884 0034 FFFFBFFF 	 .word -4194305
 885 0038 FFFFDFFF 	 .word -2097153
 886              	 .cfi_endproc
 887              	.LFE110:
 889              	 .section .text.XMC_CCU4_SLICE_ConfigureStatusBitOverrideEvent,"ax",%progbits
 890              	 .align 2
 891              	 .global XMC_CCU4_SLICE_ConfigureStatusBitOverrideEvent
 892              	 .code 16
 893              	 .thumb_func
 895              	XMC_CCU4_SLICE_ConfigureStatusBitOverrideEvent:
 896              	.LFB111:
 667:../Libraries/XMCLib/src/xmc_ccu4.c **** 
 668:../Libraries/XMCLib/src/xmc_ccu4.c **** /* API to configure a slice Status Bit Override event */
 669:../Libraries/XMCLib/src/xmc_ccu4.c **** void XMC_CCU4_SLICE_ConfigureStatusBitOverrideEvent(XMC_CCU4_SLICE_t *const slice,
 670:../Libraries/XMCLib/src/xmc_ccu4.c ****                                                     const XMC_CCU4_SLICE_EVENT_CONFIG_t *const ev1_
 671:../Libraries/XMCLib/src/xmc_ccu4.c ****                                                     const XMC_CCU4_SLICE_EVENT_CONFIG_t *const ev2_
 672:../Libraries/XMCLib/src/xmc_ccu4.c **** {
 897              	 .loc 1 672 0
 898              	 .cfi_startproc
 899              	.LVL113:
 900 0000 10B5     	 push {r4,lr}
 901              	.LCFI7:
 902              	 .cfi_def_cfa_offset 8
 903              	 .cfi_offset 4,-8
 904              	 .cfi_offset 14,-4
 673:../Libraries/XMCLib/src/xmc_ccu4.c ****   uint32_t ins;
 674:../Libraries/XMCLib/src/xmc_ccu4.c **** 
 675:../Libraries/XMCLib/src/xmc_ccu4.c ****   XMC_ASSERT("XMC_CCU4_SLICE_ConfigureStatusBitOverrideEvent:Invalid Slice Pointer", XMC_CCU4_IsVal
 676:../Libraries/XMCLib/src/xmc_ccu4.c ****   XMC_ASSERT("XMC_CCU4_SLICE_ConfigureStatusBitOverrideEvent:Invalid Input",
 677:../Libraries/XMCLib/src/xmc_ccu4.c ****          XMC_CCU4_SLICE_IsInputvalid(ev1_config->mapped_input));
 678:../Libraries/XMCLib/src/xmc_ccu4.c ****   XMC_ASSERT("XMC_CCU4_SLICE_ConfigureStatusBitOverrideEvent:Invalid Edge Sensitivity",
 679:../Libraries/XMCLib/src/xmc_ccu4.c ****              XMC_CCU4_SLICE_CHECK_EDGE_SENSITIVITY(ev1_config->edge));
 680:../Libraries/XMCLib/src/xmc_ccu4.c ****   XMC_ASSERT("XMC_CCU4_SLICE_ConfigureStatusBitOverrideEvent:Invalid Level Sensitivity",
 681:../Libraries/XMCLib/src/xmc_ccu4.c ****              ((ev1_config->level == XMC_CCU4_SLICE_EVENT_LEVEL_SENSITIVITY_ACTIVE_HIGH) ||\
 682:../Libraries/XMCLib/src/xmc_ccu4.c ****               (ev1_config->level == XMC_CCU4_SLICE_EVENT_LEVEL_SENSITIVITY_ACTIVE_LOW)));
 683:../Libraries/XMCLib/src/xmc_ccu4.c ****   XMC_ASSERT("XMC_CCU4_SLICE_ConfigureStatusBitOverrideEvent:Invalid Debounce Period",
 684:../Libraries/XMCLib/src/xmc_ccu4.c ****              XMC_CCU4_SLICE_CHECK_EVENT_FILTER(ev1_config->duration));
 685:../Libraries/XMCLib/src/xmc_ccu4.c ****   XMC_ASSERT("XMC_CCU4_SLICE_ConfigureStatusBitOverrideEvent:Invalid Input",
 686:../Libraries/XMCLib/src/xmc_ccu4.c ****          XMC_CCU4_SLICE_IsInputvalid(ev2_config->mapped_input));
 687:../Libraries/XMCLib/src/xmc_ccu4.c ****   XMC_ASSERT("XMC_CCU4_SLICE_ConfigureStatusBitOverrideEvent:Invalid Edge Sensitivity",
 688:../Libraries/XMCLib/src/xmc_ccu4.c ****              XMC_CCU4_SLICE_CHECK_EDGE_SENSITIVITY(ev2_config->edge));
 689:../Libraries/XMCLib/src/xmc_ccu4.c ****   XMC_ASSERT("XMC_CCU4_SLICE_ConfigureStatusBitOverrideEvent:Invalid Level Sensitivity",
 690:../Libraries/XMCLib/src/xmc_ccu4.c ****              ((ev2_config->level == XMC_CCU4_SLICE_EVENT_LEVEL_SENSITIVITY_ACTIVE_HIGH) ||\
 691:../Libraries/XMCLib/src/xmc_ccu4.c ****               (ev2_config->level == XMC_CCU4_SLICE_EVENT_LEVEL_SENSITIVITY_ACTIVE_LOW)));
 692:../Libraries/XMCLib/src/xmc_ccu4.c ****   XMC_ASSERT("XMC_CCU4_SLICE_ConfigureStatusBitOverrideEvent:Invalid Debounce Period", 
 693:../Libraries/XMCLib/src/xmc_ccu4.c ****              XMC_CCU4_SLICE_CHECK_EVENT_FILTER(ev2_config->duration));
 694:../Libraries/XMCLib/src/xmc_ccu4.c **** #if defined(CCU4V3) /* Defined for XMC1400 devices only */
 695:../Libraries/XMCLib/src/xmc_ccu4.c ****   ins = slice->INS2;
 696:../Libraries/XMCLib/src/xmc_ccu4.c **** 
 697:../Libraries/XMCLib/src/xmc_ccu4.c ****   /* Configure the edge sensitivity for event 1 */
 698:../Libraries/XMCLib/src/xmc_ccu4.c ****   ins &= ~(((uint32_t) XMC_CCU4_SLICE_EVENT_EDGE_CONFIG_MASK) << CCU4_CC4_INS2_EV1EM_Pos);
 699:../Libraries/XMCLib/src/xmc_ccu4.c ****   ins |= ((uint32_t) ev1_config->edge) << CCU4_CC4_INS2_EV1EM_Pos;
 700:../Libraries/XMCLib/src/xmc_ccu4.c ****   
 701:../Libraries/XMCLib/src/xmc_ccu4.c ****   /* Configure the edge sensitivity for event 2 */
 702:../Libraries/XMCLib/src/xmc_ccu4.c ****   ins &= ~(((uint32_t) XMC_CCU4_SLICE_EVENT_EDGE_CONFIG_MASK) << CCU4_CC4_INS2_EV2EM_Pos);
 703:../Libraries/XMCLib/src/xmc_ccu4.c ****   ins |= ((uint32_t) ev2_config->edge) << CCU4_CC4_INS2_EV2EM_Pos;
 704:../Libraries/XMCLib/src/xmc_ccu4.c ****   
 705:../Libraries/XMCLib/src/xmc_ccu4.c ****   /* Configure the level sensitivity for event 1 */
 706:../Libraries/XMCLib/src/xmc_ccu4.c ****   ins &= ~(((uint32_t) XMC_CCU4_SLICE_EVENT_LEVEL_CONFIG_MASK) << CCU4_CC4_INS2_EV1LM_Pos);
 707:../Libraries/XMCLib/src/xmc_ccu4.c ****   ins |= ((uint32_t) ev1_config->level) << CCU4_CC4_INS2_EV1LM_Pos;
 708:../Libraries/XMCLib/src/xmc_ccu4.c ****   
 709:../Libraries/XMCLib/src/xmc_ccu4.c ****   /* Configure the level sensitivity for event 2 */
 710:../Libraries/XMCLib/src/xmc_ccu4.c ****   ins &= ~(((uint32_t) XMC_CCU4_SLICE_EVENT_LEVEL_CONFIG_MASK) << CCU4_CC4_INS2_EV2LM_Pos);
 711:../Libraries/XMCLib/src/xmc_ccu4.c ****   ins |= ((uint32_t) ev2_config->level) << CCU4_CC4_INS2_EV2LM_Pos;
 712:../Libraries/XMCLib/src/xmc_ccu4.c ****   
 713:../Libraries/XMCLib/src/xmc_ccu4.c ****   /* Configure the debounce filter for event 1 */
 714:../Libraries/XMCLib/src/xmc_ccu4.c ****   ins &= ~(((uint32_t) XMC_CCU4_SLICE_EVENT_FILTER_CONFIG_MASK) << CCU4_CC4_INS2_LPF1M_Pos);
 715:../Libraries/XMCLib/src/xmc_ccu4.c ****   ins |= ((uint32_t) ev1_config->duration) << CCU4_CC4_INS2_LPF1M_Pos;
 716:../Libraries/XMCLib/src/xmc_ccu4.c **** 
 717:../Libraries/XMCLib/src/xmc_ccu4.c ****   /* Configure the debounce filter for event 2 */
 718:../Libraries/XMCLib/src/xmc_ccu4.c ****   ins &= ~(((uint32_t) XMC_CCU4_SLICE_EVENT_FILTER_CONFIG_MASK) << CCU4_CC4_INS2_LPF2M_Pos);
 719:../Libraries/XMCLib/src/xmc_ccu4.c ****   ins |= ((uint32_t) ev2_config->duration) << CCU4_CC4_INS2_LPF2M_Pos;
 720:../Libraries/XMCLib/src/xmc_ccu4.c ****   
 721:../Libraries/XMCLib/src/xmc_ccu4.c ****   slice->INS2 = ins;
 722:../Libraries/XMCLib/src/xmc_ccu4.c ****   
 723:../Libraries/XMCLib/src/xmc_ccu4.c ****   ins = slice->INS1;
 724:../Libraries/XMCLib/src/xmc_ccu4.c ****   
 725:../Libraries/XMCLib/src/xmc_ccu4.c ****   /* Next, the input for Event1 */
 726:../Libraries/XMCLib/src/xmc_ccu4.c ****   ins &= ~(((uint32_t) XMC_CCU4_SLICE_EVENT_INPUT_CONFIG_MASK) << CCU4_CC4_INS1_EV1IS_Pos);
 727:../Libraries/XMCLib/src/xmc_ccu4.c ****   ins |= ((uint32_t) ev1_config->mapped_input) << CCU4_CC4_INS1_EV1IS_Pos;
 728:../Libraries/XMCLib/src/xmc_ccu4.c **** 
 729:../Libraries/XMCLib/src/xmc_ccu4.c ****   /* Finally, the input for Event2 */
 730:../Libraries/XMCLib/src/xmc_ccu4.c ****   ins &= ~(((uint32_t) XMC_CCU4_SLICE_EVENT_INPUT_CONFIG_MASK) << CCU4_CC4_INS1_EV2IS_Pos);
 731:../Libraries/XMCLib/src/xmc_ccu4.c ****   ins |= ((uint32_t) ev2_config->mapped_input) << CCU4_CC4_INS1_EV2IS_Pos;
 732:../Libraries/XMCLib/src/xmc_ccu4.c ****   
 733:../Libraries/XMCLib/src/xmc_ccu4.c ****   slice->INS1 = ins;
 734:../Libraries/XMCLib/src/xmc_ccu4.c **** #else
 735:../Libraries/XMCLib/src/xmc_ccu4.c ****   ins = slice->INS;
 736:../Libraries/XMCLib/src/xmc_ccu4.c **** 
 737:../Libraries/XMCLib/src/xmc_ccu4.c ****   /* Configure the edge sensitivity for event 1 */
 738:../Libraries/XMCLib/src/xmc_ccu4.c ****   ins &= ~(((uint32_t) XMC_CCU4_SLICE_EVENT_EDGE_CONFIG_MASK) << CCU4_CC4_INS_EV1EM_Pos);
 905              	 .loc 1 738 0
 906 0002 154B     	 ldr r3,.L63
 735:../Libraries/XMCLib/src/xmc_ccu4.c **** 
 907              	 .loc 1 735 0
 908 0004 0468     	 ldr r4,[r0]
 909              	.LVL114:
 739:../Libraries/XMCLib/src/xmc_ccu4.c ****   ins |= ((uint32_t) ev1_config->edge) << CCU4_CC4_INS_EV1EM_Pos;
 740:../Libraries/XMCLib/src/xmc_ccu4.c ****   
 741:../Libraries/XMCLib/src/xmc_ccu4.c ****   /* Configure the edge sensitivity for event 2 */
 742:../Libraries/XMCLib/src/xmc_ccu4.c ****   ins &= ~(((uint32_t) XMC_CCU4_SLICE_EVENT_EDGE_CONFIG_MASK) << CCU4_CC4_INS_EV2EM_Pos);
 743:../Libraries/XMCLib/src/xmc_ccu4.c ****   ins |= ((uint32_t) ev2_config->edge) << CCU4_CC4_INS_EV2EM_Pos;
 744:../Libraries/XMCLib/src/xmc_ccu4.c ****   
 745:../Libraries/XMCLib/src/xmc_ccu4.c ****   /* Configure the level sensitivity for event 1 */
 746:../Libraries/XMCLib/src/xmc_ccu4.c ****   ins &= ~(((uint32_t) XMC_CCU4_SLICE_EVENT_LEVEL_CONFIG_MASK) << CCU4_CC4_INS_EV1LM_Pos);
 747:../Libraries/XMCLib/src/xmc_ccu4.c ****   ins |= ((uint32_t) ev1_config->level) << CCU4_CC4_INS_EV1LM_Pos;
 748:../Libraries/XMCLib/src/xmc_ccu4.c ****   
 749:../Libraries/XMCLib/src/xmc_ccu4.c ****   /* Configure the level sensitivity for event 2 */
 750:../Libraries/XMCLib/src/xmc_ccu4.c ****   ins &= ~(((uint32_t) XMC_CCU4_SLICE_EVENT_LEVEL_CONFIG_MASK) << CCU4_CC4_INS_EV2LM_Pos);
 751:../Libraries/XMCLib/src/xmc_ccu4.c ****   ins |= ((uint32_t) ev2_config->level) << CCU4_CC4_INS_EV2LM_Pos;
 752:../Libraries/XMCLib/src/xmc_ccu4.c ****   
 753:../Libraries/XMCLib/src/xmc_ccu4.c ****   /* Configure the debounce filter for event 1 */
 754:../Libraries/XMCLib/src/xmc_ccu4.c ****   ins &= ~(((uint32_t) XMC_CCU4_SLICE_EVENT_FILTER_CONFIG_MASK) << CCU4_CC4_INS_LPF1M_Pos);
 755:../Libraries/XMCLib/src/xmc_ccu4.c ****   ins |= ((uint32_t) ev1_config->duration) << CCU4_CC4_INS_LPF1M_Pos;
 756:../Libraries/XMCLib/src/xmc_ccu4.c **** 
 757:../Libraries/XMCLib/src/xmc_ccu4.c ****   /* Configure the debounce filter for event 2 */
 758:../Libraries/XMCLib/src/xmc_ccu4.c ****   ins &= ~(((uint32_t) XMC_CCU4_SLICE_EVENT_FILTER_CONFIG_MASK) << CCU4_CC4_INS_LPF2M_Pos);
 759:../Libraries/XMCLib/src/xmc_ccu4.c ****   ins |= ((uint32_t) ev2_config->duration) << CCU4_CC4_INS_LPF2M_Pos;
 760:../Libraries/XMCLib/src/xmc_ccu4.c ****   
 761:../Libraries/XMCLib/src/xmc_ccu4.c ****   /* Next, the input for Event1 */
 762:../Libraries/XMCLib/src/xmc_ccu4.c ****   ins &= ~(((uint32_t) XMC_CCU4_SLICE_EVENT_INPUT_CONFIG_MASK) << CCU4_CC4_INS_EV1IS_Pos);
 763:../Libraries/XMCLib/src/xmc_ccu4.c ****   ins |= ((uint32_t) ev1_config->mapped_input) << CCU4_CC4_INS_EV1IS_Pos;
 764:../Libraries/XMCLib/src/xmc_ccu4.c **** 
 765:../Libraries/XMCLib/src/xmc_ccu4.c ****   /* Finally, the input for Event2 */
 766:../Libraries/XMCLib/src/xmc_ccu4.c ****   ins &= ~(((uint32_t) XMC_CCU4_SLICE_EVENT_INPUT_CONFIG_MASK) << CCU4_CC4_INS_EV2IS_Pos);
 767:../Libraries/XMCLib/src/xmc_ccu4.c ****   ins |= ((uint32_t) ev2_config->mapped_input) << CCU4_CC4_INS_EV2IS_Pos;
 768:../Libraries/XMCLib/src/xmc_ccu4.c ****   
 769:../Libraries/XMCLib/src/xmc_ccu4.c ****   slice->INS = ins;
 770:../Libraries/XMCLib/src/xmc_ccu4.c **** #endif
 771:../Libraries/XMCLib/src/xmc_ccu4.c **** }
 910              	 .loc 1 771 0
 911              	 
 738:../Libraries/XMCLib/src/xmc_ccu4.c ****   ins |= ((uint32_t) ev1_config->edge) << CCU4_CC4_INS_EV1EM_Pos;
 912              	 .loc 1 738 0
 913 0006 1C40     	 and r4,r3
 914              	.LVL115:
 739:../Libraries/XMCLib/src/xmc_ccu4.c ****   ins |= ((uint32_t) ev1_config->edge) << CCU4_CC4_INS_EV1EM_Pos;
 915              	 .loc 1 739 0
 916 0008 4B78     	 ldrb r3,[r1,#1]
 917 000a 9B04     	 lsl r3,r3,#18
 918 000c 2343     	 orr r3,r4
 919              	.LVL116:
 742:../Libraries/XMCLib/src/xmc_ccu4.c ****   ins |= ((uint32_t) ev2_config->edge) << CCU4_CC4_INS_EV2EM_Pos;
 920              	 .loc 1 742 0
 921 000e 134C     	 ldr r4,.L63+4
 922 0010 2340     	 and r3,r4
 923              	.LVL117:
 743:../Libraries/XMCLib/src/xmc_ccu4.c ****   
 924              	 .loc 1 743 0
 925 0012 5478     	 ldrb r4,[r2,#1]
 926 0014 2405     	 lsl r4,r4,#20
 927 0016 2343     	 orr r3,r4
 928              	.LVL118:
 746:../Libraries/XMCLib/src/xmc_ccu4.c ****   ins |= ((uint32_t) ev1_config->level) << CCU4_CC4_INS_EV1LM_Pos;
 929              	 .loc 1 746 0
 930 0018 114C     	 ldr r4,.L63+8
 931 001a 2340     	 and r3,r4
 932              	.LVL119:
 747:../Libraries/XMCLib/src/xmc_ccu4.c ****   
 933              	 .loc 1 747 0
 934 001c 8C78     	 ldrb r4,[r1,#2]
 935 001e E405     	 lsl r4,r4,#23
 936 0020 2343     	 orr r3,r4
 937              	.LVL120:
 750:../Libraries/XMCLib/src/xmc_ccu4.c ****   ins |= ((uint32_t) ev2_config->level) << CCU4_CC4_INS_EV2LM_Pos;
 938              	 .loc 1 750 0
 939 0022 104C     	 ldr r4,.L63+12
 940 0024 2340     	 and r3,r4
 941              	.LVL121:
 751:../Libraries/XMCLib/src/xmc_ccu4.c ****   
 942              	 .loc 1 751 0
 943 0026 9478     	 ldrb r4,[r2,#2]
 944 0028 2406     	 lsl r4,r4,#24
 945 002a 2343     	 orr r3,r4
 946              	.LVL122:
 754:../Libraries/XMCLib/src/xmc_ccu4.c ****   ins |= ((uint32_t) ev1_config->duration) << CCU4_CC4_INS_LPF1M_Pos;
 947              	 .loc 1 754 0
 948 002c 0E4C     	 ldr r4,.L63+16
 949 002e 2340     	 and r3,r4
 950              	.LVL123:
 755:../Libraries/XMCLib/src/xmc_ccu4.c **** 
 951              	 .loc 1 755 0
 952 0030 CC78     	 ldrb r4,[r1,#3]
 763:../Libraries/XMCLib/src/xmc_ccu4.c **** 
 953              	 .loc 1 763 0
 954 0032 0978     	 ldrb r1,[r1]
 955              	.LVL124:
 755:../Libraries/XMCLib/src/xmc_ccu4.c **** 
 956              	 .loc 1 755 0
 957 0034 E406     	 lsl r4,r4,#27
 958 0036 2343     	 orr r3,r4
 959              	.LVL125:
 758:../Libraries/XMCLib/src/xmc_ccu4.c ****   ins |= ((uint32_t) ev2_config->duration) << CCU4_CC4_INS_LPF2M_Pos;
 960              	 .loc 1 758 0
 961 0038 0C4C     	 ldr r4,.L63+20
 763:../Libraries/XMCLib/src/xmc_ccu4.c **** 
 962              	 .loc 1 763 0
 963 003a 0901     	 lsl r1,r1,#4
 758:../Libraries/XMCLib/src/xmc_ccu4.c ****   ins |= ((uint32_t) ev2_config->duration) << CCU4_CC4_INS_LPF2M_Pos;
 964              	 .loc 1 758 0
 965 003c 2340     	 and r3,r4
 966              	.LVL126:
 759:../Libraries/XMCLib/src/xmc_ccu4.c ****   
 967              	 .loc 1 759 0
 968 003e D478     	 ldrb r4,[r2,#3]
 767:../Libraries/XMCLib/src/xmc_ccu4.c ****   
 969              	 .loc 1 767 0
 970 0040 1278     	 ldrb r2,[r2]
 971              	.LVL127:
 759:../Libraries/XMCLib/src/xmc_ccu4.c ****   
 972              	 .loc 1 759 0
 973 0042 6407     	 lsl r4,r4,#29
 974 0044 2343     	 orr r3,r4
 975              	.LVL128:
 762:../Libraries/XMCLib/src/xmc_ccu4.c ****   ins |= ((uint32_t) ev1_config->mapped_input) << CCU4_CC4_INS_EV1IS_Pos;
 976              	 .loc 1 762 0
 977 0046 F024     	 mov r4,#240
 978 0048 A343     	 bic r3,r4
 979              	.LVL129:
 763:../Libraries/XMCLib/src/xmc_ccu4.c **** 
 980              	 .loc 1 763 0
 981 004a 0B43     	 orr r3,r1
 982              	.LVL130:
 766:../Libraries/XMCLib/src/xmc_ccu4.c ****   ins |= ((uint32_t) ev2_config->mapped_input) << CCU4_CC4_INS_EV2IS_Pos;
 983              	 .loc 1 766 0
 984 004c 0849     	 ldr r1,.L63+24
 767:../Libraries/XMCLib/src/xmc_ccu4.c ****   
 985              	 .loc 1 767 0
 986 004e 1202     	 lsl r2,r2,#8
 766:../Libraries/XMCLib/src/xmc_ccu4.c ****   ins |= ((uint32_t) ev2_config->mapped_input) << CCU4_CC4_INS_EV2IS_Pos;
 987              	 .loc 1 766 0
 988 0050 0B40     	 and r3,r1
 989              	.LVL131:
 767:../Libraries/XMCLib/src/xmc_ccu4.c ****   
 990              	 .loc 1 767 0
 991 0052 1343     	 orr r3,r2
 992              	.LVL132:
 769:../Libraries/XMCLib/src/xmc_ccu4.c **** #endif
 993              	 .loc 1 769 0
 994 0054 0360     	 str r3,[r0]
 995              	 .loc 1 771 0
 996 0056 10BD     	 pop {r4,pc}
 997              	.L64:
 998              	 .align 2
 999              	.L63:
 1000 0058 FFFFF3FF 	 .word -786433
 1001 005c FFFFCFFF 	 .word -3145729
 1002 0060 FFFF7FFF 	 .word -8388609
 1003 0064 FFFFFFFE 	 .word -16777217
 1004 0068 FFFFFFE7 	 .word -402653185
 1005 006c FFFFFF9F 	 .word -1610612737
 1006 0070 FFF0FFFF 	 .word -3841
 1007              	 .cfi_endproc
 1008              	.LFE111:
 1010              	 .section .text.XMC_CCU4_SLICE_ConfigureEvent,"ax",%progbits
 1011              	 .align 2
 1012              	 .global XMC_CCU4_SLICE_ConfigureEvent
 1013              	 .code 16
 1014              	 .thumb_func
 1016              	XMC_CCU4_SLICE_ConfigureEvent:
 1017              	.LFB112:
 772:../Libraries/XMCLib/src/xmc_ccu4.c **** 
 773:../Libraries/XMCLib/src/xmc_ccu4.c **** /* API to configure a slice trigger event */
 774:../Libraries/XMCLib/src/xmc_ccu4.c **** void XMC_CCU4_SLICE_ConfigureEvent(XMC_CCU4_SLICE_t *const slice,
 775:../Libraries/XMCLib/src/xmc_ccu4.c ****                                    const XMC_CCU4_SLICE_EVENT_t event,
 776:../Libraries/XMCLib/src/xmc_ccu4.c ****                                    const XMC_CCU4_SLICE_EVENT_CONFIG_t *const config)
 777:../Libraries/XMCLib/src/xmc_ccu4.c **** {
 1018              	 .loc 1 777 0
 1019              	 .cfi_startproc
 1020              	.LVL133:
 1021 0000 F0B5     	 push {r4,r5,r6,r7,lr}
 1022              	.LCFI8:
 1023              	 .cfi_def_cfa_offset 20
 1024              	 .cfi_offset 4,-20
 1025              	 .cfi_offset 5,-16
 1026              	 .cfi_offset 6,-12
 1027              	 .cfi_offset 7,-8
 1028              	 .cfi_offset 14,-4
 778:../Libraries/XMCLib/src/xmc_ccu4.c ****   uint32_t ins;
 779:../Libraries/XMCLib/src/xmc_ccu4.c ****   uint8_t  pos;
 780:../Libraries/XMCLib/src/xmc_ccu4.c ****   uint8_t  offset;
 781:../Libraries/XMCLib/src/xmc_ccu4.c **** 
 782:../Libraries/XMCLib/src/xmc_ccu4.c ****   XMC_ASSERT("XMC_CCU4_SLICE_ConfigureEvent:Invalid Slice Pointer", XMC_CCU4_IsValidSlice(slice));
 783:../Libraries/XMCLib/src/xmc_ccu4.c ****   XMC_ASSERT("XMC_CCU4_SLICE_ConfigureEvent:Invalid Event ID", XMC_CCU4_SLICE_CHECK_EVENT_ID(event)
 784:../Libraries/XMCLib/src/xmc_ccu4.c ****   XMC_ASSERT("XMC_CCU4_SLICE_ConfigureEvent:Invalid Input", XMC_CCU4_SLICE_IsInputvalid(config->map
 785:../Libraries/XMCLib/src/xmc_ccu4.c ****   XMC_ASSERT("XMC_CCU4_SLICE_ConfigureEvent:Invalid Edge Sensitivity",
 786:../Libraries/XMCLib/src/xmc_ccu4.c ****              XMC_CCU4_SLICE_CHECK_EDGE_SENSITIVITY(config->edge));
 787:../Libraries/XMCLib/src/xmc_ccu4.c ****   XMC_ASSERT("XMC_CCU4_SLICE_ConfigureEvent:Invalid Level Sensitivity",
 788:../Libraries/XMCLib/src/xmc_ccu4.c ****              ((config->level == XMC_CCU4_SLICE_EVENT_LEVEL_SENSITIVITY_ACTIVE_HIGH) ||\
 789:../Libraries/XMCLib/src/xmc_ccu4.c ****               (config->level == XMC_CCU4_SLICE_EVENT_LEVEL_SENSITIVITY_ACTIVE_LOW)));
 790:../Libraries/XMCLib/src/xmc_ccu4.c ****   XMC_ASSERT("XMC_CCU4_SLICE_ConfigureEvent:Invalid Debounce Period", 
 791:../Libraries/XMCLib/src/xmc_ccu4.c ****              XMC_CCU4_SLICE_CHECK_EVENT_FILTER(config->duration));
 792:../Libraries/XMCLib/src/xmc_ccu4.c ****   /* Calculate offset with reference to event */
 793:../Libraries/XMCLib/src/xmc_ccu4.c ****   offset = ((uint8_t) event) - 1U;
 1029              	 .loc 1 793 0
 1030 0002 4E1E     	 sub r6,r1,#1
 1031 0004 F6B2     	 uxtb r6,r6
 1032              	.LVL134:
 794:../Libraries/XMCLib/src/xmc_ccu4.c ****   
 795:../Libraries/XMCLib/src/xmc_ccu4.c **** #if defined(CCU4V3) /* Defined for XMC1400 devices only */
 796:../Libraries/XMCLib/src/xmc_ccu4.c ****   ins = slice->INS2;
 797:../Libraries/XMCLib/src/xmc_ccu4.c **** 
 798:../Libraries/XMCLib/src/xmc_ccu4.c ****   /* First, configure the edge sensitivity */
 799:../Libraries/XMCLib/src/xmc_ccu4.c ****   pos = ((uint8_t) CCU4_CC4_INS2_EV0EM_Pos) + (uint8_t)(offset << 2U);
 800:../Libraries/XMCLib/src/xmc_ccu4.c ****   ins &= ~(((uint32_t) XMC_CCU4_SLICE_EVENT_EDGE_CONFIG_MASK) << pos);
 801:../Libraries/XMCLib/src/xmc_ccu4.c ****   ins |= ((uint32_t) config->edge) << pos;
 802:../Libraries/XMCLib/src/xmc_ccu4.c **** 
 803:../Libraries/XMCLib/src/xmc_ccu4.c ****   /* Next, the level */
 804:../Libraries/XMCLib/src/xmc_ccu4.c ****   pos = ((uint8_t) CCU4_CC4_INS2_EV0LM_Pos) + (uint8_t)(offset << 2U);
 805:../Libraries/XMCLib/src/xmc_ccu4.c ****   ins &= ~(((uint32_t) XMC_CCU4_SLICE_EVENT_LEVEL_CONFIG_MASK) << pos);
 806:../Libraries/XMCLib/src/xmc_ccu4.c ****   ins |= ((uint32_t) config->level) << pos;
 807:../Libraries/XMCLib/src/xmc_ccu4.c **** 
 808:../Libraries/XMCLib/src/xmc_ccu4.c ****   /* Next, the debounce filter */
 809:../Libraries/XMCLib/src/xmc_ccu4.c ****   pos = ((uint8_t) CCU4_CC4_INS2_LPF0M_Pos) + (uint8_t)(offset << 2U);
 810:../Libraries/XMCLib/src/xmc_ccu4.c ****   ins &= ~(((uint32_t) XMC_CCU4_SLICE_EVENT_FILTER_CONFIG_MASK) << pos);
 811:../Libraries/XMCLib/src/xmc_ccu4.c ****   ins |= ((uint32_t) config->duration) << pos;
 812:../Libraries/XMCLib/src/xmc_ccu4.c **** 
 813:../Libraries/XMCLib/src/xmc_ccu4.c ****   slice->INS2 = ins;
 814:../Libraries/XMCLib/src/xmc_ccu4.c **** 
 815:../Libraries/XMCLib/src/xmc_ccu4.c ****   ins = slice->INS1;
 816:../Libraries/XMCLib/src/xmc_ccu4.c **** 
 817:../Libraries/XMCLib/src/xmc_ccu4.c ****   /* Finally the input */
 818:../Libraries/XMCLib/src/xmc_ccu4.c ****   pos = ((uint8_t) CCU4_CC4_INS1_EV0IS_Pos) + (uint8_t)(offset << 3U);
 819:../Libraries/XMCLib/src/xmc_ccu4.c ****   ins &= ~(((uint32_t) XMC_CCU4_SLICE_EVENT_INPUT_CONFIG_MASK) << pos);
 820:../Libraries/XMCLib/src/xmc_ccu4.c ****   ins |= ((uint32_t) config->mapped_input) << pos;
 821:../Libraries/XMCLib/src/xmc_ccu4.c **** 
 822:../Libraries/XMCLib/src/xmc_ccu4.c ****   slice->INS1 = ins;
 823:../Libraries/XMCLib/src/xmc_ccu4.c **** 
 824:../Libraries/XMCLib/src/xmc_ccu4.c **** #else
 825:../Libraries/XMCLib/src/xmc_ccu4.c ****   ins = slice->INS;
 826:../Libraries/XMCLib/src/xmc_ccu4.c ****   
 827:../Libraries/XMCLib/src/xmc_ccu4.c ****   /* First, configure the edge sensitivity */
 828:../Libraries/XMCLib/src/xmc_ccu4.c ****   pos = ((uint8_t) CCU4_CC4_INS_EV0EM_Pos) + (uint8_t)(offset << 1U);
 1033              	 .loc 1 828 0
 1034 0006 7400     	 lsl r4,r6,#1
 1035 0008 E4B2     	 uxtb r4,r4
 1036 000a 251C     	 mov r5,r4
 1037 000c 1035     	 add r5,r5,#16
 829:../Libraries/XMCLib/src/xmc_ccu4.c ****   ins &= ~(((uint32_t) XMC_CCU4_SLICE_EVENT_EDGE_CONFIG_MASK) << pos);
 1038              	 .loc 1 829 0
 1039 000e EDB2     	 uxtb r5,r5
 777:../Libraries/XMCLib/src/xmc_ccu4.c ****   uint32_t ins;
 1040              	 .loc 1 777 0
 1041 0010 4746     	 mov r7,r8
 1042              	 .loc 1 829 0
 1043 0012 AC46     	 mov ip,r5
 777:../Libraries/XMCLib/src/xmc_ccu4.c ****   uint32_t ins;
 1044              	 .loc 1 777 0
 1045 0014 80B4     	 push {r7}
 1046              	.LCFI9:
 1047              	 .cfi_def_cfa_offset 24
 1048              	 .cfi_offset 8,-24
 1049              	 .loc 1 829 0
 1050 0016 0325     	 mov r5,#3
 1051 0018 6746     	 mov r7,ip
 1052 001a A846     	 mov r8,r5
 1053 001c BD40     	 lsl r5,r5,r7
 825:../Libraries/XMCLib/src/xmc_ccu4.c ****   
 1054              	 .loc 1 825 0
 1055 001e 0368     	 ldr r3,[r0]
 1056              	.LVL135:
 830:../Libraries/XMCLib/src/xmc_ccu4.c ****   ins |= ((uint32_t) config->edge) << pos;
 831:../Libraries/XMCLib/src/xmc_ccu4.c ****   
 832:../Libraries/XMCLib/src/xmc_ccu4.c ****   /* Next, the level */
 833:../Libraries/XMCLib/src/xmc_ccu4.c ****   pos = ((uint8_t) CCU4_CC4_INS_EV0LM_Pos) + offset;
 1057              	 .loc 1 833 0
 1058 0020 1531     	 add r1,r1,#21
 1059              	.LVL136:
 829:../Libraries/XMCLib/src/xmc_ccu4.c ****   ins |= ((uint32_t) config->edge) << pos;
 1060              	 .loc 1 829 0
 1061 0022 AB43     	 bic r3,r5
 1062              	.LVL137:
 830:../Libraries/XMCLib/src/xmc_ccu4.c ****   ins |= ((uint32_t) config->edge) << pos;
 1063              	 .loc 1 830 0
 1064 0024 5578     	 ldrb r5,[r2,#1]
 834:../Libraries/XMCLib/src/xmc_ccu4.c ****   ins &= ~(((uint32_t) XMC_CCU4_SLICE_EVENT_LEVEL_CONFIG_MASK) << pos);
 1065              	 .loc 1 834 0
 1066 0026 C9B2     	 uxtb r1,r1
 830:../Libraries/XMCLib/src/xmc_ccu4.c ****   ins |= ((uint32_t) config->edge) << pos;
 1067              	 .loc 1 830 0
 1068 0028 BD40     	 lsl r5,r5,r7
 1069 002a 2B43     	 orr r3,r5
 1070              	.LVL138:
 1071              	 .loc 1 834 0
 1072 002c 0125     	 mov r5,#1
 1073 002e 8D40     	 lsl r5,r5,r1
 1074 0030 AB43     	 bic r3,r5
 1075              	.LVL139:
 835:../Libraries/XMCLib/src/xmc_ccu4.c ****   ins |= ((uint32_t) config->level) << pos;
 1076              	 .loc 1 835 0
 1077 0032 9578     	 ldrb r5,[r2,#2]
 836:../Libraries/XMCLib/src/xmc_ccu4.c ****   
 837:../Libraries/XMCLib/src/xmc_ccu4.c ****   /* Next, the debounce filter */
 838:../Libraries/XMCLib/src/xmc_ccu4.c ****   pos = ((uint8_t) CCU4_CC4_INS_LPF0M_Pos) + (uint8_t)(offset << 1U);
 839:../Libraries/XMCLib/src/xmc_ccu4.c ****   ins &= ~(((uint32_t) XMC_CCU4_SLICE_EVENT_FILTER_CONFIG_MASK) << pos);
 1078              	 .loc 1 839 0
 1079 0034 4746     	 mov r7,r8
 835:../Libraries/XMCLib/src/xmc_ccu4.c ****   ins |= ((uint32_t) config->level) << pos;
 1080              	 .loc 1 835 0
 1081 0036 8D40     	 lsl r5,r5,r1
 838:../Libraries/XMCLib/src/xmc_ccu4.c ****   ins &= ~(((uint32_t) XMC_CCU4_SLICE_EVENT_FILTER_CONFIG_MASK) << pos);
 1082              	 .loc 1 838 0
 1083 0038 1934     	 add r4,r4,#25
 835:../Libraries/XMCLib/src/xmc_ccu4.c ****   ins |= ((uint32_t) config->level) << pos;
 1084              	 .loc 1 835 0
 1085 003a 2B43     	 orr r3,r5
 1086              	.LVL140:
 840:../Libraries/XMCLib/src/xmc_ccu4.c ****   ins |= ((uint32_t) config->duration) << pos;
 1087              	 .loc 1 840 0
 1088 003c D578     	 ldrb r5,[r2,#3]
 839:../Libraries/XMCLib/src/xmc_ccu4.c ****   ins |= ((uint32_t) config->duration) << pos;
 1089              	 .loc 1 839 0
 1090 003e E4B2     	 uxtb r4,r4
 1091 0040 A740     	 lsl r7,r7,r4
 1092              	 .loc 1 840 0
 1093 0042 A540     	 lsl r5,r5,r4
 841:../Libraries/XMCLib/src/xmc_ccu4.c **** 
 842:../Libraries/XMCLib/src/xmc_ccu4.c ****   /* Finally the input */
 843:../Libraries/XMCLib/src/xmc_ccu4.c ****   pos = ((uint8_t) CCU4_CC4_INS_EV0IS_Pos) + (uint8_t)(offset << 2U);
 844:../Libraries/XMCLib/src/xmc_ccu4.c ****   ins &= ~(((uint32_t) XMC_CCU4_SLICE_EVENT_INPUT_CONFIG_MASK) << pos);
 1094              	 .loc 1 844 0
 1095 0044 0F24     	 mov r4,#15
 843:../Libraries/XMCLib/src/xmc_ccu4.c ****   ins &= ~(((uint32_t) XMC_CCU4_SLICE_EVENT_INPUT_CONFIG_MASK) << pos);
 1096              	 .loc 1 843 0
 1097 0046 B600     	 lsl r6,r6,#2
 1098              	.LVL141:
 1099              	 .loc 1 844 0
 1100 0048 F1B2     	 uxtb r1,r6
 845:../Libraries/XMCLib/src/xmc_ccu4.c ****   ins |= ((uint32_t) config->mapped_input) << pos;
 1101              	 .loc 1 845 0
 1102 004a 1278     	 ldrb r2,[r2]
 1103              	.LVL142:
 844:../Libraries/XMCLib/src/xmc_ccu4.c ****   ins |= ((uint32_t) config->mapped_input) << pos;
 1104              	 .loc 1 844 0
 1105 004c 8C40     	 lsl r4,r4,r1
 1106              	 .loc 1 845 0
 1107 004e 8A40     	 lsl r2,r2,r1
 839:../Libraries/XMCLib/src/xmc_ccu4.c ****   ins |= ((uint32_t) config->duration) << pos;
 1108              	 .loc 1 839 0
 1109 0050 BB43     	 bic r3,r7
 1110              	.LVL143:
 840:../Libraries/XMCLib/src/xmc_ccu4.c **** 
 1111              	 .loc 1 840 0
 1112 0052 2B43     	 orr r3,r5
 1113              	.LVL144:
 844:../Libraries/XMCLib/src/xmc_ccu4.c ****   ins |= ((uint32_t) config->mapped_input) << pos;
 1114              	 .loc 1 844 0
 1115 0054 A343     	 bic r3,r4
 1116              	.LVL145:
 1117              	 .loc 1 845 0
 1118 0056 1343     	 orr r3,r2
 1119              	.LVL146:
 846:../Libraries/XMCLib/src/xmc_ccu4.c **** 
 847:../Libraries/XMCLib/src/xmc_ccu4.c ****   slice->INS = ins;
 1120              	 .loc 1 847 0
 1121 0058 0360     	 str r3,[r0]
 848:../Libraries/XMCLib/src/xmc_ccu4.c **** #endif
 849:../Libraries/XMCLib/src/xmc_ccu4.c **** }
 1122              	 .loc 1 849 0
 1123              	 
 1124 005a 04BC     	 pop {r2}
 1125 005c 9046     	 mov r8,r2
 1126 005e F0BD     	 pop {r4,r5,r6,r7,pc}
 1127              	 .cfi_endproc
 1128              	.LFE112:
 1130              	 .section .text.XMC_CCU4_SLICE_SetInput,"ax",%progbits
 1131              	 .align 2
 1132              	 .global XMC_CCU4_SLICE_SetInput
 1133              	 .code 16
 1134              	 .thumb_func
 1136              	XMC_CCU4_SLICE_SetInput:
 1137              	.LFB113:
 850:../Libraries/XMCLib/src/xmc_ccu4.c **** 
 851:../Libraries/XMCLib/src/xmc_ccu4.c **** /* API to bind an input to a slice trigger event */
 852:../Libraries/XMCLib/src/xmc_ccu4.c **** void XMC_CCU4_SLICE_SetInput(XMC_CCU4_SLICE_t *const slice,
 853:../Libraries/XMCLib/src/xmc_ccu4.c ****                          const XMC_CCU4_SLICE_EVENT_t event,
 854:../Libraries/XMCLib/src/xmc_ccu4.c ****                              const XMC_CCU4_SLICE_INPUT_t input)
 855:../Libraries/XMCLib/src/xmc_ccu4.c **** {
 1138              	 .loc 1 855 0
 1139              	 .cfi_startproc
 1140              	.LVL147:
 1141 0000 10B5     	 push {r4,lr}
 1142              	.LCFI10:
 1143              	 .cfi_def_cfa_offset 8
 1144              	 .cfi_offset 4,-8
 1145              	 .cfi_offset 14,-4
 856:../Libraries/XMCLib/src/xmc_ccu4.c ****   uint32_t ins;
 857:../Libraries/XMCLib/src/xmc_ccu4.c ****   uint8_t  pos;
 858:../Libraries/XMCLib/src/xmc_ccu4.c ****   uint8_t  offset;
 859:../Libraries/XMCLib/src/xmc_ccu4.c **** 
 860:../Libraries/XMCLib/src/xmc_ccu4.c ****   XMC_ASSERT("XMC_CCU4_SLICE_SetInput:Invalid Slice Pointer", XMC_CCU4_IsValidSlice(slice));
 861:../Libraries/XMCLib/src/xmc_ccu4.c ****   XMC_ASSERT("XMC_CCU4_SLICE_SetInput:Invalid Event ID", XMC_CCU4_SLICE_CHECK_EVENT_ID(event));
 862:../Libraries/XMCLib/src/xmc_ccu4.c ****   XMC_ASSERT("XMC_CCU4_SLICE_SetInput:Invalid Input", XMC_CCU4_SLICE_IsInputvalid(input));
 863:../Libraries/XMCLib/src/xmc_ccu4.c ****   
 864:../Libraries/XMCLib/src/xmc_ccu4.c ****   /* Calculate offset with reference to event */
 865:../Libraries/XMCLib/src/xmc_ccu4.c ****   offset = ((uint8_t) event) - 1U;
 866:../Libraries/XMCLib/src/xmc_ccu4.c **** 
 867:../Libraries/XMCLib/src/xmc_ccu4.c **** #if defined(CCU4V3) /* Defined for XMC1400 devices only */
 868:../Libraries/XMCLib/src/xmc_ccu4.c ****   pos = ((uint8_t) CCU4_CC4_INS1_EV0IS_Pos) + (uint8_t) (offset << 3U);
 869:../Libraries/XMCLib/src/xmc_ccu4.c **** 
