   1              	 .cpu cortex-m0
   2              	 .fpu softvfp
   3              	 .eabi_attribute 20,1
   4              	 .eabi_attribute 21,1
   5              	 .eabi_attribute 23,3
   6              	 .eabi_attribute 24,1
   7              	 .eabi_attribute 25,1
   8              	 .eabi_attribute 26,1
   9              	 .eabi_attribute 30,6
  10              	 .eabi_attribute 34,0
  11              	 .eabi_attribute 18,4
  12              	 .code 16
  13              	 .file "lib_ascii.c"
  14              	 .text
  15              	.Ltext0:
  16              	 .cfi_sections .debug_frame
  17              	 .section .text.ASCII_IsAlpha,"ax",%progbits
  18              	 .align 2
  19              	 .global ASCII_IsAlpha
  20              	 .code 16
  21              	 .thumb_func
  23              	ASCII_IsAlpha:
  24              	.LFB0:
  25              	 .file 1 "../Dave/Generated/UCPROBE/lib_ascii.c"
   1:../Dave/Generated/UCPROBE/lib_ascii.c **** /*
   2:../Dave/Generated/UCPROBE/lib_ascii.c **** ***************************************************************************************************
   3:../Dave/Generated/UCPROBE/lib_ascii.c **** *                                                uC/LIB
   4:../Dave/Generated/UCPROBE/lib_ascii.c **** *                                        CUSTOM LIBRARY MODULES
   5:../Dave/Generated/UCPROBE/lib_ascii.c **** *
   6:../Dave/Generated/UCPROBE/lib_ascii.c **** *                         (c) Copyright 2004-2014; Micrium, Inc.; Weston, FL
   7:../Dave/Generated/UCPROBE/lib_ascii.c **** *
   8:../Dave/Generated/UCPROBE/lib_ascii.c **** *                  All rights reserved.  Protected by international copyright laws.
   9:../Dave/Generated/UCPROBE/lib_ascii.c **** *
  10:../Dave/Generated/UCPROBE/lib_ascii.c **** *                  uC/LIB is provided in source form to registered licensees ONLY.  It is
  11:../Dave/Generated/UCPROBE/lib_ascii.c **** *                  illegal to distribute this source code to any third party unless you receive
  12:../Dave/Generated/UCPROBE/lib_ascii.c **** *                  written permission by an authorized Micrium representative.  Knowledge of
  13:../Dave/Generated/UCPROBE/lib_ascii.c **** *                  the source code may NOT be used to develop a similar product.
  14:../Dave/Generated/UCPROBE/lib_ascii.c **** *
  15:../Dave/Generated/UCPROBE/lib_ascii.c **** *                  Please help us continue to provide the Embedded community with the finest
  16:../Dave/Generated/UCPROBE/lib_ascii.c **** *                  software available.  Your honesty is greatly appreciated.
  17:../Dave/Generated/UCPROBE/lib_ascii.c **** *
  18:../Dave/Generated/UCPROBE/lib_ascii.c **** *                  You can find our product's user manual, API reference, release notes and
  19:../Dave/Generated/UCPROBE/lib_ascii.c **** *                  more information at: https://doc.micrium.com
  20:../Dave/Generated/UCPROBE/lib_ascii.c **** *
  21:../Dave/Generated/UCPROBE/lib_ascii.c **** *                  You can contact us at: http://www.micrium.com
  22:../Dave/Generated/UCPROBE/lib_ascii.c **** ***************************************************************************************************
  23:../Dave/Generated/UCPROBE/lib_ascii.c **** */
  24:../Dave/Generated/UCPROBE/lib_ascii.c **** 
  25:../Dave/Generated/UCPROBE/lib_ascii.c **** /*
  26:../Dave/Generated/UCPROBE/lib_ascii.c **** ***************************************************************************************************
  27:../Dave/Generated/UCPROBE/lib_ascii.c **** *
  28:../Dave/Generated/UCPROBE/lib_ascii.c **** *                                     ASCII CHARACTER OPERATIONS
  29:../Dave/Generated/UCPROBE/lib_ascii.c **** *
  30:../Dave/Generated/UCPROBE/lib_ascii.c **** * Filename      : lib_ascii.c
  31:../Dave/Generated/UCPROBE/lib_ascii.c **** * Version       : V1.38.01
  32:../Dave/Generated/UCPROBE/lib_ascii.c **** * Programmer(s) : BAN
  33:../Dave/Generated/UCPROBE/lib_ascii.c **** *                 ITJ
  34:../Dave/Generated/UCPROBE/lib_ascii.c **** ***************************************************************************************************
  35:../Dave/Generated/UCPROBE/lib_ascii.c **** * Note(s)       : (1) NO compiler-supplied standard library functions are used in library or produc
  36:../Dave/Generated/UCPROBE/lib_ascii.c **** *
  37:../Dave/Generated/UCPROBE/lib_ascii.c **** *                     (a) ALL standard library functions are implemented in the custom library modu
  38:../Dave/Generated/UCPROBE/lib_ascii.c **** *
  39:../Dave/Generated/UCPROBE/lib_ascii.c **** *                         (1) \<Custom Library Directory>\lib_*.*
  40:../Dave/Generated/UCPROBE/lib_ascii.c **** *
  41:../Dave/Generated/UCPROBE/lib_ascii.c **** *                         (2) \<Custom Library Directory>\Ports\<cpu>\<compiler>\lib*_a.*
  42:../Dave/Generated/UCPROBE/lib_ascii.c **** *
  43:../Dave/Generated/UCPROBE/lib_ascii.c **** *                               where
  44:../Dave/Generated/UCPROBE/lib_ascii.c **** *                                       <Custom Library Directory>      directory path for custom l
  45:../Dave/Generated/UCPROBE/lib_ascii.c **** *                                       <cpu>                           directory name for specific
  46:../Dave/Generated/UCPROBE/lib_ascii.c **** *                                       <compiler>                      directory name for specific
  47:../Dave/Generated/UCPROBE/lib_ascii.c **** *
  48:../Dave/Generated/UCPROBE/lib_ascii.c **** *                     (b) Product-specific library functions are implemented in individual products
  49:../Dave/Generated/UCPROBE/lib_ascii.c **** *
  50:../Dave/Generated/UCPROBE/lib_ascii.c **** *
  51:../Dave/Generated/UCPROBE/lib_ascii.c **** *                 (2) (a) ECMA-6 '7-Bit coded Character Set' (6th edition), which corresponds to th
  52:../Dave/Generated/UCPROBE/lib_ascii.c **** *                         3rd edition of ISO 646, specifies several versions of a 7-bit character s
  53:../Dave/Generated/UCPROBE/lib_ascii.c **** *
  54:../Dave/Generated/UCPROBE/lib_ascii.c **** *                         (1) THE GENERAL VERSION, which allows characters at 0x23 and 0x24 to be g
  55:../Dave/Generated/UCPROBE/lib_ascii.c **** *                             set alternate form and allows the characters 0x40, 0x5B, 0x5D, 0x60, 
  56:../Dave/Generated/UCPROBE/lib_ascii.c **** *                             0x7D to be assigned a "unique graphic character" or to be declared as
  57:../Dave/Generated/UCPROBE/lib_ascii.c **** *                             All other characters are explicitly specified.
  58:../Dave/Generated/UCPROBE/lib_ascii.c **** *
  59:../Dave/Generated/UCPROBE/lib_ascii.c **** *                         (2) THE INTERNATIONAL REFERENCE VERSION, which explicitly specifies all c
  60:../Dave/Generated/UCPROBE/lib_ascii.c **** *                             in the 7-bit character set.
  61:../Dave/Generated/UCPROBE/lib_ascii.c **** *
  62:../Dave/Generated/UCPROBE/lib_ascii.c **** *                         (3) NATIONAL & APPLICATION-ORIENTED VERSIONS, which may be derived from t
  63:../Dave/Generated/UCPROBE/lib_ascii.c **** *                             standard in specified ways.
  64:../Dave/Generated/UCPROBE/lib_ascii.c **** *
  65:../Dave/Generated/UCPROBE/lib_ascii.c **** *                     (b) The character set represented in this file reproduces the Internation Ref
  66:../Dave/Generated/UCPROBE/lib_ascii.c **** *                         Version.  This is identical to the 7-bit character set which occupies Uni
  67:../Dave/Generated/UCPROBE/lib_ascii.c **** *                         characters 0x0000 through 0x007F.  The character names are taken from v5.
  68:../Dave/Generated/UCPROBE/lib_ascii.c **** *                         Unicode specification, with certain abbreviations so that the resulting #
  69:../Dave/Generated/UCPROBE/lib_ascii.c **** *                         names will not violate ANSI C naming restriction :
  70:../Dave/Generated/UCPROBE/lib_ascii.c **** *
  71:../Dave/Generated/UCPROBE/lib_ascii.c **** *                         (1) For the Latin capital & lowercase letters, the name components 'LETTE
  72:../Dave/Generated/UCPROBE/lib_ascii.c **** *                             & 'LETTER_SMALL' are replaced by 'UPPER' & 'LOWER', respectively.
  73:../Dave/Generated/UCPROBE/lib_ascii.c **** ***************************************************************************************************
  74:../Dave/Generated/UCPROBE/lib_ascii.c **** */
  75:../Dave/Generated/UCPROBE/lib_ascii.c **** 
  76:../Dave/Generated/UCPROBE/lib_ascii.c **** 
  77:../Dave/Generated/UCPROBE/lib_ascii.c **** /*
  78:../Dave/Generated/UCPROBE/lib_ascii.c **** ***************************************************************************************************
  79:../Dave/Generated/UCPROBE/lib_ascii.c **** *                                            INCLUDE FILES
  80:../Dave/Generated/UCPROBE/lib_ascii.c **** ***************************************************************************************************
  81:../Dave/Generated/UCPROBE/lib_ascii.c **** */
  82:../Dave/Generated/UCPROBE/lib_ascii.c **** 
  83:../Dave/Generated/UCPROBE/lib_ascii.c **** #define    MICRIUM_SOURCE
  84:../Dave/Generated/UCPROBE/lib_ascii.c **** #define    LIB_ASCII_MODULE
  85:../Dave/Generated/UCPROBE/lib_ascii.c **** #include  "lib_ascii.h"
  86:../Dave/Generated/UCPROBE/lib_ascii.c **** 
  87:../Dave/Generated/UCPROBE/lib_ascii.c **** 
  88:../Dave/Generated/UCPROBE/lib_ascii.c **** /*
  89:../Dave/Generated/UCPROBE/lib_ascii.c **** ***************************************************************************************************
  90:../Dave/Generated/UCPROBE/lib_ascii.c **** *                                            LOCAL DEFINES
  91:../Dave/Generated/UCPROBE/lib_ascii.c **** ***************************************************************************************************
  92:../Dave/Generated/UCPROBE/lib_ascii.c **** */
  93:../Dave/Generated/UCPROBE/lib_ascii.c **** 
  94:../Dave/Generated/UCPROBE/lib_ascii.c **** 
  95:../Dave/Generated/UCPROBE/lib_ascii.c **** /*
  96:../Dave/Generated/UCPROBE/lib_ascii.c **** ***************************************************************************************************
  97:../Dave/Generated/UCPROBE/lib_ascii.c **** *                                           LOCAL CONSTANTS
  98:../Dave/Generated/UCPROBE/lib_ascii.c **** ***************************************************************************************************
  99:../Dave/Generated/UCPROBE/lib_ascii.c **** */
 100:../Dave/Generated/UCPROBE/lib_ascii.c **** 
 101:../Dave/Generated/UCPROBE/lib_ascii.c **** 
 102:../Dave/Generated/UCPROBE/lib_ascii.c **** /*
 103:../Dave/Generated/UCPROBE/lib_ascii.c **** ***************************************************************************************************
 104:../Dave/Generated/UCPROBE/lib_ascii.c **** *                                          LOCAL DATA TYPES
 105:../Dave/Generated/UCPROBE/lib_ascii.c **** ***************************************************************************************************
 106:../Dave/Generated/UCPROBE/lib_ascii.c **** */
 107:../Dave/Generated/UCPROBE/lib_ascii.c **** 
 108:../Dave/Generated/UCPROBE/lib_ascii.c **** 
 109:../Dave/Generated/UCPROBE/lib_ascii.c **** /*
 110:../Dave/Generated/UCPROBE/lib_ascii.c **** ***************************************************************************************************
 111:../Dave/Generated/UCPROBE/lib_ascii.c **** *                                            LOCAL TABLES
 112:../Dave/Generated/UCPROBE/lib_ascii.c **** ***************************************************************************************************
 113:../Dave/Generated/UCPROBE/lib_ascii.c **** */
 114:../Dave/Generated/UCPROBE/lib_ascii.c **** 
 115:../Dave/Generated/UCPROBE/lib_ascii.c **** 
 116:../Dave/Generated/UCPROBE/lib_ascii.c **** /*
 117:../Dave/Generated/UCPROBE/lib_ascii.c **** ***************************************************************************************************
 118:../Dave/Generated/UCPROBE/lib_ascii.c **** *                                       LOCAL GLOBAL VARIABLES
 119:../Dave/Generated/UCPROBE/lib_ascii.c **** ***************************************************************************************************
 120:../Dave/Generated/UCPROBE/lib_ascii.c **** */
 121:../Dave/Generated/UCPROBE/lib_ascii.c **** 
 122:../Dave/Generated/UCPROBE/lib_ascii.c **** 
 123:../Dave/Generated/UCPROBE/lib_ascii.c **** /*
 124:../Dave/Generated/UCPROBE/lib_ascii.c **** ***************************************************************************************************
 125:../Dave/Generated/UCPROBE/lib_ascii.c **** *                                      LOCAL FUNCTION PROTOTYPES
 126:../Dave/Generated/UCPROBE/lib_ascii.c **** ***************************************************************************************************
 127:../Dave/Generated/UCPROBE/lib_ascii.c **** */
 128:../Dave/Generated/UCPROBE/lib_ascii.c **** 
 129:../Dave/Generated/UCPROBE/lib_ascii.c **** 
 130:../Dave/Generated/UCPROBE/lib_ascii.c **** /*
 131:../Dave/Generated/UCPROBE/lib_ascii.c **** ***************************************************************************************************
 132:../Dave/Generated/UCPROBE/lib_ascii.c **** *                                     LOCAL CONFIGURATION ERRORS
 133:../Dave/Generated/UCPROBE/lib_ascii.c **** ***************************************************************************************************
 134:../Dave/Generated/UCPROBE/lib_ascii.c **** */
 135:../Dave/Generated/UCPROBE/lib_ascii.c **** 
 136:../Dave/Generated/UCPROBE/lib_ascii.c **** 
 137:../Dave/Generated/UCPROBE/lib_ascii.c **** /*
 138:../Dave/Generated/UCPROBE/lib_ascii.c **** ***************************************************************************************************
 139:../Dave/Generated/UCPROBE/lib_ascii.c **** *                                           ASCII_IsAlpha()
 140:../Dave/Generated/UCPROBE/lib_ascii.c **** *
 141:../Dave/Generated/UCPROBE/lib_ascii.c **** * Description : Determine whether a character is an alphabetic character.
 142:../Dave/Generated/UCPROBE/lib_ascii.c **** *
 143:../Dave/Generated/UCPROBE/lib_ascii.c **** * Argument(s) : c           Character to examine.
 144:../Dave/Generated/UCPROBE/lib_ascii.c **** *
 145:../Dave/Generated/UCPROBE/lib_ascii.c **** * Return(s)   : DEF_YES, if character is     an alphabetic character.
 146:../Dave/Generated/UCPROBE/lib_ascii.c **** *
 147:../Dave/Generated/UCPROBE/lib_ascii.c **** *               DEF_NO,     if character is NOT an alphabetic character.
 148:../Dave/Generated/UCPROBE/lib_ascii.c **** *
 149:../Dave/Generated/UCPROBE/lib_ascii.c **** * Caller(s)   : Application.
 150:../Dave/Generated/UCPROBE/lib_ascii.c **** *
 151:../Dave/Generated/UCPROBE/lib_ascii.c **** * Note(s)     : (1) ISO/IEC 9899:TC2, Section 7.4.1.2.(2) states that "isalpha() returns true only 
 152:../Dave/Generated/UCPROBE/lib_ascii.c **** *                   characters for which isupper() or islower() is true".
 153:../Dave/Generated/UCPROBE/lib_ascii.c **** ***************************************************************************************************
 154:../Dave/Generated/UCPROBE/lib_ascii.c **** */
 155:../Dave/Generated/UCPROBE/lib_ascii.c **** 
 156:../Dave/Generated/UCPROBE/lib_ascii.c **** CPU_BOOLEAN  ASCII_IsAlpha (CPU_CHAR  c)
 157:../Dave/Generated/UCPROBE/lib_ascii.c **** {
  26              	 .loc 1 157 0
  27              	 .cfi_startproc
  28 0000 80B5     	 push {r7,lr}
  29              	.LCFI0:
  30              	 .cfi_def_cfa_offset 8
  31              	 .cfi_offset 7,-8
  32              	 .cfi_offset 14,-4
  33 0002 84B0     	 sub sp,sp,#16
  34              	.LCFI1:
  35              	 .cfi_def_cfa_offset 24
  36 0004 00AF     	 add r7,sp,#0
  37              	.LCFI2:
  38              	 .cfi_def_cfa_register 7
  39 0006 021C     	 mov r2,r0
  40 0008 FB1D     	 add r3,r7,#7
  41 000a 1A70     	 strb r2,[r3]
 158:../Dave/Generated/UCPROBE/lib_ascii.c ****     CPU_BOOLEAN  alpha;
 159:../Dave/Generated/UCPROBE/lib_ascii.c **** 
 160:../Dave/Generated/UCPROBE/lib_ascii.c **** 
 161:../Dave/Generated/UCPROBE/lib_ascii.c ****     alpha = ASCII_IS_ALPHA(c);
  42              	 .loc 1 161 0
  43 000c FB1D     	 add r3,r7,#7
  44 000e 1B78     	 ldrb r3,[r3]
  45 0010 402B     	 cmp r3,#64
  46 0012 03D9     	 bls .L2
  47              	 .loc 1 161 0 is_stmt 0 discriminator 1
  48 0014 FB1D     	 add r3,r7,#7
  49 0016 1B78     	 ldrb r3,[r3]
  50 0018 5A2B     	 cmp r3,#90
  51 001a 07D9     	 bls .L3
  52              	.L2:
  53              	 .loc 1 161 0 discriminator 4
  54 001c FB1D     	 add r3,r7,#7
  55 001e 1B78     	 ldrb r3,[r3]
  56 0020 602B     	 cmp r3,#96
  57 0022 05D9     	 bls .L4
  58              	 .loc 1 161 0 discriminator 5
  59 0024 FB1D     	 add r3,r7,#7
  60 0026 1B78     	 ldrb r3,[r3]
  61 0028 7A2B     	 cmp r3,#122
  62 002a 01D8     	 bhi .L4
  63              	.L3:
  64              	 .loc 1 161 0 discriminator 7
  65 002c 0122     	 mov r2,#1
  66 002e 00E0     	 b .L5
  67              	.L4:
  68              	 .loc 1 161 0 discriminator 8
  69 0030 0022     	 mov r2,#0
  70              	.L5:
  71              	 .loc 1 161 0 discriminator 10
  72 0032 0F23     	 mov r3,#15
  73 0034 FB18     	 add r3,r7,r3
  74 0036 1A70     	 strb r2,[r3]
 162:../Dave/Generated/UCPROBE/lib_ascii.c **** 
 163:../Dave/Generated/UCPROBE/lib_ascii.c ****     return (alpha);
  75              	 .loc 1 163 0 is_stmt 1 discriminator 10
  76 0038 0F23     	 mov r3,#15
  77 003a FB18     	 add r3,r7,r3
  78 003c 1B78     	 ldrb r3,[r3]
 164:../Dave/Generated/UCPROBE/lib_ascii.c **** }
  79              	 .loc 1 164 0 discriminator 10
  80 003e 181C     	 mov r0,r3
  81 0040 BD46     	 mov sp,r7
  82 0042 04B0     	 add sp,sp,#16
  83              	 
  84 0044 80BD     	 pop {r7,pc}
  85              	 .cfi_endproc
  86              	.LFE0:
  88 0046 C046     	 .section .text.ASCII_IsAlphaNum,"ax",%progbits
  89              	 .align 2
  90              	 .global ASCII_IsAlphaNum
  91              	 .code 16
  92              	 .thumb_func
  94              	ASCII_IsAlphaNum:
  95              	.LFB1:
 165:../Dave/Generated/UCPROBE/lib_ascii.c **** 
 166:../Dave/Generated/UCPROBE/lib_ascii.c **** 
 167:../Dave/Generated/UCPROBE/lib_ascii.c **** /*
 168:../Dave/Generated/UCPROBE/lib_ascii.c **** ***************************************************************************************************
 169:../Dave/Generated/UCPROBE/lib_ascii.c **** *                                         ASCII_IsAlphaNum()
 170:../Dave/Generated/UCPROBE/lib_ascii.c **** *
 171:../Dave/Generated/UCPROBE/lib_ascii.c **** * Description : Determine whether a character is an alphanumeric character.
 172:../Dave/Generated/UCPROBE/lib_ascii.c **** *
 173:../Dave/Generated/UCPROBE/lib_ascii.c **** * Argument(s) : c           Character to examine.
 174:../Dave/Generated/UCPROBE/lib_ascii.c **** *
 175:../Dave/Generated/UCPROBE/lib_ascii.c **** * Return(s)   : DEF_YES, if character is     an alphanumeric character.
 176:../Dave/Generated/UCPROBE/lib_ascii.c **** *
 177:../Dave/Generated/UCPROBE/lib_ascii.c **** *               DEF_NO,     if character is NOT an alphanumeric character.
 178:../Dave/Generated/UCPROBE/lib_ascii.c **** *
 179:../Dave/Generated/UCPROBE/lib_ascii.c **** * Caller(s)   : Application.
 180:../Dave/Generated/UCPROBE/lib_ascii.c **** *
 181:../Dave/Generated/UCPROBE/lib_ascii.c **** * Note(s)     : (1) ISO/IEC 9899:TC2, Section 7.4.1.1.(2) states that "isalnum() ... tests for any 
 182:../Dave/Generated/UCPROBE/lib_ascii.c **** *                   for which isalpha() or isdigit() is true".
 183:../Dave/Generated/UCPROBE/lib_ascii.c **** ***************************************************************************************************
 184:../Dave/Generated/UCPROBE/lib_ascii.c **** */
 185:../Dave/Generated/UCPROBE/lib_ascii.c **** 
 186:../Dave/Generated/UCPROBE/lib_ascii.c **** CPU_BOOLEAN  ASCII_IsAlphaNum (CPU_CHAR  c)
 187:../Dave/Generated/UCPROBE/lib_ascii.c **** {
  96              	 .loc 1 187 0
  97              	 .cfi_startproc
  98 0000 80B5     	 push {r7,lr}
  99              	.LCFI3:
 100              	 .cfi_def_cfa_offset 8
 101              	 .cfi_offset 7,-8
 102              	 .cfi_offset 14,-4
 103 0002 84B0     	 sub sp,sp,#16
 104              	.LCFI4:
 105              	 .cfi_def_cfa_offset 24
 106 0004 00AF     	 add r7,sp,#0
 107              	.LCFI5:
 108              	 .cfi_def_cfa_register 7
 109 0006 021C     	 mov r2,r0
 110 0008 FB1D     	 add r3,r7,#7
 111 000a 1A70     	 strb r2,[r3]
 188:../Dave/Generated/UCPROBE/lib_ascii.c ****     CPU_BOOLEAN  alpha_num;
 189:../Dave/Generated/UCPROBE/lib_ascii.c **** 
 190:../Dave/Generated/UCPROBE/lib_ascii.c **** 
 191:../Dave/Generated/UCPROBE/lib_ascii.c ****     alpha_num = ASCII_IS_ALPHA_NUM(c);
 112              	 .loc 1 191 0
 113 000c FB1D     	 add r3,r7,#7
 114 000e 1B78     	 ldrb r3,[r3]
 115 0010 402B     	 cmp r3,#64
 116 0012 03D9     	 bls .L8
 117              	 .loc 1 191 0 is_stmt 0 discriminator 1
 118 0014 FB1D     	 add r3,r7,#7
 119 0016 1B78     	 ldrb r3,[r3]
 120 0018 5A2B     	 cmp r3,#90
 121 001a 0FD9     	 bls .L9
 122              	.L8:
 123              	 .loc 1 191 0 discriminator 4
 124 001c FB1D     	 add r3,r7,#7
 125 001e 1B78     	 ldrb r3,[r3]
 126 0020 602B     	 cmp r3,#96
 127 0022 03D9     	 bls .L10
 128              	 .loc 1 191 0 discriminator 5
 129 0024 FB1D     	 add r3,r7,#7
 130 0026 1B78     	 ldrb r3,[r3]
 131 0028 7A2B     	 cmp r3,#122
 132 002a 07D9     	 bls .L9
 133              	.L10:
 134              	 .loc 1 191 0 discriminator 8
 135 002c FB1D     	 add r3,r7,#7
 136 002e 1B78     	 ldrb r3,[r3]
 137 0030 2F2B     	 cmp r3,#47
 138 0032 05D9     	 bls .L11
 139              	 .loc 1 191 0 discriminator 9
 140 0034 FB1D     	 add r3,r7,#7
 141 0036 1B78     	 ldrb r3,[r3]
 142 0038 392B     	 cmp r3,#57
 143 003a 01D8     	 bhi .L11
 144              	.L9:
 145              	 .loc 1 191 0 discriminator 11
 146 003c 0122     	 mov r2,#1
 147 003e 00E0     	 b .L12
 148              	.L11:
 149              	 .loc 1 191 0 discriminator 12
 150 0040 0022     	 mov r2,#0
 151              	.L12:
 152              	 .loc 1 191 0 discriminator 14
 153 0042 0F23     	 mov r3,#15
 154 0044 FB18     	 add r3,r7,r3
 155 0046 1A70     	 strb r2,[r3]
 192:../Dave/Generated/UCPROBE/lib_ascii.c **** 
 193:../Dave/Generated/UCPROBE/lib_ascii.c ****     return (alpha_num);
 156              	 .loc 1 193 0 is_stmt 1 discriminator 14
 157 0048 0F23     	 mov r3,#15
 158 004a FB18     	 add r3,r7,r3
 159 004c 1B78     	 ldrb r3,[r3]
 194:../Dave/Generated/UCPROBE/lib_ascii.c **** }
 160              	 .loc 1 194 0 discriminator 14
 161 004e 181C     	 mov r0,r3
 162 0050 BD46     	 mov sp,r7
 163 0052 04B0     	 add sp,sp,#16
 164              	 
 165 0054 80BD     	 pop {r7,pc}
 166              	 .cfi_endproc
 167              	.LFE1:
 169 0056 C046     	 .section .text.ASCII_IsLower,"ax",%progbits
 170              	 .align 2
 171              	 .global ASCII_IsLower
 172              	 .code 16
 173              	 .thumb_func
 175              	ASCII_IsLower:
 176              	.LFB2:
 195:../Dave/Generated/UCPROBE/lib_ascii.c **** 
 196:../Dave/Generated/UCPROBE/lib_ascii.c **** 
 197:../Dave/Generated/UCPROBE/lib_ascii.c **** /*
 198:../Dave/Generated/UCPROBE/lib_ascii.c **** ***************************************************************************************************
 199:../Dave/Generated/UCPROBE/lib_ascii.c **** *                                           ASCII_IsLower()
 200:../Dave/Generated/UCPROBE/lib_ascii.c **** *
 201:../Dave/Generated/UCPROBE/lib_ascii.c **** * Description : Determine whether a character is a lowercase alphabetic character.
 202:../Dave/Generated/UCPROBE/lib_ascii.c **** *
 203:../Dave/Generated/UCPROBE/lib_ascii.c **** * Argument(s) : c           Character to examine.
 204:../Dave/Generated/UCPROBE/lib_ascii.c **** *
 205:../Dave/Generated/UCPROBE/lib_ascii.c **** * Return(s)   : DEF_YES, if character is     a lowercase alphabetic character.
 206:../Dave/Generated/UCPROBE/lib_ascii.c **** *
 207:../Dave/Generated/UCPROBE/lib_ascii.c **** *               DEF_NO,     if character is NOT a lowercase alphabetic character.
 208:../Dave/Generated/UCPROBE/lib_ascii.c **** *
 209:../Dave/Generated/UCPROBE/lib_ascii.c **** * Caller(s)   : Application.
 210:../Dave/Generated/UCPROBE/lib_ascii.c **** *
 211:../Dave/Generated/UCPROBE/lib_ascii.c **** * Note(s)     : (1) ISO/IEC 9899:TC2, Section 7.4.1.7.(2)  states that "islower() returns true only
 212:../Dave/Generated/UCPROBE/lib_ascii.c **** *                   the lowercase letters".
 213:../Dave/Generated/UCPROBE/lib_ascii.c **** ***************************************************************************************************
 214:../Dave/Generated/UCPROBE/lib_ascii.c **** */
 215:../Dave/Generated/UCPROBE/lib_ascii.c **** 
 216:../Dave/Generated/UCPROBE/lib_ascii.c **** CPU_BOOLEAN  ASCII_IsLower (CPU_CHAR  c)
 217:../Dave/Generated/UCPROBE/lib_ascii.c **** {
 177              	 .loc 1 217 0
 178              	 .cfi_startproc
 179 0000 80B5     	 push {r7,lr}
 180              	.LCFI6:
 181              	 .cfi_def_cfa_offset 8
 182              	 .cfi_offset 7,-8
 183              	 .cfi_offset 14,-4
 184 0002 84B0     	 sub sp,sp,#16
 185              	.LCFI7:
 186              	 .cfi_def_cfa_offset 24
 187 0004 00AF     	 add r7,sp,#0
 188              	.LCFI8:
 189              	 .cfi_def_cfa_register 7
 190 0006 021C     	 mov r2,r0
 191 0008 FB1D     	 add r3,r7,#7
 192 000a 1A70     	 strb r2,[r3]
 218:../Dave/Generated/UCPROBE/lib_ascii.c ****     CPU_BOOLEAN  lower;
 219:../Dave/Generated/UCPROBE/lib_ascii.c **** 
 220:../Dave/Generated/UCPROBE/lib_ascii.c **** 
 221:../Dave/Generated/UCPROBE/lib_ascii.c ****     lower = ASCII_IS_LOWER(c);
 193              	 .loc 1 221 0
 194 000c FB1D     	 add r3,r7,#7
 195 000e 1B78     	 ldrb r3,[r3]
 196 0010 602B     	 cmp r3,#96
 197 0012 05D9     	 bls .L15
 198              	 .loc 1 221 0 is_stmt 0 discriminator 1
 199 0014 FB1D     	 add r3,r7,#7
 200 0016 1B78     	 ldrb r3,[r3]
 201 0018 7A2B     	 cmp r3,#122
 202 001a 01D8     	 bhi .L15
 203              	 .loc 1 221 0 discriminator 3
 204 001c 0122     	 mov r2,#1
 205 001e 00E0     	 b .L16
 206              	.L15:
 207              	 .loc 1 221 0 discriminator 4
 208 0020 0022     	 mov r2,#0
 209              	.L16:
 210              	 .loc 1 221 0 discriminator 6
 211 0022 0F23     	 mov r3,#15
 212 0024 FB18     	 add r3,r7,r3
 213 0026 1A70     	 strb r2,[r3]
 222:../Dave/Generated/UCPROBE/lib_ascii.c **** 
 223:../Dave/Generated/UCPROBE/lib_ascii.c ****     return (lower);
 214              	 .loc 1 223 0 is_stmt 1 discriminator 6
 215 0028 0F23     	 mov r3,#15
 216 002a FB18     	 add r3,r7,r3
 217 002c 1B78     	 ldrb r3,[r3]
 224:../Dave/Generated/UCPROBE/lib_ascii.c **** }
 218              	 .loc 1 224 0 discriminator 6
 219 002e 181C     	 mov r0,r3
 220 0030 BD46     	 mov sp,r7
 221 0032 04B0     	 add sp,sp,#16
 222              	 
 223 0034 80BD     	 pop {r7,pc}
 224              	 .cfi_endproc
 225              	.LFE2:
 227 0036 C046     	 .section .text.ASCII_IsUpper,"ax",%progbits
 228              	 .align 2
 229              	 .global ASCII_IsUpper
 230              	 .code 16
 231              	 .thumb_func
 233              	ASCII_IsUpper:
 234              	.LFB3:
 225:../Dave/Generated/UCPROBE/lib_ascii.c **** 
 226:../Dave/Generated/UCPROBE/lib_ascii.c **** 
 227:../Dave/Generated/UCPROBE/lib_ascii.c **** /*
 228:../Dave/Generated/UCPROBE/lib_ascii.c **** ***************************************************************************************************
 229:../Dave/Generated/UCPROBE/lib_ascii.c **** *                                           ASCII_IsUpper()
 230:../Dave/Generated/UCPROBE/lib_ascii.c **** *
 231:../Dave/Generated/UCPROBE/lib_ascii.c **** * Description : Determine whether a character is an uppercase alphabetic character.
 232:../Dave/Generated/UCPROBE/lib_ascii.c **** *
 233:../Dave/Generated/UCPROBE/lib_ascii.c **** * Argument(s) : c           Character to examine.
 234:../Dave/Generated/UCPROBE/lib_ascii.c **** *
 235:../Dave/Generated/UCPROBE/lib_ascii.c **** * Return(s)   : DEF_YES, if character is     an uppercase alphabetic character.
 236:../Dave/Generated/UCPROBE/lib_ascii.c **** *
 237:../Dave/Generated/UCPROBE/lib_ascii.c **** *               DEF_NO,     if character is NOT an uppercase alphabetic character.
 238:../Dave/Generated/UCPROBE/lib_ascii.c **** *
 239:../Dave/Generated/UCPROBE/lib_ascii.c **** * Caller(s)   : Application.
 240:../Dave/Generated/UCPROBE/lib_ascii.c **** *
 241:../Dave/Generated/UCPROBE/lib_ascii.c **** * Note(s)     : (1) ISO/IEC 9899:TC2, Section 7.4.1.11.(2) states that "isupper() returns true only
 242:../Dave/Generated/UCPROBE/lib_ascii.c **** *                   the uppercase letters".
 243:../Dave/Generated/UCPROBE/lib_ascii.c **** ***************************************************************************************************
 244:../Dave/Generated/UCPROBE/lib_ascii.c **** */
 245:../Dave/Generated/UCPROBE/lib_ascii.c **** 
 246:../Dave/Generated/UCPROBE/lib_ascii.c **** CPU_BOOLEAN  ASCII_IsUpper (CPU_CHAR  c)
 247:../Dave/Generated/UCPROBE/lib_ascii.c **** {
 235              	 .loc 1 247 0
 236              	 .cfi_startproc
 237 0000 80B5     	 push {r7,lr}
 238              	.LCFI9:
 239              	 .cfi_def_cfa_offset 8
 240              	 .cfi_offset 7,-8
 241              	 .cfi_offset 14,-4
 242 0002 84B0     	 sub sp,sp,#16
 243              	.LCFI10:
 244              	 .cfi_def_cfa_offset 24
 245 0004 00AF     	 add r7,sp,#0
 246              	.LCFI11:
 247              	 .cfi_def_cfa_register 7
 248 0006 021C     	 mov r2,r0
 249 0008 FB1D     	 add r3,r7,#7
 250 000a 1A70     	 strb r2,[r3]
 248:../Dave/Generated/UCPROBE/lib_ascii.c ****     CPU_BOOLEAN  upper;
 249:../Dave/Generated/UCPROBE/lib_ascii.c **** 
 250:../Dave/Generated/UCPROBE/lib_ascii.c **** 
 251:../Dave/Generated/UCPROBE/lib_ascii.c ****     upper = ASCII_IS_UPPER(c);
 251              	 .loc 1 251 0
 252 000c FB1D     	 add r3,r7,#7
 253 000e 1B78     	 ldrb r3,[r3]
 254 0010 402B     	 cmp r3,#64
 255 0012 05D9     	 bls .L19
 256              	 .loc 1 251 0 is_stmt 0 discriminator 1
 257 0014 FB1D     	 add r3,r7,#7
 258 0016 1B78     	 ldrb r3,[r3]
 259 0018 5A2B     	 cmp r3,#90
 260 001a 01D8     	 bhi .L19
 261              	 .loc 1 251 0 discriminator 3
 262 001c 0122     	 mov r2,#1
 263 001e 00E0     	 b .L20
 264              	.L19:
 265              	 .loc 1 251 0 discriminator 4
 266 0020 0022     	 mov r2,#0
 267              	.L20:
 268              	 .loc 1 251 0 discriminator 6
 269 0022 0F23     	 mov r3,#15
 270 0024 FB18     	 add r3,r7,r3
 271 0026 1A70     	 strb r2,[r3]
 252:../Dave/Generated/UCPROBE/lib_ascii.c **** 
 253:../Dave/Generated/UCPROBE/lib_ascii.c ****     return (upper);
 272              	 .loc 1 253 0 is_stmt 1 discriminator 6
 273 0028 0F23     	 mov r3,#15
 274 002a FB18     	 add r3,r7,r3
 275 002c 1B78     	 ldrb r3,[r3]
 254:../Dave/Generated/UCPROBE/lib_ascii.c **** }
 276              	 .loc 1 254 0 discriminator 6
 277 002e 181C     	 mov r0,r3
 278 0030 BD46     	 mov sp,r7
 279 0032 04B0     	 add sp,sp,#16
 280              	 
 281 0034 80BD     	 pop {r7,pc}
 282              	 .cfi_endproc
 283              	.LFE3:
 285 0036 C046     	 .section .text.ASCII_IsDig,"ax",%progbits
 286              	 .align 2
 287              	 .global ASCII_IsDig
 288              	 .code 16
 289              	 .thumb_func
 291              	ASCII_IsDig:
 292              	.LFB4:
 255:../Dave/Generated/UCPROBE/lib_ascii.c **** 
 256:../Dave/Generated/UCPROBE/lib_ascii.c **** 
 257:../Dave/Generated/UCPROBE/lib_ascii.c **** /*
 258:../Dave/Generated/UCPROBE/lib_ascii.c **** ***************************************************************************************************
 259:../Dave/Generated/UCPROBE/lib_ascii.c **** *                                            ASCII_IsDig()
 260:../Dave/Generated/UCPROBE/lib_ascii.c **** *
 261:../Dave/Generated/UCPROBE/lib_ascii.c **** * Description : Determine whether a character is a decimal-digit character.
 262:../Dave/Generated/UCPROBE/lib_ascii.c **** *
 263:../Dave/Generated/UCPROBE/lib_ascii.c **** * Argument(s) : c           Character to examine.
 264:../Dave/Generated/UCPROBE/lib_ascii.c **** *
 265:../Dave/Generated/UCPROBE/lib_ascii.c **** * Return(s)   : DEF_YES, if character is     a decimal-digit character.
 266:../Dave/Generated/UCPROBE/lib_ascii.c **** *
 267:../Dave/Generated/UCPROBE/lib_ascii.c **** *               DEF_NO,     if character is NOT a decimal-digit character.
 268:../Dave/Generated/UCPROBE/lib_ascii.c **** *
 269:../Dave/Generated/UCPROBE/lib_ascii.c **** * Caller(s)   : Application.
 270:../Dave/Generated/UCPROBE/lib_ascii.c **** *
 271:../Dave/Generated/UCPROBE/lib_ascii.c **** * Note(s)     : (1) ISO/IEC 9899:TC2, Section 7.4.1.5.(2)  states that "isdigit()  ... tests for an
 272:../Dave/Generated/UCPROBE/lib_ascii.c **** *                   decimal-digit character".
 273:../Dave/Generated/UCPROBE/lib_ascii.c **** ***************************************************************************************************
 274:../Dave/Generated/UCPROBE/lib_ascii.c **** */
 275:../Dave/Generated/UCPROBE/lib_ascii.c **** 
 276:../Dave/Generated/UCPROBE/lib_ascii.c **** CPU_BOOLEAN  ASCII_IsDig (CPU_CHAR  c)
 277:../Dave/Generated/UCPROBE/lib_ascii.c **** {
 293              	 .loc 1 277 0
 294              	 .cfi_startproc
 295 0000 80B5     	 push {r7,lr}
 296              	.LCFI12:
 297              	 .cfi_def_cfa_offset 8
 298              	 .cfi_offset 7,-8
 299              	 .cfi_offset 14,-4
 300 0002 84B0     	 sub sp,sp,#16
 301              	.LCFI13:
 302              	 .cfi_def_cfa_offset 24
 303 0004 00AF     	 add r7,sp,#0
 304              	.LCFI14:
 305              	 .cfi_def_cfa_register 7
 306 0006 021C     	 mov r2,r0
 307 0008 FB1D     	 add r3,r7,#7
 308 000a 1A70     	 strb r2,[r3]
 278:../Dave/Generated/UCPROBE/lib_ascii.c ****     CPU_BOOLEAN  dig;
 279:../Dave/Generated/UCPROBE/lib_ascii.c **** 
 280:../Dave/Generated/UCPROBE/lib_ascii.c **** 
 281:../Dave/Generated/UCPROBE/lib_ascii.c ****     dig = ASCII_IS_DIG(c);
 309              	 .loc 1 281 0
 310 000c FB1D     	 add r3,r7,#7
 311 000e 1B78     	 ldrb r3,[r3]
 312 0010 2F2B     	 cmp r3,#47
 313 0012 05D9     	 bls .L23
 314              	 .loc 1 281 0 is_stmt 0 discriminator 1
 315 0014 FB1D     	 add r3,r7,#7
 316 0016 1B78     	 ldrb r3,[r3]
 317 0018 392B     	 cmp r3,#57
 318 001a 01D8     	 bhi .L23
 319              	 .loc 1 281 0 discriminator 3
 320 001c 0122     	 mov r2,#1
 321 001e 00E0     	 b .L24
 322              	.L23:
 323              	 .loc 1 281 0 discriminator 4
 324 0020 0022     	 mov r2,#0
 325              	.L24:
 326              	 .loc 1 281 0 discriminator 6
 327 0022 0F23     	 mov r3,#15
 328 0024 FB18     	 add r3,r7,r3
 329 0026 1A70     	 strb r2,[r3]
 282:../Dave/Generated/UCPROBE/lib_ascii.c **** 
 283:../Dave/Generated/UCPROBE/lib_ascii.c ****     return (dig);
 330              	 .loc 1 283 0 is_stmt 1 discriminator 6
 331 0028 0F23     	 mov r3,#15
 332 002a FB18     	 add r3,r7,r3
 333 002c 1B78     	 ldrb r3,[r3]
 284:../Dave/Generated/UCPROBE/lib_ascii.c **** }
 334              	 .loc 1 284 0 discriminator 6
 335 002e 181C     	 mov r0,r3
 336 0030 BD46     	 mov sp,r7
 337 0032 04B0     	 add sp,sp,#16
 338              	 
 339 0034 80BD     	 pop {r7,pc}
 340              	 .cfi_endproc
 341              	.LFE4:
 343 0036 C046     	 .section .text.ASCII_IsDigOct,"ax",%progbits
 344              	 .align 2
 345              	 .global ASCII_IsDigOct
 346              	 .code 16
 347              	 .thumb_func
 349              	ASCII_IsDigOct:
 350              	.LFB5:
 285:../Dave/Generated/UCPROBE/lib_ascii.c **** 
 286:../Dave/Generated/UCPROBE/lib_ascii.c **** 
 287:../Dave/Generated/UCPROBE/lib_ascii.c **** /*
 288:../Dave/Generated/UCPROBE/lib_ascii.c **** ***************************************************************************************************
 289:../Dave/Generated/UCPROBE/lib_ascii.c **** *                                          ASCII_IsDigOct()
 290:../Dave/Generated/UCPROBE/lib_ascii.c **** *
 291:../Dave/Generated/UCPROBE/lib_ascii.c **** * Description : Determine whether a character is an octal-digit character.
 292:../Dave/Generated/UCPROBE/lib_ascii.c **** *
 293:../Dave/Generated/UCPROBE/lib_ascii.c **** * Argument(s) : c           Character to examine.
 294:../Dave/Generated/UCPROBE/lib_ascii.c **** *
 295:../Dave/Generated/UCPROBE/lib_ascii.c **** * Return(s)   : DEF_YES, if character is     an octal-digit character.
 296:../Dave/Generated/UCPROBE/lib_ascii.c **** *
 297:../Dave/Generated/UCPROBE/lib_ascii.c **** *               DEF_NO,     if character is NOT an octal-digit character.
 298:../Dave/Generated/UCPROBE/lib_ascii.c **** *
 299:../Dave/Generated/UCPROBE/lib_ascii.c **** * Caller(s)   : Application.
 300:../Dave/Generated/UCPROBE/lib_ascii.c **** *
 301:../Dave/Generated/UCPROBE/lib_ascii.c **** * Note(s)     : none.
 302:../Dave/Generated/UCPROBE/lib_ascii.c **** ***************************************************************************************************
 303:../Dave/Generated/UCPROBE/lib_ascii.c **** */
 304:../Dave/Generated/UCPROBE/lib_ascii.c **** 
 305:../Dave/Generated/UCPROBE/lib_ascii.c **** CPU_BOOLEAN  ASCII_IsDigOct (CPU_CHAR  c)
 306:../Dave/Generated/UCPROBE/lib_ascii.c **** {
 351              	 .loc 1 306 0
 352              	 .cfi_startproc
 353 0000 80B5     	 push {r7,lr}
 354              	.LCFI15:
 355              	 .cfi_def_cfa_offset 8
 356              	 .cfi_offset 7,-8
 357              	 .cfi_offset 14,-4
 358 0002 84B0     	 sub sp,sp,#16
 359              	.LCFI16:
 360              	 .cfi_def_cfa_offset 24
 361 0004 00AF     	 add r7,sp,#0
 362              	.LCFI17:
 363              	 .cfi_def_cfa_register 7
 364 0006 021C     	 mov r2,r0
 365 0008 FB1D     	 add r3,r7,#7
 366 000a 1A70     	 strb r2,[r3]
 307:../Dave/Generated/UCPROBE/lib_ascii.c ****     CPU_BOOLEAN  dig_oct;
 308:../Dave/Generated/UCPROBE/lib_ascii.c **** 
 309:../Dave/Generated/UCPROBE/lib_ascii.c **** 
 310:../Dave/Generated/UCPROBE/lib_ascii.c ****     dig_oct = ASCII_IS_DIG_OCT(c);
 367              	 .loc 1 310 0
 368 000c FB1D     	 add r3,r7,#7
 369 000e 1B78     	 ldrb r3,[r3]
 370 0010 2F2B     	 cmp r3,#47
 371 0012 05D9     	 bls .L27
 372              	 .loc 1 310 0 is_stmt 0 discriminator 1
 373 0014 FB1D     	 add r3,r7,#7
 374 0016 1B78     	 ldrb r3,[r3]
 375 0018 372B     	 cmp r3,#55
 376 001a 01D8     	 bhi .L27
 377              	 .loc 1 310 0 discriminator 3
 378 001c 0122     	 mov r2,#1
 379 001e 00E0     	 b .L28
 380              	.L27:
 381              	 .loc 1 310 0 discriminator 4
 382 0020 0022     	 mov r2,#0
 383              	.L28:
 384              	 .loc 1 310 0 discriminator 6
 385 0022 0F23     	 mov r3,#15
 386 0024 FB18     	 add r3,r7,r3
 387 0026 1A70     	 strb r2,[r3]
 311:../Dave/Generated/UCPROBE/lib_ascii.c **** 
 312:../Dave/Generated/UCPROBE/lib_ascii.c ****     return (dig_oct);
 388              	 .loc 1 312 0 is_stmt 1 discriminator 6
 389 0028 0F23     	 mov r3,#15
 390 002a FB18     	 add r3,r7,r3
 391 002c 1B78     	 ldrb r3,[r3]
 313:../Dave/Generated/UCPROBE/lib_ascii.c **** }
 392              	 .loc 1 313 0 discriminator 6
 393 002e 181C     	 mov r0,r3
 394 0030 BD46     	 mov sp,r7
 395 0032 04B0     	 add sp,sp,#16
 396              	 
 397 0034 80BD     	 pop {r7,pc}
 398              	 .cfi_endproc
 399              	.LFE5:
 401 0036 C046     	 .section .text.ASCII_IsDigHex,"ax",%progbits
 402              	 .align 2
 403              	 .global ASCII_IsDigHex
 404              	 .code 16
 405              	 .thumb_func
 407              	ASCII_IsDigHex:
 408              	.LFB6:
 314:../Dave/Generated/UCPROBE/lib_ascii.c **** 
 315:../Dave/Generated/UCPROBE/lib_ascii.c **** 
 316:../Dave/Generated/UCPROBE/lib_ascii.c **** /*
 317:../Dave/Generated/UCPROBE/lib_ascii.c **** ***************************************************************************************************
 318:../Dave/Generated/UCPROBE/lib_ascii.c **** *                                          ASCII_IsDigHex()
 319:../Dave/Generated/UCPROBE/lib_ascii.c **** *
 320:../Dave/Generated/UCPROBE/lib_ascii.c **** * Description : Determine whether a character is a hexadecimal-digit character.
 321:../Dave/Generated/UCPROBE/lib_ascii.c **** *
 322:../Dave/Generated/UCPROBE/lib_ascii.c **** * Argument(s) : c           Character to examine.
 323:../Dave/Generated/UCPROBE/lib_ascii.c **** *
 324:../Dave/Generated/UCPROBE/lib_ascii.c **** * Return(s)   : DEF_YES, if character is     a hexadecimal-digit character.
 325:../Dave/Generated/UCPROBE/lib_ascii.c **** *
 326:../Dave/Generated/UCPROBE/lib_ascii.c **** *               DEF_NO,     if character is NOT a hexadecimal-digit character.
 327:../Dave/Generated/UCPROBE/lib_ascii.c **** *
 328:../Dave/Generated/UCPROBE/lib_ascii.c **** * Caller(s)   : Application.
 329:../Dave/Generated/UCPROBE/lib_ascii.c **** *
 330:../Dave/Generated/UCPROBE/lib_ascii.c **** * Note(s)     : (1) ISO/IEC 9899:TC2, Section 7.4.1.12.(2) states that "isxdigit() ... tests for an
 331:../Dave/Generated/UCPROBE/lib_ascii.c **** *                   hexadecimal-digit character".
 332:../Dave/Generated/UCPROBE/lib_ascii.c **** ***************************************************************************************************
 333:../Dave/Generated/UCPROBE/lib_ascii.c **** */
 334:../Dave/Generated/UCPROBE/lib_ascii.c **** 
 335:../Dave/Generated/UCPROBE/lib_ascii.c **** CPU_BOOLEAN  ASCII_IsDigHex (CPU_CHAR  c)
 336:../Dave/Generated/UCPROBE/lib_ascii.c **** {
 409              	 .loc 1 336 0
 410              	 .cfi_startproc
 411 0000 80B5     	 push {r7,lr}
 412              	.LCFI18:
 413              	 .cfi_def_cfa_offset 8
 414              	 .cfi_offset 7,-8
 415              	 .cfi_offset 14,-4
 416 0002 84B0     	 sub sp,sp,#16
 417              	.LCFI19:
 418              	 .cfi_def_cfa_offset 24
 419 0004 00AF     	 add r7,sp,#0
 420              	.LCFI20:
 421              	 .cfi_def_cfa_register 7
 422 0006 021C     	 mov r2,r0
 423 0008 FB1D     	 add r3,r7,#7
 424 000a 1A70     	 strb r2,[r3]
 337:../Dave/Generated/UCPROBE/lib_ascii.c ****     CPU_BOOLEAN  dig_hex;
 338:../Dave/Generated/UCPROBE/lib_ascii.c **** 
 339:../Dave/Generated/UCPROBE/lib_ascii.c **** 
 340:../Dave/Generated/UCPROBE/lib_ascii.c ****     dig_hex = ASCII_IS_DIG_HEX(c);
 425              	 .loc 1 340 0
 426 000c FB1D     	 add r3,r7,#7
 427 000e 1B78     	 ldrb r3,[r3]
 428 0010 2F2B     	 cmp r3,#47
 429 0012 03D9     	 bls .L31
 430              	 .loc 1 340 0 is_stmt 0 discriminator 1
 431 0014 FB1D     	 add r3,r7,#7
 432 0016 1B78     	 ldrb r3,[r3]
 433 0018 392B     	 cmp r3,#57
 434 001a 0FD9     	 bls .L32
 435              	.L31:
 436              	 .loc 1 340 0 discriminator 4
 437 001c FB1D     	 add r3,r7,#7
 438 001e 1B78     	 ldrb r3,[r3]
 439 0020 402B     	 cmp r3,#64
 440 0022 03D9     	 bls .L33
 441              	 .loc 1 340 0 discriminator 5
 442 0024 FB1D     	 add r3,r7,#7
 443 0026 1B78     	 ldrb r3,[r3]
 444 0028 462B     	 cmp r3,#70
 445 002a 07D9     	 bls .L32
 446              	.L33:
 447              	 .loc 1 340 0 discriminator 8
 448 002c FB1D     	 add r3,r7,#7
 449 002e 1B78     	 ldrb r3,[r3]
 450 0030 602B     	 cmp r3,#96
 451 0032 05D9     	 bls .L34
 452              	 .loc 1 340 0 discriminator 9
 453 0034 FB1D     	 add r3,r7,#7
 454 0036 1B78     	 ldrb r3,[r3]
 455 0038 662B     	 cmp r3,#102
 456 003a 01D8     	 bhi .L34
 457              	.L32:
 458              	 .loc 1 340 0 discriminator 11
 459 003c 0122     	 mov r2,#1
 460 003e 00E0     	 b .L35
 461              	.L34:
 462              	 .loc 1 340 0 discriminator 12
 463 0040 0022     	 mov r2,#0
 464              	.L35:
 465              	 .loc 1 340 0 discriminator 14
 466 0042 0F23     	 mov r3,#15
 467 0044 FB18     	 add r3,r7,r3
 468 0046 1A70     	 strb r2,[r3]
 341:../Dave/Generated/UCPROBE/lib_ascii.c **** 
 342:../Dave/Generated/UCPROBE/lib_ascii.c ****     return (dig_hex);
 469              	 .loc 1 342 0 is_stmt 1 discriminator 14
 470 0048 0F23     	 mov r3,#15
 471 004a FB18     	 add r3,r7,r3
 472 004c 1B78     	 ldrb r3,[r3]
 343:../Dave/Generated/UCPROBE/lib_ascii.c **** }
 473              	 .loc 1 343 0 discriminator 14
 474 004e 181C     	 mov r0,r3
 475 0050 BD46     	 mov sp,r7
 476 0052 04B0     	 add sp,sp,#16
 477              	 
 478 0054 80BD     	 pop {r7,pc}
 479              	 .cfi_endproc
 480              	.LFE6:
 482 0056 C046     	 .section .text.ASCII_IsBlank,"ax",%progbits
 483              	 .align 2
 484              	 .global ASCII_IsBlank
 485              	 .code 16
 486              	 .thumb_func
 488              	ASCII_IsBlank:
 489              	.LFB7:
 344:../Dave/Generated/UCPROBE/lib_ascii.c **** 
 345:../Dave/Generated/UCPROBE/lib_ascii.c **** 
 346:../Dave/Generated/UCPROBE/lib_ascii.c **** /*
 347:../Dave/Generated/UCPROBE/lib_ascii.c **** ***************************************************************************************************
 348:../Dave/Generated/UCPROBE/lib_ascii.c **** *                                           ASCII_IsBlank()
 349:../Dave/Generated/UCPROBE/lib_ascii.c **** *
 350:../Dave/Generated/UCPROBE/lib_ascii.c **** * Description : Determine whether a character is a standard blank character.
 351:../Dave/Generated/UCPROBE/lib_ascii.c **** *
 352:../Dave/Generated/UCPROBE/lib_ascii.c **** * Argument(s) : c           Character to examine.
 353:../Dave/Generated/UCPROBE/lib_ascii.c **** *
 354:../Dave/Generated/UCPROBE/lib_ascii.c **** * Return(s)   : DEF_YES, if character is     a standard blank character.
 355:../Dave/Generated/UCPROBE/lib_ascii.c **** *
 356:../Dave/Generated/UCPROBE/lib_ascii.c **** *               DEF_NO,     if character is NOT a standard blank character.
 357:../Dave/Generated/UCPROBE/lib_ascii.c **** *
 358:../Dave/Generated/UCPROBE/lib_ascii.c **** * Caller(s)   : Application.
 359:../Dave/Generated/UCPROBE/lib_ascii.c **** *
 360:../Dave/Generated/UCPROBE/lib_ascii.c **** * Note(s)     : (1) (a) ISO/IEC 9899:TC2, Section 7.4.1.3.(2) states that "isblank() returns true o
 361:../Dave/Generated/UCPROBE/lib_ascii.c **** *                       the standard blank characters".
 362:../Dave/Generated/UCPROBE/lib_ascii.c **** *
 363:../Dave/Generated/UCPROBE/lib_ascii.c **** *                   (b) ISO/IEC 9899:TC2, Section 7.4.1.3.(2) defines "the standard blank character
 364:../Dave/Generated/UCPROBE/lib_ascii.c **** *                       the "space (' '), and horizontal tab ('\t')".
 365:../Dave/Generated/UCPROBE/lib_ascii.c **** ***************************************************************************************************
 366:../Dave/Generated/UCPROBE/lib_ascii.c **** */
 367:../Dave/Generated/UCPROBE/lib_ascii.c **** 
 368:../Dave/Generated/UCPROBE/lib_ascii.c **** CPU_BOOLEAN  ASCII_IsBlank (CPU_CHAR  c)
 369:../Dave/Generated/UCPROBE/lib_ascii.c **** {
 490              	 .loc 1 369 0
 491              	 .cfi_startproc
 492 0000 80B5     	 push {r7,lr}
 493              	.LCFI21:
 494              	 .cfi_def_cfa_offset 8
 495              	 .cfi_offset 7,-8
 496              	 .cfi_offset 14,-4
 497 0002 84B0     	 sub sp,sp,#16
 498              	.LCFI22:
 499              	 .cfi_def_cfa_offset 24
 500 0004 00AF     	 add r7,sp,#0
 501              	.LCFI23:
 502              	 .cfi_def_cfa_register 7
 503 0006 021C     	 mov r2,r0
 504 0008 FB1D     	 add r3,r7,#7
 505 000a 1A70     	 strb r2,[r3]
 370:../Dave/Generated/UCPROBE/lib_ascii.c ****     CPU_BOOLEAN  blank;
 371:../Dave/Generated/UCPROBE/lib_ascii.c **** 
 372:../Dave/Generated/UCPROBE/lib_ascii.c **** 
 373:../Dave/Generated/UCPROBE/lib_ascii.c ****     blank = ASCII_IS_BLANK(c);
 506              	 .loc 1 373 0
 507 000c FB1D     	 add r3,r7,#7
 508 000e 1B78     	 ldrb r3,[r3]
 509 0010 202B     	 cmp r3,#32
 510 0012 03D0     	 beq .L38
 511              	 .loc 1 373 0 is_stmt 0 discriminator 2
 512 0014 FB1D     	 add r3,r7,#7
 513 0016 1B78     	 ldrb r3,[r3]
 514 0018 092B     	 cmp r3,#9
 515 001a 01D1     	 bne .L39
 516              	.L38:
 517              	 .loc 1 373 0 discriminator 3
 518 001c 0122     	 mov r2,#1
 519 001e 00E0     	 b .L40
 520              	.L39:
 521              	 .loc 1 373 0 discriminator 4
 522 0020 0022     	 mov r2,#0
 523              	.L40:
 524              	 .loc 1 373 0 discriminator 6
 525 0022 0F23     	 mov r3,#15
 526 0024 FB18     	 add r3,r7,r3
 527 0026 1A70     	 strb r2,[r3]
 374:../Dave/Generated/UCPROBE/lib_ascii.c **** 
 375:../Dave/Generated/UCPROBE/lib_ascii.c ****     return (blank);
 528              	 .loc 1 375 0 is_stmt 1 discriminator 6
 529 0028 0F23     	 mov r3,#15
 530 002a FB18     	 add r3,r7,r3
 531 002c 1B78     	 ldrb r3,[r3]
 376:../Dave/Generated/UCPROBE/lib_ascii.c **** }
 532              	 .loc 1 376 0 discriminator 6
 533 002e 181C     	 mov r0,r3
 534 0030 BD46     	 mov sp,r7
 535 0032 04B0     	 add sp,sp,#16
 536              	 
 537 0034 80BD     	 pop {r7,pc}
 538              	 .cfi_endproc
 539              	.LFE7:
 541 0036 C046     	 .section .text.ASCII_IsSpace,"ax",%progbits
 542              	 .align 2
 543              	 .global ASCII_IsSpace
 544              	 .code 16
 545              	 .thumb_func
 547              	ASCII_IsSpace:
 548              	.LFB8:
 377:../Dave/Generated/UCPROBE/lib_ascii.c **** 
 378:../Dave/Generated/UCPROBE/lib_ascii.c **** 
 379:../Dave/Generated/UCPROBE/lib_ascii.c **** /*
 380:../Dave/Generated/UCPROBE/lib_ascii.c **** ***************************************************************************************************
 381:../Dave/Generated/UCPROBE/lib_ascii.c **** *                                           ASCII_IsSpace()
 382:../Dave/Generated/UCPROBE/lib_ascii.c **** *
 383:../Dave/Generated/UCPROBE/lib_ascii.c **** * Description : Determine whether a character is a white-space character.
 384:../Dave/Generated/UCPROBE/lib_ascii.c **** *
 385:../Dave/Generated/UCPROBE/lib_ascii.c **** * Argument(s) : c           Character to examine.
 386:../Dave/Generated/UCPROBE/lib_ascii.c **** *
 387:../Dave/Generated/UCPROBE/lib_ascii.c **** * Return(s)   : DEF_YES, if character is     a white-space character.
 388:../Dave/Generated/UCPROBE/lib_ascii.c **** *
 389:../Dave/Generated/UCPROBE/lib_ascii.c **** *               DEF_NO,     if character is NOT a white-space character.
 390:../Dave/Generated/UCPROBE/lib_ascii.c **** *
 391:../Dave/Generated/UCPROBE/lib_ascii.c **** * Caller(s)   : Application.
 392:../Dave/Generated/UCPROBE/lib_ascii.c **** *
 393:../Dave/Generated/UCPROBE/lib_ascii.c **** * Note(s)     : (1) (a) ISO/IEC 9899:TC2, Section 7.4.1.10.(2) states that "isspace() returns true 
 394:../Dave/Generated/UCPROBE/lib_ascii.c **** *                       for the standard white-space characters".
 395:../Dave/Generated/UCPROBE/lib_ascii.c **** *
 396:../Dave/Generated/UCPROBE/lib_ascii.c **** *                   (b) ISO/IEC 9899:TC2, Section 7.4.1.10.(2) defines "the standard white-space ch
 397:../Dave/Generated/UCPROBE/lib_ascii.c **** *                       as the "space (' '), form feed ('\f'), new-line ('\n'), carriage return ('\
 398:../Dave/Generated/UCPROBE/lib_ascii.c **** *                       horizontal tab ('\t'), and vertical tab ('\v')".
 399:../Dave/Generated/UCPROBE/lib_ascii.c **** ***************************************************************************************************
 400:../Dave/Generated/UCPROBE/lib_ascii.c **** */
 401:../Dave/Generated/UCPROBE/lib_ascii.c **** 
 402:../Dave/Generated/UCPROBE/lib_ascii.c **** CPU_BOOLEAN  ASCII_IsSpace (CPU_CHAR  c)
 403:../Dave/Generated/UCPROBE/lib_ascii.c **** {
 549              	 .loc 1 403 0
 550              	 .cfi_startproc
 551 0000 80B5     	 push {r7,lr}
 552              	.LCFI24:
 553              	 .cfi_def_cfa_offset 8
 554              	 .cfi_offset 7,-8
 555              	 .cfi_offset 14,-4
 556 0002 84B0     	 sub sp,sp,#16
 557              	.LCFI25:
 558              	 .cfi_def_cfa_offset 24
 559 0004 00AF     	 add r7,sp,#0
 560              	.LCFI26:
 561              	 .cfi_def_cfa_register 7
 562 0006 021C     	 mov r2,r0
 563 0008 FB1D     	 add r3,r7,#7
 564 000a 1A70     	 strb r2,[r3]
 404:../Dave/Generated/UCPROBE/lib_ascii.c ****     CPU_BOOLEAN  space;
 405:../Dave/Generated/UCPROBE/lib_ascii.c **** 
 406:../Dave/Generated/UCPROBE/lib_ascii.c **** 
 407:../Dave/Generated/UCPROBE/lib_ascii.c ****     space = ASCII_IS_SPACE(c);
 565              	 .loc 1 407 0
 566 000c FB1D     	 add r3,r7,#7
 567 000e 1B78     	 ldrb r3,[r3]
 568 0010 202B     	 cmp r3,#32
 569 0012 13D0     	 beq .L43
 570              	 .loc 1 407 0 is_stmt 0 discriminator 2
 571 0014 FB1D     	 add r3,r7,#7
 572 0016 1B78     	 ldrb r3,[r3]
 573 0018 0D2B     	 cmp r3,#13
 574 001a 0FD0     	 beq .L43
 575              	 .loc 1 407 0 discriminator 4
 576 001c FB1D     	 add r3,r7,#7
 577 001e 1B78     	 ldrb r3,[r3]
 578 0020 0A2B     	 cmp r3,#10
 579 0022 0BD0     	 beq .L43
 580              	 .loc 1 407 0 discriminator 6
 581 0024 FB1D     	 add r3,r7,#7
 582 0026 1B78     	 ldrb r3,[r3]
 583 0028 0C2B     	 cmp r3,#12
 584 002a 07D0     	 beq .L43
 585              	 .loc 1 407 0 discriminator 8
 586 002c FB1D     	 add r3,r7,#7
 587 002e 1B78     	 ldrb r3,[r3]
 588 0030 092B     	 cmp r3,#9
 589 0032 03D0     	 beq .L43
 590              	 .loc 1 407 0 discriminator 10
 591 0034 FB1D     	 add r3,r7,#7
 592 0036 1B78     	 ldrb r3,[r3]
 593 0038 0B2B     	 cmp r3,#11
 594 003a 01D1     	 bne .L44
 595              	.L43:
 596              	 .loc 1 407 0 discriminator 11
 597 003c 0122     	 mov r2,#1
 598 003e 00E0     	 b .L45
 599              	.L44:
 600              	 .loc 1 407 0 discriminator 12
 601 0040 0022     	 mov r2,#0
 602              	.L45:
 603              	 .loc 1 407 0 discriminator 14
 604 0042 0F23     	 mov r3,#15
 605 0044 FB18     	 add r3,r7,r3
 606 0046 1A70     	 strb r2,[r3]
 408:../Dave/Generated/UCPROBE/lib_ascii.c **** 
 409:../Dave/Generated/UCPROBE/lib_ascii.c ****     return (space);
 607              	 .loc 1 409 0 is_stmt 1 discriminator 14
 608 0048 0F23     	 mov r3,#15
 609 004a FB18     	 add r3,r7,r3
 610 004c 1B78     	 ldrb r3,[r3]
 410:../Dave/Generated/UCPROBE/lib_ascii.c **** }
 611              	 .loc 1 410 0 discriminator 14
 612 004e 181C     	 mov r0,r3
 613 0050 BD46     	 mov sp,r7
 614 0052 04B0     	 add sp,sp,#16
 615              	 
 616 0054 80BD     	 pop {r7,pc}
 617              	 .cfi_endproc
 618              	.LFE8:
 620 0056 C046     	 .section .text.ASCII_IsPrint,"ax",%progbits
 621              	 .align 2
 622              	 .global ASCII_IsPrint
 623              	 .code 16
 624              	 .thumb_func
 626              	ASCII_IsPrint:
 627              	.LFB9:
 411:../Dave/Generated/UCPROBE/lib_ascii.c **** 
 412:../Dave/Generated/UCPROBE/lib_ascii.c **** 
 413:../Dave/Generated/UCPROBE/lib_ascii.c **** /*
 414:../Dave/Generated/UCPROBE/lib_ascii.c **** ***************************************************************************************************
 415:../Dave/Generated/UCPROBE/lib_ascii.c **** *                                           ASCII_IsPrint()
 416:../Dave/Generated/UCPROBE/lib_ascii.c **** *
 417:../Dave/Generated/UCPROBE/lib_ascii.c **** * Description : Determine whether a character is a printing character.
 418:../Dave/Generated/UCPROBE/lib_ascii.c **** *
 419:../Dave/Generated/UCPROBE/lib_ascii.c **** * Argument(s) : c           Character to examine.
 420:../Dave/Generated/UCPROBE/lib_ascii.c **** *
 421:../Dave/Generated/UCPROBE/lib_ascii.c **** * Return(s)   : DEF_YES, if character is     a printing character.
 422:../Dave/Generated/UCPROBE/lib_ascii.c **** *
 423:../Dave/Generated/UCPROBE/lib_ascii.c **** *               DEF_NO,     if character is NOT a printing character.
 424:../Dave/Generated/UCPROBE/lib_ascii.c **** *
 425:../Dave/Generated/UCPROBE/lib_ascii.c **** * Caller(s)   : Application.
 426:../Dave/Generated/UCPROBE/lib_ascii.c **** *
 427:../Dave/Generated/UCPROBE/lib_ascii.c **** * Note(s)     : (1) (a) ISO/IEC 9899:TC2, Section 7.4.1.8.(2) states that "isprint() ... tests for 
 428:../Dave/Generated/UCPROBE/lib_ascii.c **** *                       printing character including space (' ')".
 429:../Dave/Generated/UCPROBE/lib_ascii.c **** *
 430:../Dave/Generated/UCPROBE/lib_ascii.c **** *                   (b) ISO/IEC 9899:TC2, Section 7.4.(3), Note 169, states that in "the seven-bit 
 431:../Dave/Generated/UCPROBE/lib_ascii.c **** *                       ASCII character set, the printing characters are those whose values lie fro
 432:../Dave/Generated/UCPROBE/lib_ascii.c **** *                       0x20 (space) through 0x7E (tilde)".
 433:../Dave/Generated/UCPROBE/lib_ascii.c **** ***************************************************************************************************
 434:../Dave/Generated/UCPROBE/lib_ascii.c **** */
 435:../Dave/Generated/UCPROBE/lib_ascii.c **** 
 436:../Dave/Generated/UCPROBE/lib_ascii.c **** CPU_BOOLEAN  ASCII_IsPrint (CPU_CHAR  c)
 437:../Dave/Generated/UCPROBE/lib_ascii.c **** {
 628              	 .loc 1 437 0
 629              	 .cfi_startproc
 630 0000 80B5     	 push {r7,lr}
 631              	.LCFI27:
 632              	 .cfi_def_cfa_offset 8
 633              	 .cfi_offset 7,-8
 634              	 .cfi_offset 14,-4
 635 0002 84B0     	 sub sp,sp,#16
 636              	.LCFI28:
 637              	 .cfi_def_cfa_offset 24
 638 0004 00AF     	 add r7,sp,#0
 639              	.LCFI29:
 640              	 .cfi_def_cfa_register 7
 641 0006 021C     	 mov r2,r0
 642 0008 FB1D     	 add r3,r7,#7
 643 000a 1A70     	 strb r2,[r3]
 438:../Dave/Generated/UCPROBE/lib_ascii.c ****     CPU_BOOLEAN  print;
 439:../Dave/Generated/UCPROBE/lib_ascii.c **** 
 440:../Dave/Generated/UCPROBE/lib_ascii.c **** 
 441:../Dave/Generated/UCPROBE/lib_ascii.c ****     print = ASCII_IS_PRINT(c);
 644              	 .loc 1 441 0
 645 000c FB1D     	 add r3,r7,#7
 646 000e 1B78     	 ldrb r3,[r3]
 647 0010 1F2B     	 cmp r3,#31
 648 0012 05D9     	 bls .L48
 649              	 .loc 1 441 0 is_stmt 0 discriminator 1
 650 0014 FB1D     	 add r3,r7,#7
 651 0016 1B78     	 ldrb r3,[r3]
 652 0018 7E2B     	 cmp r3,#126
 653 001a 01D8     	 bhi .L48
 654              	 .loc 1 441 0 discriminator 3
 655 001c 0122     	 mov r2,#1
 656 001e 00E0     	 b .L49
 657              	.L48:
 658              	 .loc 1 441 0 discriminator 4
 659 0020 0022     	 mov r2,#0
 660              	.L49:
 661              	 .loc 1 441 0 discriminator 6
 662 0022 0F23     	 mov r3,#15
 663 0024 FB18     	 add r3,r7,r3
 664 0026 1A70     	 strb r2,[r3]
 442:../Dave/Generated/UCPROBE/lib_ascii.c **** 
 443:../Dave/Generated/UCPROBE/lib_ascii.c ****     return (print);
 665              	 .loc 1 443 0 is_stmt 1 discriminator 6
 666 0028 0F23     	 mov r3,#15
 667 002a FB18     	 add r3,r7,r3
 668 002c 1B78     	 ldrb r3,[r3]
 444:../Dave/Generated/UCPROBE/lib_ascii.c **** }
 669              	 .loc 1 444 0 discriminator 6
 670 002e 181C     	 mov r0,r3
 671 0030 BD46     	 mov sp,r7
 672 0032 04B0     	 add sp,sp,#16
 673              	 
 674 0034 80BD     	 pop {r7,pc}
 675              	 .cfi_endproc
 676              	.LFE9:
 678 0036 C046     	 .section .text.ASCII_IsGraph,"ax",%progbits
 679              	 .align 2
 680              	 .global ASCII_IsGraph
 681              	 .code 16
 682              	 .thumb_func
 684              	ASCII_IsGraph:
 685              	.LFB10:
 445:../Dave/Generated/UCPROBE/lib_ascii.c **** 
 446:../Dave/Generated/UCPROBE/lib_ascii.c **** 
 447:../Dave/Generated/UCPROBE/lib_ascii.c **** /*
 448:../Dave/Generated/UCPROBE/lib_ascii.c **** ***************************************************************************************************
 449:../Dave/Generated/UCPROBE/lib_ascii.c **** *                                           ASCII_IsGraph()
 450:../Dave/Generated/UCPROBE/lib_ascii.c **** *
 451:../Dave/Generated/UCPROBE/lib_ascii.c **** * Description : Determine whether a character is any printing character except a space character.
 452:../Dave/Generated/UCPROBE/lib_ascii.c **** *
 453:../Dave/Generated/UCPROBE/lib_ascii.c **** * Argument(s) : c           Character to examine.
 454:../Dave/Generated/UCPROBE/lib_ascii.c **** *
 455:../Dave/Generated/UCPROBE/lib_ascii.c **** * Return(s)   : DEF_YES, if character is     a graphic character.
 456:../Dave/Generated/UCPROBE/lib_ascii.c **** *
 457:../Dave/Generated/UCPROBE/lib_ascii.c **** *               DEF_NO,     if character is NOT a graphic character.
 458:../Dave/Generated/UCPROBE/lib_ascii.c **** *
 459:../Dave/Generated/UCPROBE/lib_ascii.c **** * Caller(s)   : Application.
 460:../Dave/Generated/UCPROBE/lib_ascii.c **** *
 461:../Dave/Generated/UCPROBE/lib_ascii.c **** * Note(s)     : (1) (a) ISO/IEC 9899:TC2, Section 7.4.1.6.(2) states that "isgraph() ... tests for 
 462:../Dave/Generated/UCPROBE/lib_ascii.c **** *                       printing character except space (' ')".
 463:../Dave/Generated/UCPROBE/lib_ascii.c **** *
 464:../Dave/Generated/UCPROBE/lib_ascii.c **** *                   (b) ISO/IEC 9899:TC2, Section 7.4.(3), Note 169, states that in "the seven-bit 
 465:../Dave/Generated/UCPROBE/lib_ascii.c **** *                       ASCII character set, the printing characters are those whose values lie fro
 466:../Dave/Generated/UCPROBE/lib_ascii.c **** *                       0x20 (space) through 0x7E (tilde)".
 467:../Dave/Generated/UCPROBE/lib_ascii.c **** ***************************************************************************************************
 468:../Dave/Generated/UCPROBE/lib_ascii.c **** */
 469:../Dave/Generated/UCPROBE/lib_ascii.c **** 
 470:../Dave/Generated/UCPROBE/lib_ascii.c **** CPU_BOOLEAN  ASCII_IsGraph (CPU_CHAR  c)
 471:../Dave/Generated/UCPROBE/lib_ascii.c **** {
 686              	 .loc 1 471 0
 687              	 .cfi_startproc
 688 0000 80B5     	 push {r7,lr}
 689              	.LCFI30:
 690              	 .cfi_def_cfa_offset 8
 691              	 .cfi_offset 7,-8
 692              	 .cfi_offset 14,-4
 693 0002 84B0     	 sub sp,sp,#16
 694              	.LCFI31:
 695              	 .cfi_def_cfa_offset 24
 696 0004 00AF     	 add r7,sp,#0
 697              	.LCFI32:
 698              	 .cfi_def_cfa_register 7
 699 0006 021C     	 mov r2,r0
 700 0008 FB1D     	 add r3,r7,#7
 701 000a 1A70     	 strb r2,[r3]
 472:../Dave/Generated/UCPROBE/lib_ascii.c ****     CPU_BOOLEAN  graph;
 473:../Dave/Generated/UCPROBE/lib_ascii.c **** 
 474:../Dave/Generated/UCPROBE/lib_ascii.c **** 
 475:../Dave/Generated/UCPROBE/lib_ascii.c ****     graph = ASCII_IS_GRAPH(c);
 702              	 .loc 1 475 0
 703 000c FB1D     	 add r3,r7,#7
 704 000e 1B78     	 ldrb r3,[r3]
 705 0010 202B     	 cmp r3,#32
 706 0012 05D9     	 bls .L52
 707              	 .loc 1 475 0 is_stmt 0 discriminator 1
 708 0014 FB1D     	 add r3,r7,#7
 709 0016 1B78     	 ldrb r3,[r3]
 710 0018 7E2B     	 cmp r3,#126
 711 001a 01D8     	 bhi .L52
 712              	 .loc 1 475 0 discriminator 3
 713 001c 0122     	 mov r2,#1
 714 001e 00E0     	 b .L53
 715              	.L52:
 716              	 .loc 1 475 0 discriminator 4
 717 0020 0022     	 mov r2,#0
 718              	.L53:
 719              	 .loc 1 475 0 discriminator 6
 720 0022 0F23     	 mov r3,#15
 721 0024 FB18     	 add r3,r7,r3
 722 0026 1A70     	 strb r2,[r3]
 476:../Dave/Generated/UCPROBE/lib_ascii.c **** 
 477:../Dave/Generated/UCPROBE/lib_ascii.c ****     return (graph);
 723              	 .loc 1 477 0 is_stmt 1 discriminator 6
 724 0028 0F23     	 mov r3,#15
 725 002a FB18     	 add r3,r7,r3
 726 002c 1B78     	 ldrb r3,[r3]
 478:../Dave/Generated/UCPROBE/lib_ascii.c **** }
 727              	 .loc 1 478 0 discriminator 6
 728 002e 181C     	 mov r0,r3
 729 0030 BD46     	 mov sp,r7
 730 0032 04B0     	 add sp,sp,#16
 731              	 
 732 0034 80BD     	 pop {r7,pc}
 733              	 .cfi_endproc
 734              	.LFE10:
 736 0036 C046     	 .section .text.ASCII_IsPunct,"ax",%progbits
 737              	 .align 2
 738              	 .global ASCII_IsPunct
 739              	 .code 16
 740              	 .thumb_func
 742              	ASCII_IsPunct:
 743              	.LFB11:
 479:../Dave/Generated/UCPROBE/lib_ascii.c **** 
 480:../Dave/Generated/UCPROBE/lib_ascii.c **** 
 481:../Dave/Generated/UCPROBE/lib_ascii.c **** /*
 482:../Dave/Generated/UCPROBE/lib_ascii.c **** ***************************************************************************************************
 483:../Dave/Generated/UCPROBE/lib_ascii.c **** *                                           ASCII_IsPunct()
 484:../Dave/Generated/UCPROBE/lib_ascii.c **** *
 485:../Dave/Generated/UCPROBE/lib_ascii.c **** * Description : Determine whether a character is a punctuation character.
 486:../Dave/Generated/UCPROBE/lib_ascii.c **** *
 487:../Dave/Generated/UCPROBE/lib_ascii.c **** * Argument(s) : c           Character to examine.
 488:../Dave/Generated/UCPROBE/lib_ascii.c **** *
 489:../Dave/Generated/UCPROBE/lib_ascii.c **** * Return(s)   : DEF_YES, if character is     a punctuation character.
 490:../Dave/Generated/UCPROBE/lib_ascii.c **** *
 491:../Dave/Generated/UCPROBE/lib_ascii.c **** *               DEF_NO,     if character is NOT a punctuation character.
 492:../Dave/Generated/UCPROBE/lib_ascii.c **** *
 493:../Dave/Generated/UCPROBE/lib_ascii.c **** * Caller(s)   : Application.
 494:../Dave/Generated/UCPROBE/lib_ascii.c **** *
 495:../Dave/Generated/UCPROBE/lib_ascii.c **** * Note(s)     : (1) ISO/IEC 9899:TC2, Section 7.4.1.9.(2) states that "ispunct() returns true for e
 496:../Dave/Generated/UCPROBE/lib_ascii.c **** *                   printing character for which neither isspace() nor isalnum() is true".
 497:../Dave/Generated/UCPROBE/lib_ascii.c **** ***************************************************************************************************
 498:../Dave/Generated/UCPROBE/lib_ascii.c **** */
 499:../Dave/Generated/UCPROBE/lib_ascii.c **** 
 500:../Dave/Generated/UCPROBE/lib_ascii.c **** CPU_BOOLEAN  ASCII_IsPunct (CPU_CHAR  c)
 501:../Dave/Generated/UCPROBE/lib_ascii.c **** {
 744              	 .loc 1 501 0
 745              	 .cfi_startproc
 746 0000 80B5     	 push {r7,lr}
 747              	.LCFI33:
 748              	 .cfi_def_cfa_offset 8
 749              	 .cfi_offset 7,-8
 750              	 .cfi_offset 14,-4
 751 0002 84B0     	 sub sp,sp,#16
 752              	.LCFI34:
 753              	 .cfi_def_cfa_offset 24
 754 0004 00AF     	 add r7,sp,#0
 755              	.LCFI35:
 756              	 .cfi_def_cfa_register 7
 757 0006 021C     	 mov r2,r0
 758 0008 FB1D     	 add r3,r7,#7
 759 000a 1A70     	 strb r2,[r3]
 502:../Dave/Generated/UCPROBE/lib_ascii.c ****     CPU_BOOLEAN  punct;
 503:../Dave/Generated/UCPROBE/lib_ascii.c **** 
 504:../Dave/Generated/UCPROBE/lib_ascii.c **** 
 505:../Dave/Generated/UCPROBE/lib_ascii.c ****     punct = ASCII_IS_PUNCT(c);
 760              	 .loc 1 505 0
 761 000c FB1D     	 add r3,r7,#7
 762 000e 1B78     	 ldrb r3,[r3]
 763 0010 1F2B     	 cmp r3,#31
 764 0012 35D9     	 bls .L56
 765              	 .loc 1 505 0 is_stmt 0 discriminator 1
 766 0014 FB1D     	 add r3,r7,#7
 767 0016 1B78     	 ldrb r3,[r3]
 768 0018 7E2B     	 cmp r3,#126
 769 001a 31D8     	 bhi .L56
 770              	 .loc 1 505 0 discriminator 3
 771 001c FB1D     	 add r3,r7,#7
 772 001e 1B78     	 ldrb r3,[r3]
 773 0020 202B     	 cmp r3,#32
 774 0022 2DD0     	 beq .L56
 775              	 .loc 1 505 0 discriminator 5
 776 0024 FB1D     	 add r3,r7,#7
 777 0026 1B78     	 ldrb r3,[r3]
 778 0028 0D2B     	 cmp r3,#13
 779 002a 29D0     	 beq .L56
 780              	 .loc 1 505 0 discriminator 7
 781 002c FB1D     	 add r3,r7,#7
 782 002e 1B78     	 ldrb r3,[r3]
 783 0030 0A2B     	 cmp r3,#10
 784 0032 25D0     	 beq .L56
 785              	 .loc 1 505 0 discriminator 9
 786 0034 FB1D     	 add r3,r7,#7
 787 0036 1B78     	 ldrb r3,[r3]
 788 0038 0C2B     	 cmp r3,#12
 789 003a 21D0     	 beq .L56
 790              	 .loc 1 505 0 discriminator 11
 791 003c FB1D     	 add r3,r7,#7
 792 003e 1B78     	 ldrb r3,[r3]
 793 0040 092B     	 cmp r3,#9
 794 0042 1DD0     	 beq .L56
 795              	 .loc 1 505 0 discriminator 13
 796 0044 FB1D     	 add r3,r7,#7
 797 0046 1B78     	 ldrb r3,[r3]
 798 0048 0B2B     	 cmp r3,#11
 799 004a 19D0     	 beq .L56
 800              	 .loc 1 505 0 discriminator 15
 801 004c FB1D     	 add r3,r7,#7
 802 004e 1B78     	 ldrb r3,[r3]
 803 0050 402B     	 cmp r3,#64
 804 0052 03D9     	 bls .L57
 805              	 .loc 1 505 0 discriminator 18
 806 0054 FB1D     	 add r3,r7,#7
 807 0056 1B78     	 ldrb r3,[r3]
 808 0058 5A2B     	 cmp r3,#90
 809 005a 11D9     	 bls .L56
 810              	.L57:
 811              	 .loc 1 505 0 discriminator 19
 812 005c FB1D     	 add r3,r7,#7
 813 005e 1B78     	 ldrb r3,[r3]
 814 0060 602B     	 cmp r3,#96
 815 0062 03D9     	 bls .L58
 816              	 .loc 1 505 0 discriminator 22
 817 0064 FB1D     	 add r3,r7,#7
 818 0066 1B78     	 ldrb r3,[r3]
 819 0068 7A2B     	 cmp r3,#122
 820 006a 09D9     	 bls .L56
 821              	.L58:
 822              	 .loc 1 505 0 discriminator 23
 823 006c FB1D     	 add r3,r7,#7
 824 006e 1B78     	 ldrb r3,[r3]
 825 0070 2F2B     	 cmp r3,#47
 826 0072 03D9     	 bls .L59
 827              	 .loc 1 505 0 discriminator 26
 828 0074 FB1D     	 add r3,r7,#7
 829 0076 1B78     	 ldrb r3,[r3]
 830 0078 392B     	 cmp r3,#57
 831 007a 01D9     	 bls .L56
 832              	.L59:
 833              	 .loc 1 505 0 discriminator 27
 834 007c 0122     	 mov r2,#1
 835 007e 00E0     	 b .L60
 836              	.L56:
 837              	 .loc 1 505 0 discriminator 28
 838 0080 0022     	 mov r2,#0
 839              	.L60:
 840              	 .loc 1 505 0 discriminator 30
 841 0082 0F23     	 mov r3,#15
 842 0084 FB18     	 add r3,r7,r3
 843 0086 1A70     	 strb r2,[r3]
 506:../Dave/Generated/UCPROBE/lib_ascii.c **** 
 507:../Dave/Generated/UCPROBE/lib_ascii.c ****     return (punct);
 844              	 .loc 1 507 0 is_stmt 1 discriminator 30
 845 0088 0F23     	 mov r3,#15
 846 008a FB18     	 add r3,r7,r3
 847 008c 1B78     	 ldrb r3,[r3]
 508:../Dave/Generated/UCPROBE/lib_ascii.c **** }
 848              	 .loc 1 508 0 discriminator 30
 849 008e 181C     	 mov r0,r3
 850 0090 BD46     	 mov sp,r7
 851 0092 04B0     	 add sp,sp,#16
 852              	 
 853 0094 80BD     	 pop {r7,pc}
 854              	 .cfi_endproc
 855              	.LFE11:
 857 0096 C046     	 .section .text.ASCII_IsCtrl,"ax",%progbits
 858              	 .align 2
 859              	 .global ASCII_IsCtrl
 860              	 .code 16
 861              	 .thumb_func
 863              	ASCII_IsCtrl:
 864              	.LFB12:
 509:../Dave/Generated/UCPROBE/lib_ascii.c **** 
 510:../Dave/Generated/UCPROBE/lib_ascii.c **** 
 511:../Dave/Generated/UCPROBE/lib_ascii.c **** /*
 512:../Dave/Generated/UCPROBE/lib_ascii.c **** ***************************************************************************************************
 513:../Dave/Generated/UCPROBE/lib_ascii.c **** *                                           ASCII_IsCtrl()
 514:../Dave/Generated/UCPROBE/lib_ascii.c **** *
 515:../Dave/Generated/UCPROBE/lib_ascii.c **** * Description : Determine whether a character is a control character.
 516:../Dave/Generated/UCPROBE/lib_ascii.c **** *
 517:../Dave/Generated/UCPROBE/lib_ascii.c **** * Argument(s) : c           Character to examine.
 518:../Dave/Generated/UCPROBE/lib_ascii.c **** *
 519:../Dave/Generated/UCPROBE/lib_ascii.c **** * Return(s)   : DEF_YES, if character is     a control character.
 520:../Dave/Generated/UCPROBE/lib_ascii.c **** *
 521:../Dave/Generated/UCPROBE/lib_ascii.c **** *               DEF_NO,     if character is NOT a control character.
 522:../Dave/Generated/UCPROBE/lib_ascii.c **** *
 523:../Dave/Generated/UCPROBE/lib_ascii.c **** * Caller(s)   : Application.
 524:../Dave/Generated/UCPROBE/lib_ascii.c **** *
 525:../Dave/Generated/UCPROBE/lib_ascii.c **** * Note(s)     : (1) (a) ISO/IEC 9899:TC2, Section 7.4.1.4.(2) states that "iscntrl() ... tests for 
 526:../Dave/Generated/UCPROBE/lib_ascii.c **** *                       control character".
 527:../Dave/Generated/UCPROBE/lib_ascii.c **** *
 528:../Dave/Generated/UCPROBE/lib_ascii.c **** *                   (b) ISO/IEC 9899:TC2, Section 7.4.(3), Note 169, states that in "the seven-bit 
 529:../Dave/Generated/UCPROBE/lib_ascii.c **** *                       ASCII character set, ... the control characters are those whose values lie 
 530:../Dave/Generated/UCPROBE/lib_ascii.c **** *                       0 (NUL) through 0x1F (US), and the character 0x7F (DEL)".
 531:../Dave/Generated/UCPROBE/lib_ascii.c **** ***************************************************************************************************
 532:../Dave/Generated/UCPROBE/lib_ascii.c **** */
 533:../Dave/Generated/UCPROBE/lib_ascii.c **** 
 534:../Dave/Generated/UCPROBE/lib_ascii.c **** CPU_BOOLEAN  ASCII_IsCtrl (CPU_CHAR  c)
 535:../Dave/Generated/UCPROBE/lib_ascii.c **** {
 865              	 .loc 1 535 0
 866              	 .cfi_startproc
 867 0000 80B5     	 push {r7,lr}
 868              	.LCFI36:
 869              	 .cfi_def_cfa_offset 8
 870              	 .cfi_offset 7,-8
 871              	 .cfi_offset 14,-4
 872 0002 84B0     	 sub sp,sp,#16
 873              	.LCFI37:
 874              	 .cfi_def_cfa_offset 24
 875 0004 00AF     	 add r7,sp,#0
 876              	.LCFI38:
 877              	 .cfi_def_cfa_register 7
 878 0006 021C     	 mov r2,r0
 879 0008 FB1D     	 add r3,r7,#7
 880 000a 1A70     	 strb r2,[r3]
 536:../Dave/Generated/UCPROBE/lib_ascii.c ****     CPU_BOOLEAN  ctrl;
 537:../Dave/Generated/UCPROBE/lib_ascii.c **** 
 538:../Dave/Generated/UCPROBE/lib_ascii.c **** 
 539:../Dave/Generated/UCPROBE/lib_ascii.c ****     ctrl = ASCII_IS_CTRL(c);
 881              	 .loc 1 539 0
 882 000c FB1D     	 add r3,r7,#7
 883 000e 1B78     	 ldrb r3,[r3]
 884 0010 5BB2     	 sxtb r3,r3
 885 0012 002B     	 cmp r3,#0
 886 0014 03DB     	 blt .L63
 887              	 .loc 1 539 0 is_stmt 0 discriminator 1
 888 0016 FB1D     	 add r3,r7,#7
 889 0018 1B78     	 ldrb r3,[r3]
 890 001a 1F2B     	 cmp r3,#31
 891 001c 03D9     	 bls .L64
 892              	.L63:
 893              	 .loc 1 539 0 discriminator 4
 894 001e FB1D     	 add r3,r7,#7
 895 0020 1B78     	 ldrb r3,[r3]
 896 0022 7F2B     	 cmp r3,#127
 897 0024 01D1     	 bne .L65
 898              	.L64:
 899              	 .loc 1 539 0 discriminator 5
 900 0026 0122     	 mov r2,#1
 901 0028 00E0     	 b .L66
 902              	.L65:
 903              	 .loc 1 539 0 discriminator 6
 904 002a 0022     	 mov r2,#0
 905              	.L66:
 906              	 .loc 1 539 0 discriminator 8
 907 002c 0F23     	 mov r3,#15
 908 002e FB18     	 add r3,r7,r3
 909 0030 1A70     	 strb r2,[r3]
 540:../Dave/Generated/UCPROBE/lib_ascii.c **** 
 541:../Dave/Generated/UCPROBE/lib_ascii.c ****     return (ctrl);
 910              	 .loc 1 541 0 is_stmt 1 discriminator 8
 911 0032 0F23     	 mov r3,#15
 912 0034 FB18     	 add r3,r7,r3
 913 0036 1B78     	 ldrb r3,[r3]
 542:../Dave/Generated/UCPROBE/lib_ascii.c **** }
 914              	 .loc 1 542 0 discriminator 8
 915 0038 181C     	 mov r0,r3
 916 003a BD46     	 mov sp,r7
 917 003c 04B0     	 add sp,sp,#16
 918              	 
 919 003e 80BD     	 pop {r7,pc}
 920              	 .cfi_endproc
 921              	.LFE12:
 923              	 .section .text.ASCII_ToLower,"ax",%progbits
 924              	 .align 2
 925              	 .global ASCII_ToLower
 926              	 .code 16
 927              	 .thumb_func
 929              	ASCII_ToLower:
 930              	.LFB13:
 543:../Dave/Generated/UCPROBE/lib_ascii.c **** 
 544:../Dave/Generated/UCPROBE/lib_ascii.c **** 
 545:../Dave/Generated/UCPROBE/lib_ascii.c **** /*
 546:../Dave/Generated/UCPROBE/lib_ascii.c **** ***************************************************************************************************
 547:../Dave/Generated/UCPROBE/lib_ascii.c **** *                                           ASCII_ToLower()
 548:../Dave/Generated/UCPROBE/lib_ascii.c **** *
 549:../Dave/Generated/UCPROBE/lib_ascii.c **** * Description : Convert uppercase alphabetic character to its corresponding lowercase alphabetic ch
 550:../Dave/Generated/UCPROBE/lib_ascii.c **** *
 551:../Dave/Generated/UCPROBE/lib_ascii.c **** * Argument(s) : c           Character to convert.
 552:../Dave/Generated/UCPROBE/lib_ascii.c **** *
 553:../Dave/Generated/UCPROBE/lib_ascii.c **** * Return(s)   : Lowercase equivalent of 'c', if character 'c' is an uppercase character (see Note #
 554:../Dave/Generated/UCPROBE/lib_ascii.c **** *
 555:../Dave/Generated/UCPROBE/lib_ascii.c **** *               Character 'c',               otherwise                                  (see Note #
 556:../Dave/Generated/UCPROBE/lib_ascii.c **** *
 557:../Dave/Generated/UCPROBE/lib_ascii.c **** * Caller(s)   : Application.
 558:../Dave/Generated/UCPROBE/lib_ascii.c **** *
 559:../Dave/Generated/UCPROBE/lib_ascii.c **** * Note(s)     : (1) (a) ISO/IEC 9899:TC2, Section 7.4.2.1.(2) states that "tolower() ... converts a
 560:../Dave/Generated/UCPROBE/lib_ascii.c **** *                       uppercase letter to a corresponding lowercase letter".
 561:../Dave/Generated/UCPROBE/lib_ascii.c **** *
 562:../Dave/Generated/UCPROBE/lib_ascii.c **** *                   (b) ISO/IEC 9899:TC2, Section 7.4.2.1.(3) states that :
 563:../Dave/Generated/UCPROBE/lib_ascii.c **** *
 564:../Dave/Generated/UCPROBE/lib_ascii.c **** *                       (1) (A) "if the argument is a character for which isupper() is true and the
 565:../Dave/Generated/UCPROBE/lib_ascii.c **** *                                one or more corresponding characters ... for which islower() is tr
 566:../Dave/Generated/UCPROBE/lib_ascii.c **** *                           (B) "tolower() ... returns one of the corresponding characters;" ...
 567:../Dave/Generated/UCPROBE/lib_ascii.c **** *
 568:../Dave/Generated/UCPROBE/lib_ascii.c **** *                       (2) "otherwise, the argument is returned unchanged."
 569:../Dave/Generated/UCPROBE/lib_ascii.c **** ***************************************************************************************************
 570:../Dave/Generated/UCPROBE/lib_ascii.c **** */
 571:../Dave/Generated/UCPROBE/lib_ascii.c **** 
 572:../Dave/Generated/UCPROBE/lib_ascii.c **** CPU_CHAR  ASCII_ToLower (CPU_CHAR  c)
 573:../Dave/Generated/UCPROBE/lib_ascii.c **** {
 931              	 .loc 1 573 0
 932              	 .cfi_startproc
 933 0000 80B5     	 push {r7,lr}
 934              	.LCFI39:
 935              	 .cfi_def_cfa_offset 8
 936              	 .cfi_offset 7,-8
 937              	 .cfi_offset 14,-4
 938 0002 84B0     	 sub sp,sp,#16
 939              	.LCFI40:
 940              	 .cfi_def_cfa_offset 24
 941 0004 00AF     	 add r7,sp,#0
 942              	.LCFI41:
 943              	 .cfi_def_cfa_register 7
 944 0006 021C     	 mov r2,r0
 945 0008 FB1D     	 add r3,r7,#7
 946 000a 1A70     	 strb r2,[r3]
 574:../Dave/Generated/UCPROBE/lib_ascii.c ****     CPU_CHAR  lower;
 575:../Dave/Generated/UCPROBE/lib_ascii.c **** 
 576:../Dave/Generated/UCPROBE/lib_ascii.c **** 
 577:../Dave/Generated/UCPROBE/lib_ascii.c ****     lower = ASCII_TO_LOWER(c);
 947              	 .loc 1 577 0
 948 000c FB1D     	 add r3,r7,#7
 949 000e 1B78     	 ldrb r3,[r3]
 950 0010 402B     	 cmp r3,#64
 951 0012 08D9     	 bls .L69
 952              	 .loc 1 577 0 is_stmt 0 discriminator 1
 953 0014 FB1D     	 add r3,r7,#7
 954 0016 1B78     	 ldrb r3,[r3]
 955 0018 5A2B     	 cmp r3,#90
 956 001a 04D8     	 bhi .L69
 957              	 .loc 1 577 0 discriminator 3
 958 001c FB1D     	 add r3,r7,#7
 959 001e 1B78     	 ldrb r3,[r3]
 960 0020 2033     	 add r3,r3,#32
 961 0022 DBB2     	 uxtb r3,r3
 962 0024 01E0     	 b .L70
 963              	.L69:
 964              	 .loc 1 577 0 discriminator 4
 965 0026 FB1D     	 add r3,r7,#7
 966 0028 1B78     	 ldrb r3,[r3]
 967              	.L70:
 968              	 .loc 1 577 0 discriminator 6
 969 002a 0F22     	 mov r2,#15
 970 002c BA18     	 add r2,r7,r2
 971 002e 1370     	 strb r3,[r2]
 578:../Dave/Generated/UCPROBE/lib_ascii.c **** 
 579:../Dave/Generated/UCPROBE/lib_ascii.c ****     return (lower);
 972              	 .loc 1 579 0 is_stmt 1 discriminator 6
 973 0030 0F23     	 mov r3,#15
 974 0032 FB18     	 add r3,r7,r3
 975 0034 1B78     	 ldrb r3,[r3]
 580:../Dave/Generated/UCPROBE/lib_ascii.c **** }
 976              	 .loc 1 580 0 discriminator 6
 977 0036 181C     	 mov r0,r3
 978 0038 BD46     	 mov sp,r7
 979 003a 04B0     	 add sp,sp,#16
 980              	 
 981 003c 80BD     	 pop {r7,pc}
 982              	 .cfi_endproc
 983              	.LFE13:
 985 003e C046     	 .section .text.ASCII_ToUpper,"ax",%progbits
 986              	 .align 2
 987              	 .global ASCII_ToUpper
 988              	 .code 16
 989              	 .thumb_func
 991              	ASCII_ToUpper:
 992              	.LFB14:
 581:../Dave/Generated/UCPROBE/lib_ascii.c **** 
 582:../Dave/Generated/UCPROBE/lib_ascii.c **** 
 583:../Dave/Generated/UCPROBE/lib_ascii.c **** /*
 584:../Dave/Generated/UCPROBE/lib_ascii.c **** ***************************************************************************************************
 585:../Dave/Generated/UCPROBE/lib_ascii.c **** *                                           ASCII_ToUpper()
 586:../Dave/Generated/UCPROBE/lib_ascii.c **** *
 587:../Dave/Generated/UCPROBE/lib_ascii.c **** * Description : Convert lowercase alphabetic character to its corresponding uppercase alphabetic ch
 588:../Dave/Generated/UCPROBE/lib_ascii.c **** *
 589:../Dave/Generated/UCPROBE/lib_ascii.c **** * Argument(s) : c           Character to convert.
 590:../Dave/Generated/UCPROBE/lib_ascii.c **** *
 591:../Dave/Generated/UCPROBE/lib_ascii.c **** * Return(s)   : Uppercase equivalent of 'c', if character 'c' is a lowercase character (see Note #1
 592:../Dave/Generated/UCPROBE/lib_ascii.c **** *
 593:../Dave/Generated/UCPROBE/lib_ascii.c **** *               Character 'c',               otherwise                                 (see Note #1
 594:../Dave/Generated/UCPROBE/lib_ascii.c **** *
 595:../Dave/Generated/UCPROBE/lib_ascii.c **** * Caller(s)   : Application.
 596:../Dave/Generated/UCPROBE/lib_ascii.c **** *
 597:../Dave/Generated/UCPROBE/lib_ascii.c **** * Note(s)     : (1) (a) ISO/IEC 9899:TC2, Section 7.4.2.2.(2) states that "toupper() ... converts a
 598:../Dave/Generated/UCPROBE/lib_ascii.c **** *                       lowercase letter to a corresponding uppercase letter".
 599:../Dave/Generated/UCPROBE/lib_ascii.c **** *
 600:../Dave/Generated/UCPROBE/lib_ascii.c **** *                   (b) ISO/IEC 9899:TC2, Section 7.4.2.2.(3) states that :
 601:../Dave/Generated/UCPROBE/lib_ascii.c **** *
 602:../Dave/Generated/UCPROBE/lib_ascii.c **** *                       (1) (A) "if the argument is a character for which islower() is true and the
 603:../Dave/Generated/UCPROBE/lib_ascii.c **** *                                one or more corresponding characters ... for which isupper() is tr
 604:../Dave/Generated/UCPROBE/lib_ascii.c **** *                           (B) "toupper() ... returns one of the corresponding characters;" ...
 605:../Dave/Generated/UCPROBE/lib_ascii.c **** *
 606:../Dave/Generated/UCPROBE/lib_ascii.c **** *                       (2) "otherwise, the argument is returned unchanged."
 607:../Dave/Generated/UCPROBE/lib_ascii.c **** ***************************************************************************************************
 608:../Dave/Generated/UCPROBE/lib_ascii.c **** */
 609:../Dave/Generated/UCPROBE/lib_ascii.c **** 
 610:../Dave/Generated/UCPROBE/lib_ascii.c **** CPU_CHAR  ASCII_ToUpper (CPU_CHAR  c)
 611:../Dave/Generated/UCPROBE/lib_ascii.c **** {
 993              	 .loc 1 611 0
 994              	 .cfi_startproc
 995 0000 80B5     	 push {r7,lr}
 996              	.LCFI42:
 997              	 .cfi_def_cfa_offset 8
 998              	 .cfi_offset 7,-8
 999              	 .cfi_offset 14,-4
 1000 0002 84B0     	 sub sp,sp,#16
 1001              	.LCFI43:
 1002              	 .cfi_def_cfa_offset 24
 1003 0004 00AF     	 add r7,sp,#0
 1004              	.LCFI44:
 1005              	 .cfi_def_cfa_register 7
 1006 0006 021C     	 mov r2,r0
 1007 0008 FB1D     	 add r3,r7,#7
 1008 000a 1A70     	 strb r2,[r3]
 612:../Dave/Generated/UCPROBE/lib_ascii.c ****     CPU_CHAR  upper;
 613:../Dave/Generated/UCPROBE/lib_ascii.c **** 
 614:../Dave/Generated/UCPROBE/lib_ascii.c **** 
 615:../Dave/Generated/UCPROBE/lib_ascii.c ****     upper = ASCII_TO_UPPER(c);
 1009              	 .loc 1 615 0
 1010 000c FB1D     	 add r3,r7,#7
 1011 000e 1B78     	 ldrb r3,[r3]
 1012 0010 602B     	 cmp r3,#96
 1013 0012 08D9     	 bls .L73
 1014              	 .loc 1 615 0 is_stmt 0 discriminator 1
 1015 0014 FB1D     	 add r3,r7,#7
 1016 0016 1B78     	 ldrb r3,[r3]
 1017 0018 7A2B     	 cmp r3,#122
 1018 001a 04D8     	 bhi .L73
 1019              	 .loc 1 615 0 discriminator 3
 1020 001c FB1D     	 add r3,r7,#7
 1021 001e 1B78     	 ldrb r3,[r3]
 1022 0020 203B     	 sub r3,r3,#32
 1023 0022 DBB2     	 uxtb r3,r3
 1024 0024 01E0     	 b .L74
 1025              	.L73:
 1026              	 .loc 1 615 0 discriminator 4
 1027 0026 FB1D     	 add r3,r7,#7
 1028 0028 1B78     	 ldrb r3,[r3]
 1029              	.L74:
 1030              	 .loc 1 615 0 discriminator 6
 1031 002a 0F22     	 mov r2,#15
 1032 002c BA18     	 add r2,r7,r2
 1033 002e 1370     	 strb r3,[r2]
 616:../Dave/Generated/UCPROBE/lib_ascii.c **** 
 617:../Dave/Generated/UCPROBE/lib_ascii.c ****     return (upper);
 1034              	 .loc 1 617 0 is_stmt 1 discriminator 6
 1035 0030 0F23     	 mov r3,#15
 1036 0032 FB18     	 add r3,r7,r3
 1037 0034 1B78     	 ldrb r3,[r3]
 618:../Dave/Generated/UCPROBE/lib_ascii.c **** }
 1038              	 .loc 1 618 0 discriminator 6
 1039 0036 181C     	 mov r0,r3
 1040 0038 BD46     	 mov sp,r7
 1041 003a 04B0     	 add sp,sp,#16
 1042              	 
 1043 003c 80BD     	 pop {r7,pc}
 1044              	 .cfi_endproc
 1045              	.LFE14:
 1047 003e C046     	 .section .text.ASCII_Cmp,"ax",%progbits
 1048              	 .align 2
 1049              	 .global ASCII_Cmp
 1050              	 .code 16
 1051              	 .thumb_func
 1053              	ASCII_Cmp:
 1054              	.LFB15:
 619:../Dave/Generated/UCPROBE/lib_ascii.c **** 
 620:../Dave/Generated/UCPROBE/lib_ascii.c **** 
 621:../Dave/Generated/UCPROBE/lib_ascii.c **** /*
 622:../Dave/Generated/UCPROBE/lib_ascii.c **** ***************************************************************************************************
 623:../Dave/Generated/UCPROBE/lib_ascii.c **** *                                             ASCII_Cmp()
 624:../Dave/Generated/UCPROBE/lib_ascii.c **** *
 625:../Dave/Generated/UCPROBE/lib_ascii.c **** * Description : Determine if two characters are identical (case-insensitive).
 626:../Dave/Generated/UCPROBE/lib_ascii.c **** *
 627:../Dave/Generated/UCPROBE/lib_ascii.c **** * Argument(s) : c1          First  character.
 628:../Dave/Generated/UCPROBE/lib_ascii.c **** *
 629:../Dave/Generated/UCPROBE/lib_ascii.c **** *               c2          Second character.
 630:../Dave/Generated/UCPROBE/lib_ascii.c **** *
 631:../Dave/Generated/UCPROBE/lib_ascii.c **** * Return(s)   : DEF_YES, if the characters are     identical.
 632:../Dave/Generated/UCPROBE/lib_ascii.c **** *
 633:../Dave/Generated/UCPROBE/lib_ascii.c **** *               DEF_NO,  if the characters are NOT identical.
 634:../Dave/Generated/UCPROBE/lib_ascii.c **** *
 635:../Dave/Generated/UCPROBE/lib_ascii.c **** * Caller(s)   : Application.
 636:../Dave/Generated/UCPROBE/lib_ascii.c **** *
 637:../Dave/Generated/UCPROBE/lib_ascii.c **** * Note(s)     : none.
 638:../Dave/Generated/UCPROBE/lib_ascii.c **** ***************************************************************************************************
 639:../Dave/Generated/UCPROBE/lib_ascii.c **** */
 640:../Dave/Generated/UCPROBE/lib_ascii.c **** 
 641:../Dave/Generated/UCPROBE/lib_ascii.c **** CPU_BOOLEAN  ASCII_Cmp (CPU_CHAR  c1,
 642:../Dave/Generated/UCPROBE/lib_ascii.c ****                         CPU_CHAR  c2)
 643:../Dave/Generated/UCPROBE/lib_ascii.c **** {
 1055              	 .loc 1 643 0
 1056              	 .cfi_startproc
 1057 0000 90B5     	 push {r4,r7,lr}
 1058              	.LCFI45:
 1059              	 .cfi_def_cfa_offset 12
 1060              	 .cfi_offset 4,-12
 1061              	 .cfi_offset 7,-8
 1062              	 .cfi_offset 14,-4
 1063 0002 85B0     	 sub sp,sp,#20
 1064              	.LCFI46:
 1065              	 .cfi_def_cfa_offset 32
 1066 0004 00AF     	 add r7,sp,#0
 1067              	.LCFI47:
 1068              	 .cfi_def_cfa_register 7
 1069 0006 021C     	 mov r2,r0
 1070 0008 FB1D     	 add r3,r7,#7
 1071 000a 1A70     	 strb r2,[r3]
 1072 000c BB1D     	 add r3,r7,#6
 1073 000e 0A1C     	 add r2,r1,#0
 1074 0010 1A70     	 strb r2,[r3]
 644:../Dave/Generated/UCPROBE/lib_ascii.c ****     CPU_CHAR     c1_upper;
 645:../Dave/Generated/UCPROBE/lib_ascii.c ****     CPU_CHAR     c2_upper;
 646:../Dave/Generated/UCPROBE/lib_ascii.c ****     CPU_BOOLEAN  cmp;
 647:../Dave/Generated/UCPROBE/lib_ascii.c **** 
 648:../Dave/Generated/UCPROBE/lib_ascii.c **** 
 649:../Dave/Generated/UCPROBE/lib_ascii.c ****     c1_upper =  ASCII_ToUpper(c1);
 1075              	 .loc 1 649 0
 1076 0012 0F23     	 mov r3,#15
 1077 0014 FC18     	 add r4,r7,r3
 1078 0016 FB1D     	 add r3,r7,#7
 1079 0018 1B78     	 ldrb r3,[r3]
 1080 001a 181C     	 mov r0,r3
 1081 001c FFF7FEFF 	 bl ASCII_ToUpper
 1082 0020 031C     	 mov r3,r0
 1083 0022 2370     	 strb r3,[r4]
 650:../Dave/Generated/UCPROBE/lib_ascii.c ****     c2_upper =  ASCII_ToUpper(c2);
 1084              	 .loc 1 650 0
 1085 0024 0E23     	 mov r3,#14
 1086 0026 FC18     	 add r4,r7,r3
 1087 0028 BB1D     	 add r3,r7,#6
 1088 002a 1B78     	 ldrb r3,[r3]
 1089 002c 181C     	 mov r0,r3
 1090 002e FFF7FEFF 	 bl ASCII_ToUpper
 1091 0032 031C     	 mov r3,r0
 1092 0034 2370     	 strb r3,[r4]
 651:../Dave/Generated/UCPROBE/lib_ascii.c ****     cmp      = (c1_upper == c2_upper) ? (DEF_YES) : (DEF_NO);
 1093              	 .loc 1 651 0
 1094 0036 0F23     	 mov r3,#15
 1095 0038 FA18     	 add r2,r7,r3
 1096 003a 0E23     	 mov r3,#14
 1097 003c FB18     	 add r3,r7,r3
 1098 003e 1278     	 ldrb r2,[r2]
 1099 0040 1B78     	 ldrb r3,[r3]
 1100 0042 9A42     	 cmp r2,r3
 1101 0044 01D1     	 bne .L77
 1102              	 .loc 1 651 0 is_stmt 0 discriminator 1
 1103 0046 0122     	 mov r2,#1
 1104 0048 00E0     	 b .L78
 1105              	.L77:
 1106              	 .loc 1 651 0 discriminator 2
 1107 004a 0022     	 mov r2,#0
 1108              	.L78:
 1109              	 .loc 1 651 0 discriminator 4
 1110 004c 0D23     	 mov r3,#13
 1111 004e FB18     	 add r3,r7,r3
 1112 0050 1A70     	 strb r2,[r3]
 652:../Dave/Generated/UCPROBE/lib_ascii.c **** 
 653:../Dave/Generated/UCPROBE/lib_ascii.c ****     return (cmp);
 1113              	 .loc 1 653 0 is_stmt 1 discriminator 4
 1114 0052 0D23     	 mov r3,#13
 1115 0054 FB18     	 add r3,r7,r3
 1116 0056 1B78     	 ldrb r3,[r3]
 654:../Dave/Generated/UCPROBE/lib_ascii.c **** }
 1117              	 .loc 1 654 0 discriminator 4
 1118 0058 181C     	 mov r0,r3
 1119 005a BD46     	 mov sp,r7
 1120 005c 05B0     	 add sp,sp,#20
 1121              	 
 1122 005e 90BD     	 pop {r4,r7,pc}
 1123              	 .cfi_endproc
 1124              	.LFE15:
 1126              	 .text
 1127              	.Letext0:
 1128              	 .file 2 "../Dave/Generated/UCPROBE/cpu.h"