   1              	 .cpu cortex-m0
   2              	 .fpu softvfp
   3              	 .eabi_attribute 20,1
   4              	 .eabi_attribute 21,1
   5              	 .eabi_attribute 23,3
   6              	 .eabi_attribute 24,1
   7              	 .eabi_attribute 25,1
   8              	 .eabi_attribute 26,1
   9              	 .eabi_attribute 30,6
  10              	 .eabi_attribute 34,0
  11              	 .eabi_attribute 18,4
  12              	 .code 16
  13              	 .file "probe_com.c"
  14              	 .text
  15              	.Ltext0:
  16              	 .cfi_sections .debug_frame
  17              	 .comm ProbeCom_RxPktCtr,4,4
  18              	 .comm ProbeCom_TxPktCtr,4,4
  19              	 .comm ProbeCom_TxSymCtr,4,4
  20              	 .comm ProbeCom_TxSymByteCtr,4,4
  21              	 .comm ProbeCom_ErrPktCtr,4,4
  22              	 .comm ProbeCom_StrRxCtr,4,4
  23              	 .comm ProbeCom_StrRxOvfErrCtr,4,4
  24              	 .comm ProbeCom_StrTxCtr,4,4
  25              	 .comm ProbeCom_StrTxOvfErrCtr,4,4
  26              	 .comm ProbeCom_RxSymCtr,4,4
  27              	 .comm ProbeCom_RxSymByteCtr,4,4
  28              	 .section .bss.ProbeCom_StrInBufData,"aw",%nobits
  29              	 .align 2
  32              	ProbeCom_StrInBufData:
  33 0000 00000000 	 .space 128
  33      00000000 
  33      00000000 
  33      00000000 
  33      00000000 
  34              	 .section .bss.ProbeCom_StrInBuf,"aw",%nobits
  35              	 .align 2
  38              	ProbeCom_StrInBuf:
  39 0000 00000000 	 .space 16
  39      00000000 
  39      00000000 
  39      00000000 
  40              	 .section .bss.ProbeCom_StrOutBufData,"aw",%nobits
  41              	 .align 2
  44              	ProbeCom_StrOutBufData:
  45 0000 00000000 	 .space 2048
  45      00000000 
  45      00000000 
  45      00000000 
  45      00000000 
  46              	 .section .bss.ProbeCom_StrOutBuf,"aw",%nobits
  47              	 .align 2
  50              	ProbeCom_StrOutBuf:
  51 0000 00000000 	 .space 16
  51      00000000 
  51      00000000 
  51      00000000 
  52              	 .section .bss.ProbeCom_TerminalExecHandler,"aw",%nobits
  53              	 .align 2
  56              	ProbeCom_TerminalExecHandler:
  57 0000 00000000 	 .space 4
  58              	 .section .bss.ProbeCom_TerminalExecuting,"aw",%nobits
  61              	ProbeCom_TerminalExecuting:
  62 0000 00       	 .space 1
  63              	 .section .bss.ProbeCom_TerminalInHandler,"aw",%nobits
  64              	 .align 2
  67              	ProbeCom_TerminalInHandler:
  68 0000 00000000 	 .space 4
  69              	 .section .bss.ProbeCom_TerminalOutBufPtr,"aw",%nobits
  70              	 .align 2
  73              	ProbeCom_TerminalOutBufPtr:
  74 0000 00000000 	 .space 4
  75              	 .section .bss.ProbeCom_TerminalOutBufIx,"aw",%nobits
  76              	 .align 2
  79              	ProbeCom_TerminalOutBufIx:
  80 0000 00000000 	 .space 4
  81              	 .section .bss.ProbeCom_TerminalOutBufLen,"aw",%nobits
  82              	 .align 2
  85              	ProbeCom_TerminalOutBufLen:
  86 0000 00000000 	 .space 4
  87              	 .section .bss.ProbeCom_EndiannessTest,"aw",%nobits
  88              	 .align 2
  91              	ProbeCom_EndiannessTest:
  92 0000 00000000 	 .space 4
  93              	 .section .text.ProbeCom_Init,"ax",%progbits
  94              	 .align 2
  95              	 .global ProbeCom_Init
  96              	 .code 16
  97              	 .thumb_func
  99              	ProbeCom_Init:
 100              	.LFB0:
 101              	 .file 1 "../Dave/Generated/UCPROBE/probe_com.c"
   1:../Dave/Generated/UCPROBE/probe_com.c **** /*
   2:../Dave/Generated/UCPROBE/probe_com.c **** ***************************************************************************************************
   3:../Dave/Generated/UCPROBE/probe_com.c **** *                                       uC/Probe Communication
   4:../Dave/Generated/UCPROBE/probe_com.c **** *
   5:../Dave/Generated/UCPROBE/probe_com.c **** *                         (c) Copyright 2007-2008; Micrium, Inc.; Weston, FL
   6:../Dave/Generated/UCPROBE/probe_com.c **** *
   7:../Dave/Generated/UCPROBE/probe_com.c **** *               All rights reserved.  Protected by international copyright laws.
   8:../Dave/Generated/UCPROBE/probe_com.c **** *               Knowledge of the source code may NOT be used to develop a similar product.
   9:../Dave/Generated/UCPROBE/probe_com.c **** *               Please help us continue to provide the Embedded community with the finest
  10:../Dave/Generated/UCPROBE/probe_com.c **** *               software available.  Your honesty is greatly appreciated.
  11:../Dave/Generated/UCPROBE/probe_com.c **** ***************************************************************************************************
  12:../Dave/Generated/UCPROBE/probe_com.c **** */
  13:../Dave/Generated/UCPROBE/probe_com.c **** 
  14:../Dave/Generated/UCPROBE/probe_com.c **** /*
  15:../Dave/Generated/UCPROBE/probe_com.c **** ***************************************************************************************************
  16:../Dave/Generated/UCPROBE/probe_com.c **** *
  17:../Dave/Generated/UCPROBE/probe_com.c **** *                                       COMMUNICATION: GENERIC
  18:../Dave/Generated/UCPROBE/probe_com.c **** *
  19:../Dave/Generated/UCPROBE/probe_com.c **** * Filename      : probe_com.c
  20:../Dave/Generated/UCPROBE/probe_com.c **** * Version       : V2.30
  21:../Dave/Generated/UCPROBE/probe_com.c **** * Programmer(s) : BAN
  22:../Dave/Generated/UCPROBE/probe_com.c **** ***************************************************************************************************
  23:../Dave/Generated/UCPROBE/probe_com.c **** * Note(s)       : (1) This file contains code to respond to generic (non protocol-dependent) comman
  24:../Dave/Generated/UCPROBE/probe_com.c **** *                     received by the target.
  25:../Dave/Generated/UCPROBE/probe_com.c **** ***************************************************************************************************
  26:../Dave/Generated/UCPROBE/probe_com.c **** */
  27:../Dave/Generated/UCPROBE/probe_com.c **** 
  28:../Dave/Generated/UCPROBE/probe_com.c **** 
  29:../Dave/Generated/UCPROBE/probe_com.c **** /*
  30:../Dave/Generated/UCPROBE/probe_com.c **** ***************************************************************************************************
  31:../Dave/Generated/UCPROBE/probe_com.c **** *                                            INCLUDE FILES
  32:../Dave/Generated/UCPROBE/probe_com.c **** ***************************************************************************************************
  33:../Dave/Generated/UCPROBE/probe_com.c **** */
  34:../Dave/Generated/UCPROBE/probe_com.c **** 
  35:../Dave/Generated/UCPROBE/probe_com.c **** #define   PROBE_COM_MODULE
  36:../Dave/Generated/UCPROBE/probe_com.c **** #include  "probe_com.h"
  37:../Dave/Generated/UCPROBE/probe_com.c **** 
  38:../Dave/Generated/UCPROBE/probe_com.c **** 
  39:../Dave/Generated/UCPROBE/probe_com.c **** /*
  40:../Dave/Generated/UCPROBE/probe_com.c **** ***************************************************************************************************
  41:../Dave/Generated/UCPROBE/probe_com.c **** *                                            LOCAL DEFINES
  42:../Dave/Generated/UCPROBE/probe_com.c **** ***************************************************************************************************
  43:../Dave/Generated/UCPROBE/probe_com.c **** */
  44:../Dave/Generated/UCPROBE/probe_com.c **** 
  45:../Dave/Generated/UCPROBE/probe_com.c **** /*
  46:../Dave/Generated/UCPROBE/probe_com.c **** ***************************************************************************************************
  47:../Dave/Generated/UCPROBE/probe_com.c **** *                                        DATA FORMATS DEFINES
  48:../Dave/Generated/UCPROBE/probe_com.c **** ***************************************************************************************************
  49:../Dave/Generated/UCPROBE/probe_com.c **** */
  50:../Dave/Generated/UCPROBE/probe_com.c **** 
  51:../Dave/Generated/UCPROBE/probe_com.c **** #define  PROBE_COM_FMT_TX_ERR                         0x8000u
  52:../Dave/Generated/UCPROBE/probe_com.c **** 
  53:../Dave/Generated/UCPROBE/probe_com.c **** #define  PROBE_COM_FMT_RX_QUERY                       0x0001u   /* Query setup parameter or capabil
  54:../Dave/Generated/UCPROBE/probe_com.c **** #define  PROBE_COM_FMT_TX_QUERY                       0x8001u
  55:../Dave/Generated/UCPROBE/probe_com.c **** 
  56:../Dave/Generated/UCPROBE/probe_com.c **** #define  PROBE_COM_FMT_RX_RD                          0x0002u   /* Read data at memory address.    
  57:../Dave/Generated/UCPROBE/probe_com.c **** #define  PROBE_COM_FMT_TX_RD                          0x8002u
  58:../Dave/Generated/UCPROBE/probe_com.c **** 
  59:../Dave/Generated/UCPROBE/probe_com.c **** #define  PROBE_COM_FMT_RX_WR                          0x0003u   /* Write data at memory address.   
  60:../Dave/Generated/UCPROBE/probe_com.c **** #define  PROBE_COM_FMT_TX_WR                          0x8003u
  61:../Dave/Generated/UCPROBE/probe_com.c **** 
  62:../Dave/Generated/UCPROBE/probe_com.c **** #define  PROBE_COM_FMT_RX_RD_MULTI                    0x0007u   /* Read data at multiple memory add
  63:../Dave/Generated/UCPROBE/probe_com.c **** #define  PROBE_COM_FMT_TX_RD_MULTI                    0x8007u
  64:../Dave/Generated/UCPROBE/probe_com.c **** #define  PROBE_COM_FMT_TX_RD_MULTI_LO                   0x07u
  65:../Dave/Generated/UCPROBE/probe_com.c **** #define  PROBE_COM_FMT_TX_RD_MULTI_HI                   0x80u
  66:../Dave/Generated/UCPROBE/probe_com.c **** 
  67:../Dave/Generated/UCPROBE/probe_com.c **** #define  PROBE_COM_FMT_RX_WR_MULTI                    0x0008u   /* Write data at multiple memory ad
  68:../Dave/Generated/UCPROBE/probe_com.c **** #define  PROBE_COM_FMT_TX_WR_MULTI                    0x8008u
  69:../Dave/Generated/UCPROBE/probe_com.c **** 
  70:../Dave/Generated/UCPROBE/probe_com.c **** #define  PROBE_COM_FMT_RX_STR_OUT                     0x0009u   /* Transmit output string to Probe.
  71:../Dave/Generated/UCPROBE/probe_com.c **** #define  PROBE_COM_FMT_TX_STR_OUT                     0x8009u
  72:../Dave/Generated/UCPROBE/probe_com.c **** 
  73:../Dave/Generated/UCPROBE/probe_com.c **** #define  PROBE_COM_FMT_RX_STR_IN                      0x000Au   /* Receive input string from Probe.
  74:../Dave/Generated/UCPROBE/probe_com.c **** #define  PROBE_COM_FMT_TX_STR_IN                      0x800Au
  75:../Dave/Generated/UCPROBE/probe_com.c **** 
  76:../Dave/Generated/UCPROBE/probe_com.c **** #define  PROBE_COM_FMT_RX_TERMINAL_EXEC               0x000Bu   /* Execute terminal command.       
  77:../Dave/Generated/UCPROBE/probe_com.c **** #define  PROBE_COM_FMT_TX_TERMINAL_EXEC               0x800Bu
  78:../Dave/Generated/UCPROBE/probe_com.c **** 
  79:../Dave/Generated/UCPROBE/probe_com.c **** #define  PROBE_COM_FMT_RX_TERMINAL_OUT                0x000Cu   /* Transmit output data to Probe.  
  80:../Dave/Generated/UCPROBE/probe_com.c **** #define  PROBE_COM_FMT_TX_TERMINAL_OUT                0x800Cu
  81:../Dave/Generated/UCPROBE/probe_com.c **** 
  82:../Dave/Generated/UCPROBE/probe_com.c **** #define  PROBE_COM_FMT_RX_TERMINAL_IN                 0x000Du   /* Receive input data from Probe.  
  83:../Dave/Generated/UCPROBE/probe_com.c **** #define  PROBE_COM_FMT_TX_TERMINAL_IN                 0x800Du
  84:../Dave/Generated/UCPROBE/probe_com.c **** 
  85:../Dave/Generated/UCPROBE/probe_com.c **** /*
  86:../Dave/Generated/UCPROBE/probe_com.c **** ***************************************************************************************************
  87:../Dave/Generated/UCPROBE/probe_com.c **** *                                      STATUS CONSTANTS DEFINES
  88:../Dave/Generated/UCPROBE/probe_com.c **** ***************************************************************************************************
  89:../Dave/Generated/UCPROBE/probe_com.c **** */
  90:../Dave/Generated/UCPROBE/probe_com.c **** 
  91:../Dave/Generated/UCPROBE/probe_com.c **** #define  PROBE_COM_STATUS_OK                            0x01u
  92:../Dave/Generated/UCPROBE/probe_com.c **** #define  PROBE_COM_STATUS_TERMINAL_EXEC_NOT_RDY         0xF4u   /* Terminal not rdy to exec new cmd
  93:../Dave/Generated/UCPROBE/probe_com.c **** #define  PROBE_COM_STATUS_TERMINAL_IN_OVF               0xF5u   /* Terminal in buf ovf'd.          
  94:../Dave/Generated/UCPROBE/probe_com.c **** #define  PROBE_COM_STATUS_TERMINAL_OUT_NONE             0xF6u   /* Terminal out buf empty.         
  95:../Dave/Generated/UCPROBE/probe_com.c **** #define  PROBE_COM_STATUS_STR_IN_OVF                    0xF7u   /* String in buf ovf'd.            
  96:../Dave/Generated/UCPROBE/probe_com.c **** #define  PROBE_COM_STATUS_STR_OUT_NONE                  0xF8u   /* String out buf empty.           
  97:../Dave/Generated/UCPROBE/probe_com.c **** #define  PROBE_COM_STATUS_UNKNOWN_REQUEST               0xF9u   /* Unknown req.                    
  98:../Dave/Generated/UCPROBE/probe_com.c **** #define  PROBE_COM_STATUS_QUERY_NOT_SUPPORTED           0xFCu   /* Query not supported.            
  99:../Dave/Generated/UCPROBE/probe_com.c **** #define  PROBE_COM_STATUS_TX_PKT_TOO_LARGE              0xFDu   /* Reply pkt too large for buf.    
 100:../Dave/Generated/UCPROBE/probe_com.c **** #define  PROBE_COM_STATUS_RX_PKT_WRONG_SIZE             0xFEu   /* Req pkt not correct size.       
 101:../Dave/Generated/UCPROBE/probe_com.c **** #define  PROBE_COM_STATUS_FAIL                          0xFFu   /* Req exec failed (or unknown err)
 102:../Dave/Generated/UCPROBE/probe_com.c **** 
 103:../Dave/Generated/UCPROBE/probe_com.c **** /*
 104:../Dave/Generated/UCPROBE/probe_com.c **** ***************************************************************************************************
 105:../Dave/Generated/UCPROBE/probe_com.c **** *                                           QUERIES DEFINES
 106:../Dave/Generated/UCPROBE/probe_com.c **** ***************************************************************************************************
 107:../Dave/Generated/UCPROBE/probe_com.c **** */
 108:../Dave/Generated/UCPROBE/probe_com.c **** 
 109:../Dave/Generated/UCPROBE/probe_com.c ****                                                                 /* ------------------- CONFIGURATIO
 110:../Dave/Generated/UCPROBE/probe_com.c **** #define  PROBE_COM_QUERY_MAX_RX_SIZE                  0x0101u   /* Get data size of largest pkt tar
 111:../Dave/Generated/UCPROBE/probe_com.c **** #define  PROBE_COM_QUERY_MAX_TX_SIZE                  0x0102u   /* Get data size of largest pkt tar
 112:../Dave/Generated/UCPROBE/probe_com.c **** 
 113:../Dave/Generated/UCPROBE/probe_com.c ****                                                                 /* ----------------- TARGET PROPERT
 114:../Dave/Generated/UCPROBE/probe_com.c **** #define  PROBE_COM_QUERY_ENDIANNESS_TEST              0x0201u   /* Test endianness of target.      
 115:../Dave/Generated/UCPROBE/probe_com.c **** #define  PROBE_COM_QUERY_STATUS                       0x0202u   /* Target status.                  
 116:../Dave/Generated/UCPROBE/probe_com.c **** 
 117:../Dave/Generated/UCPROBE/probe_com.c ****                                                                 /* ------------- COMMUNICATION CAPA
 118:../Dave/Generated/UCPROBE/probe_com.c **** #define  PROBE_COM_QUERY_FMT_SUPPORT                  0x1001u   /* Get list of supported req's.    
 119:../Dave/Generated/UCPROBE/probe_com.c **** #define  PROBE_COM_QUERY_VERSION                      0x1002u   /* Get target code ver.            
 120:../Dave/Generated/UCPROBE/probe_com.c **** 
 121:../Dave/Generated/UCPROBE/probe_com.c **** /*
 122:../Dave/Generated/UCPROBE/probe_com.c **** ***************************************************************************************************
 123:../Dave/Generated/UCPROBE/probe_com.c **** *                                          MODIFIERS DEFINES
 124:../Dave/Generated/UCPROBE/probe_com.c **** ***************************************************************************************************
 125:../Dave/Generated/UCPROBE/probe_com.c **** */
 126:../Dave/Generated/UCPROBE/probe_com.c **** 
 127:../Dave/Generated/UCPROBE/probe_com.c **** #define  PROBE_COM_MODIFIER_NONE                  DEF_BIT_NONE
 128:../Dave/Generated/UCPROBE/probe_com.c **** #define  PROBE_COM_MODIFIER_STR_OUT_AVAIL         DEF_BIT_00    /* Str out is avail.               
 129:../Dave/Generated/UCPROBE/probe_com.c **** #define  PROBE_COM_MODIFIER_TERMINAL_EXEC_DONE    DEF_BIT_01    /* Terminal cmd exec done.         
 130:../Dave/Generated/UCPROBE/probe_com.c **** #define  PROBE_COM_MODIFIER_TERMINAL_OUT_AVAIL    DEF_BIT_02    /* Terminal out is avail.          
 131:../Dave/Generated/UCPROBE/probe_com.c **** 
 132:../Dave/Generated/UCPROBE/probe_com.c **** /*
 133:../Dave/Generated/UCPROBE/probe_com.c **** ***************************************************************************************************
 134:../Dave/Generated/UCPROBE/probe_com.c **** *                                        HEADER SIZES DEFINES
 135:../Dave/Generated/UCPROBE/probe_com.c **** *
 136:../Dave/Generated/UCPROBE/probe_com.c **** * Note(s):  (1) The first four bytes in all tx data segments is identical:
 137:../Dave/Generated/UCPROBE/probe_com.c **** *
 138:../Dave/Generated/UCPROBE/probe_com.c **** *               (a) A 2-byte format;
 139:../Dave/Generated/UCPROBE/probe_com.c **** *               (b) A 1-byte status;
 140:../Dave/Generated/UCPROBE/probe_com.c **** *               (c) A 1-byte modifier, currently unused.
 141:../Dave/Generated/UCPROBE/probe_com.c **** *
 142:../Dave/Generated/UCPROBE/probe_com.c **** *           (2) The first two bytes in all rx data segments is identical:
 143:../Dave/Generated/UCPROBE/probe_com.c **** *
 144:../Dave/Generated/UCPROBE/probe_com.c **** *               (a) A 2-byte format.
 145:../Dave/Generated/UCPROBE/probe_com.c **** ***************************************************************************************************
 146:../Dave/Generated/UCPROBE/probe_com.c **** */
 147:../Dave/Generated/UCPROBE/probe_com.c **** 
 148:../Dave/Generated/UCPROBE/probe_com.c **** #define  PROBE_COM_SIZE_RX_HDR                             2u
 149:../Dave/Generated/UCPROBE/probe_com.c **** #define  PROBE_COM_SIZE_TX_HDR                             4u
 150:../Dave/Generated/UCPROBE/probe_com.c **** 
 151:../Dave/Generated/UCPROBE/probe_com.c **** /*
 152:../Dave/Generated/UCPROBE/probe_com.c **** ***************************************************************************************************
 153:../Dave/Generated/UCPROBE/probe_com.c **** *                                           LOCAL CONSTANTS
 154:../Dave/Generated/UCPROBE/probe_com.c **** ***************************************************************************************************
 155:../Dave/Generated/UCPROBE/probe_com.c **** */
 156:../Dave/Generated/UCPROBE/probe_com.c **** 
 157:../Dave/Generated/UCPROBE/probe_com.c **** 
 158:../Dave/Generated/UCPROBE/probe_com.c **** /*
 159:../Dave/Generated/UCPROBE/probe_com.c **** ***************************************************************************************************
 160:../Dave/Generated/UCPROBE/probe_com.c **** *                                          LOCAL DATA TYPES
 161:../Dave/Generated/UCPROBE/probe_com.c **** ***************************************************************************************************
 162:../Dave/Generated/UCPROBE/probe_com.c **** */
 163:../Dave/Generated/UCPROBE/probe_com.c **** 
 164:../Dave/Generated/UCPROBE/probe_com.c **** typedef  struct  probe_com_buf {
 165:../Dave/Generated/UCPROBE/probe_com.c ****     CPU_SIZE_T   Len;
 166:../Dave/Generated/UCPROBE/probe_com.c ****     CPU_SIZE_T   IxRd;
 167:../Dave/Generated/UCPROBE/probe_com.c ****     CPU_SIZE_T   IxWr;
 168:../Dave/Generated/UCPROBE/probe_com.c ****     CPU_INT08U  *DataPtr;
 169:../Dave/Generated/UCPROBE/probe_com.c **** } PROBE_COM_BUF;
 170:../Dave/Generated/UCPROBE/probe_com.c **** 
 171:../Dave/Generated/UCPROBE/probe_com.c **** 
 172:../Dave/Generated/UCPROBE/probe_com.c **** /*
 173:../Dave/Generated/UCPROBE/probe_com.c **** ***************************************************************************************************
 174:../Dave/Generated/UCPROBE/probe_com.c **** *                                            LOCAL TABLES
 175:../Dave/Generated/UCPROBE/probe_com.c **** ***************************************************************************************************
 176:../Dave/Generated/UCPROBE/probe_com.c **** */
 177:../Dave/Generated/UCPROBE/probe_com.c **** 
 178:../Dave/Generated/UCPROBE/probe_com.c **** 
 179:../Dave/Generated/UCPROBE/probe_com.c **** /*
 180:../Dave/Generated/UCPROBE/probe_com.c **** ***************************************************************************************************
 181:../Dave/Generated/UCPROBE/probe_com.c **** *                                       LOCAL GLOBAL VARIABLES
 182:../Dave/Generated/UCPROBE/probe_com.c **** ***************************************************************************************************
 183:../Dave/Generated/UCPROBE/probe_com.c **** */
 184:../Dave/Generated/UCPROBE/probe_com.c **** 
 185:../Dave/Generated/UCPROBE/probe_com.c **** #if (PROBE_COM_CFG_STR_REQ_EN       == DEF_ENABLED)
 186:../Dave/Generated/UCPROBE/probe_com.c **** static  CPU_CHAR                       ProbeCom_StrInBufData[PROBE_COM_CFG_STR_IN_BUF_SIZE];
 187:../Dave/Generated/UCPROBE/probe_com.c **** static  PROBE_COM_BUF                  ProbeCom_StrInBuf;
 188:../Dave/Generated/UCPROBE/probe_com.c **** 
 189:../Dave/Generated/UCPROBE/probe_com.c **** static  CPU_CHAR                       ProbeCom_StrOutBufData[PROBE_COM_CFG_STR_OUT_BUF_SIZE];
 190:../Dave/Generated/UCPROBE/probe_com.c **** static  PROBE_COM_BUF                  ProbeCom_StrOutBuf;
 191:../Dave/Generated/UCPROBE/probe_com.c **** #endif
 192:../Dave/Generated/UCPROBE/probe_com.c **** 
 193:../Dave/Generated/UCPROBE/probe_com.c **** #if (PROBE_COM_CFG_TERMINAL_REQ_EN  == DEF_ENABLED)
 194:../Dave/Generated/UCPROBE/probe_com.c **** static  PROBE_COM_TERMINAL_EXEC_FNCT   ProbeCom_TerminalExecHandler;
 195:../Dave/Generated/UCPROBE/probe_com.c **** static  CPU_BOOLEAN                    ProbeCom_TerminalExecuting;
 196:../Dave/Generated/UCPROBE/probe_com.c **** 
 197:../Dave/Generated/UCPROBE/probe_com.c **** static  PROBE_COM_TERMINAL_IN_FNCT     ProbeCom_TerminalInHandler;
 198:../Dave/Generated/UCPROBE/probe_com.c **** 
 199:../Dave/Generated/UCPROBE/probe_com.c **** static  CPU_INT08U                    *ProbeCom_TerminalOutBufPtr;
 200:../Dave/Generated/UCPROBE/probe_com.c **** static  CPU_SIZE_T                     ProbeCom_TerminalOutBufIx;
 201:../Dave/Generated/UCPROBE/probe_com.c **** static  CPU_SIZE_T                     ProbeCom_TerminalOutBufLen;
 202:../Dave/Generated/UCPROBE/probe_com.c **** #endif
 203:../Dave/Generated/UCPROBE/probe_com.c **** 
 204:../Dave/Generated/UCPROBE/probe_com.c **** static  CPU_INT32U                     ProbeCom_EndiannessTest;
 205:../Dave/Generated/UCPROBE/probe_com.c **** 
 206:../Dave/Generated/UCPROBE/probe_com.c **** 
 207:../Dave/Generated/UCPROBE/probe_com.c **** /*
 208:../Dave/Generated/UCPROBE/probe_com.c **** ***************************************************************************************************
 209:../Dave/Generated/UCPROBE/probe_com.c **** *                                      LOCAL FUNCTION PROTOTYPES
 210:../Dave/Generated/UCPROBE/probe_com.c **** ***************************************************************************************************
 211:../Dave/Generated/UCPROBE/probe_com.c **** */
 212:../Dave/Generated/UCPROBE/probe_com.c **** 
 213:../Dave/Generated/UCPROBE/probe_com.c **** static  CPU_INT08U   ProbeCom_PktModifier     (void);
 214:../Dave/Generated/UCPROBE/probe_com.c **** 
 215:../Dave/Generated/UCPROBE/probe_com.c **** static  CPU_SIZE_T   ProbeCom_ReqErr          (CPU_INT08U      *ptx_buf,
 216:../Dave/Generated/UCPROBE/probe_com.c ****                                                CPU_INT08U       pcomm_err);
 217:../Dave/Generated/UCPROBE/probe_com.c **** 
 218:../Dave/Generated/UCPROBE/probe_com.c **** 
 219:../Dave/Generated/UCPROBE/probe_com.c ****                                                                 /* ------------------- HANDLE REQ'S
 220:../Dave/Generated/UCPROBE/probe_com.c **** static  CPU_SIZE_T   ProbeCom_ReqQuery        (CPU_INT08U      *prx_buf,
 221:../Dave/Generated/UCPROBE/probe_com.c ****                                                CPU_INT08U      *ptx_buf,
 222:../Dave/Generated/UCPROBE/probe_com.c ****                                                CPU_SIZE_T       rx_pkt_size,
 223:../Dave/Generated/UCPROBE/probe_com.c ****                                                CPU_SIZE_T       tx_buf_size);
 224:../Dave/Generated/UCPROBE/probe_com.c **** 
 225:../Dave/Generated/UCPROBE/probe_com.c **** static  CPU_SIZE_T   ProbeCom_ReqRd           (CPU_INT08U      *prx_buf,
 226:../Dave/Generated/UCPROBE/probe_com.c ****                                                CPU_INT08U      *ptx_buf,
 227:../Dave/Generated/UCPROBE/probe_com.c ****                                                CPU_SIZE_T       rx_pkt_size,
 228:../Dave/Generated/UCPROBE/probe_com.c ****                                                CPU_SIZE_T       tx_buf_size);
 229:../Dave/Generated/UCPROBE/probe_com.c **** 
 230:../Dave/Generated/UCPROBE/probe_com.c **** static  CPU_SIZE_T   ProbeCom_ReqRdMulti      (CPU_INT08U      *prx_buf,
 231:../Dave/Generated/UCPROBE/probe_com.c ****                                                CPU_INT08U      *ptx_buf,
 232:../Dave/Generated/UCPROBE/probe_com.c ****                                                CPU_SIZE_T       rx_pkt_size,
 233:../Dave/Generated/UCPROBE/probe_com.c ****                                                CPU_SIZE_T       tx_buf_size);
 234:../Dave/Generated/UCPROBE/probe_com.c **** 
 235:../Dave/Generated/UCPROBE/probe_com.c **** #if (PROBE_COM_CFG_WR_REQ_EN == DEF_ENABLED)
 236:../Dave/Generated/UCPROBE/probe_com.c **** static  CPU_SIZE_T   ProbeCom_ReqWr           (CPU_INT08U      *prx_buf,
 237:../Dave/Generated/UCPROBE/probe_com.c ****                                                CPU_INT08U      *ptx_buf,
 238:../Dave/Generated/UCPROBE/probe_com.c ****                                                CPU_SIZE_T       rx_pkt_size,
 239:../Dave/Generated/UCPROBE/probe_com.c ****                                                CPU_SIZE_T       tx_buf_size);
 240:../Dave/Generated/UCPROBE/probe_com.c **** 
 241:../Dave/Generated/UCPROBE/probe_com.c **** static  CPU_SIZE_T   ProbeCom_ReqWrMulti      (CPU_INT08U      *prx_buf,
 242:../Dave/Generated/UCPROBE/probe_com.c ****                                                CPU_INT08U      *ptx_buf,
 243:../Dave/Generated/UCPROBE/probe_com.c ****                                                CPU_SIZE_T       rx_pkt_size,
 244:../Dave/Generated/UCPROBE/probe_com.c ****                                                CPU_SIZE_T       tx_buf_size);
 245:../Dave/Generated/UCPROBE/probe_com.c **** #endif
 246:../Dave/Generated/UCPROBE/probe_com.c **** 
 247:../Dave/Generated/UCPROBE/probe_com.c **** #if (PROBE_COM_CFG_STR_REQ_EN == DEF_ENABLED)
 248:../Dave/Generated/UCPROBE/probe_com.c **** static  CPU_SIZE_T   ProbeCom_ReqStrIn        (CPU_INT08U      *prx_buf,
 249:../Dave/Generated/UCPROBE/probe_com.c ****                                                CPU_INT08U      *ptx_buf,
 250:../Dave/Generated/UCPROBE/probe_com.c ****                                                CPU_SIZE_T       rx_pkt_size,
 251:../Dave/Generated/UCPROBE/probe_com.c ****                                                CPU_SIZE_T       tx_buf_size);
 252:../Dave/Generated/UCPROBE/probe_com.c **** 
 253:../Dave/Generated/UCPROBE/probe_com.c **** static  CPU_SIZE_T   ProbeCom_ReqStrOut       (CPU_INT08U      *prx_buf,
 254:../Dave/Generated/UCPROBE/probe_com.c ****                                                CPU_INT08U      *ptx_buf,
 255:../Dave/Generated/UCPROBE/probe_com.c ****                                                CPU_SIZE_T       rx_pkt_size,
 256:../Dave/Generated/UCPROBE/probe_com.c ****                                                CPU_SIZE_T       tx_buf_size);
 257:../Dave/Generated/UCPROBE/probe_com.c **** #endif
 258:../Dave/Generated/UCPROBE/probe_com.c **** 
 259:../Dave/Generated/UCPROBE/probe_com.c **** #if (PROBE_COM_CFG_TERMINAL_REQ_EN == DEF_ENABLED)
 260:../Dave/Generated/UCPROBE/probe_com.c **** static  CPU_SIZE_T   ProbeCom_ReqTerminalExec (CPU_INT08U      *prx_buf,
 261:../Dave/Generated/UCPROBE/probe_com.c ****                                                CPU_INT08U      *ptx_buf,
 262:../Dave/Generated/UCPROBE/probe_com.c ****                                                CPU_SIZE_T       rx_pkt_size,
 263:../Dave/Generated/UCPROBE/probe_com.c ****                                                CPU_SIZE_T       tx_buf_size);
 264:../Dave/Generated/UCPROBE/probe_com.c **** 
 265:../Dave/Generated/UCPROBE/probe_com.c **** static  CPU_SIZE_T   ProbeCom_ReqTerminalIn   (CPU_INT08U      *prx_buf,
 266:../Dave/Generated/UCPROBE/probe_com.c ****                                                CPU_INT08U      *ptx_buf,
 267:../Dave/Generated/UCPROBE/probe_com.c ****                                                CPU_SIZE_T       rx_pkt_size,
 268:../Dave/Generated/UCPROBE/probe_com.c ****                                                CPU_SIZE_T       tx_buf_size);
 269:../Dave/Generated/UCPROBE/probe_com.c **** 
 270:../Dave/Generated/UCPROBE/probe_com.c **** static  CPU_SIZE_T   ProbeCom_ReqTerminalOut  (CPU_INT08U      *prx_buf,
 271:../Dave/Generated/UCPROBE/probe_com.c ****                                                CPU_INT08U      *ptx_buf,
 272:../Dave/Generated/UCPROBE/probe_com.c ****                                                CPU_SIZE_T       rx_pkt_size,
 273:../Dave/Generated/UCPROBE/probe_com.c ****                                                CPU_SIZE_T       tx_buf_size);
 274:../Dave/Generated/UCPROBE/probe_com.c **** #endif
 275:../Dave/Generated/UCPROBE/probe_com.c **** 
 276:../Dave/Generated/UCPROBE/probe_com.c ****                                                                 /* ------------------- DYNAMIC BUFF
 277:../Dave/Generated/UCPROBE/probe_com.c **** #if (PROBE_COM_CFG_STR_REQ_EN == DEF_TRUE)
 278:../Dave/Generated/UCPROBE/probe_com.c **** static  void         ProbeCom_BufInit         (PROBE_COM_BUF   *pbuf,
 279:../Dave/Generated/UCPROBE/probe_com.c ****                                                CPU_INT08U      *pdata,
 280:../Dave/Generated/UCPROBE/probe_com.c ****                                                CPU_SIZE_T       len);
 281:../Dave/Generated/UCPROBE/probe_com.c **** 
 282:../Dave/Generated/UCPROBE/probe_com.c **** static  CPU_SIZE_T   ProbeCom_BufRd           (PROBE_COM_BUF   *pbuf,
 283:../Dave/Generated/UCPROBE/probe_com.c ****                                                CPU_INT08U      *pdest,
 284:../Dave/Generated/UCPROBE/probe_com.c ****                                                CPU_SIZE_T       len)
 285:../Dave/Generated/UCPROBE/probe_com.c **** ;
 286:../Dave/Generated/UCPROBE/probe_com.c **** static  CPU_SIZE_T   ProbeCom_BufWr           (PROBE_COM_BUF   *pbuf,
 287:../Dave/Generated/UCPROBE/probe_com.c ****                                                CPU_INT08U      *psrc,
 288:../Dave/Generated/UCPROBE/probe_com.c ****                                                CPU_SIZE_T       len);
 289:../Dave/Generated/UCPROBE/probe_com.c **** 
 290:../Dave/Generated/UCPROBE/probe_com.c **** static  CPU_BOOLEAN  ProbeCom_BufIsEmpty      (PROBE_COM_BUF   *pbuf);
 291:../Dave/Generated/UCPROBE/probe_com.c **** #endif
 292:../Dave/Generated/UCPROBE/probe_com.c **** 
 293:../Dave/Generated/UCPROBE/probe_com.c **** #if 0
 294:../Dave/Generated/UCPROBE/probe_com.c **** static  CPU_BOOLEAN  ProbeCom_BufIsFull       (PROBE_COM_BUF   *pbuf);
 295:../Dave/Generated/UCPROBE/probe_com.c **** #endif
 296:../Dave/Generated/UCPROBE/probe_com.c **** 
 297:../Dave/Generated/UCPROBE/probe_com.c ****                                                                 /* ------------------- STATIC BUFFE
 298:../Dave/Generated/UCPROBE/probe_com.c **** static  CPU_INT08U   ProbeCom_GetINT08U       (CPU_INT08U     **pbuf);
 299:../Dave/Generated/UCPROBE/probe_com.c **** 
 300:../Dave/Generated/UCPROBE/probe_com.c **** static  CPU_INT16U   ProbeCom_GetINT16U       (CPU_INT08U     **pbuf);
 301:../Dave/Generated/UCPROBE/probe_com.c **** 
 302:../Dave/Generated/UCPROBE/probe_com.c **** static  CPU_INT32U   ProbeCom_GetINT32U       (CPU_INT08U     **pbuf);
 303:../Dave/Generated/UCPROBE/probe_com.c **** 
 304:../Dave/Generated/UCPROBE/probe_com.c **** static  void         ProbeCom_StoINT08U       (CPU_INT08U     **pbuf,
 305:../Dave/Generated/UCPROBE/probe_com.c ****                                                CPU_INT08U       data);
 306:../Dave/Generated/UCPROBE/probe_com.c **** 
 307:../Dave/Generated/UCPROBE/probe_com.c **** static  void         ProbeCom_StoINT16U       (CPU_INT08U     **pbuf,
 308:../Dave/Generated/UCPROBE/probe_com.c ****                                                CPU_INT16U       data);
 309:../Dave/Generated/UCPROBE/probe_com.c **** 
 310:../Dave/Generated/UCPROBE/probe_com.c **** #if 0
 311:../Dave/Generated/UCPROBE/probe_com.c **** static  void         ProbeCom_StoINT32U       (CPU_INT08U     **pbuf,
 312:../Dave/Generated/UCPROBE/probe_com.c ****                                                CPU_INT32U       data);
 313:../Dave/Generated/UCPROBE/probe_com.c **** #endif
 314:../Dave/Generated/UCPROBE/probe_com.c **** 
 315:../Dave/Generated/UCPROBE/probe_com.c ****                                                                 /* -------------- DETERMINE PKT MOD
 316:../Dave/Generated/UCPROBE/probe_com.c **** #if (PROBE_COM_CFG_STR_REQ_EN == DEF_ENABLED)
 317:../Dave/Generated/UCPROBE/probe_com.c **** static  CPU_BOOLEAN  ProbeCom_StrOutAvail     (void);
 318:../Dave/Generated/UCPROBE/probe_com.c **** #endif
 319:../Dave/Generated/UCPROBE/probe_com.c **** 
 320:../Dave/Generated/UCPROBE/probe_com.c **** 
 321:../Dave/Generated/UCPROBE/probe_com.c **** #if (PROBE_COM_CFG_TERMINAL_REQ_EN == DEF_ENABLED)
 322:../Dave/Generated/UCPROBE/probe_com.c **** static  CPU_BOOLEAN  ProbeCom_TerminalOutAvail(void);
 323:../Dave/Generated/UCPROBE/probe_com.c **** 
 324:../Dave/Generated/UCPROBE/probe_com.c **** static  CPU_BOOLEAN  ProbeCom_TerminalExecDone(void);
 325:../Dave/Generated/UCPROBE/probe_com.c **** #endif
 326:../Dave/Generated/UCPROBE/probe_com.c **** 
 327:../Dave/Generated/UCPROBE/probe_com.c **** 
 328:../Dave/Generated/UCPROBE/probe_com.c **** /*
 329:../Dave/Generated/UCPROBE/probe_com.c **** ***************************************************************************************************
 330:../Dave/Generated/UCPROBE/probe_com.c **** *                                     LOCAL CONFIGURATION ERRORS
 331:../Dave/Generated/UCPROBE/probe_com.c **** ***************************************************************************************************
 332:../Dave/Generated/UCPROBE/probe_com.c **** */
 333:../Dave/Generated/UCPROBE/probe_com.c **** 
 334:../Dave/Generated/UCPROBE/probe_com.c **** 
 335:../Dave/Generated/UCPROBE/probe_com.c **** /*
 336:../Dave/Generated/UCPROBE/probe_com.c **** ***************************************************************************************************
 337:../Dave/Generated/UCPROBE/probe_com.c **** *                                           ProbeCom_Init()
 338:../Dave/Generated/UCPROBE/probe_com.c **** *
 339:../Dave/Generated/UCPROBE/probe_com.c **** * Description : Initialize the module.
 340:../Dave/Generated/UCPROBE/probe_com.c **** *
 341:../Dave/Generated/UCPROBE/probe_com.c **** * Argument(s) : none.
 342:../Dave/Generated/UCPROBE/probe_com.c **** *
 343:../Dave/Generated/UCPROBE/probe_com.c **** * Return(s)   : DEF_OK,   if initialization successful.
 344:../Dave/Generated/UCPROBE/probe_com.c **** *               DEF_FAIL, otherwise.
 345:../Dave/Generated/UCPROBE/probe_com.c **** *
 346:../Dave/Generated/UCPROBE/probe_com.c **** * Caller(s)   : Application.
 347:../Dave/Generated/UCPROBE/probe_com.c **** *
 348:../Dave/Generated/UCPROBE/probe_com.c **** * Note(s)     : none.
 349:../Dave/Generated/UCPROBE/probe_com.c **** ***************************************************************************************************
 350:../Dave/Generated/UCPROBE/probe_com.c **** */
 351:../Dave/Generated/UCPROBE/probe_com.c **** 
 352:../Dave/Generated/UCPROBE/probe_com.c **** CPU_BOOLEAN  ProbeCom_Init (void)
 353:../Dave/Generated/UCPROBE/probe_com.c **** {
 102              	 .loc 1 353 0
 103              	 .cfi_startproc
 104 0000 90B5     	 push {r4,r7,lr}
 105              	.LCFI0:
 106              	 .cfi_def_cfa_offset 12
 107              	 .cfi_offset 4,-12
 108              	 .cfi_offset 7,-8
 109              	 .cfi_offset 14,-4
 110 0002 83B0     	 sub sp,sp,#12
 111              	.LCFI1:
 112              	 .cfi_def_cfa_offset 24
 113 0004 00AF     	 add r7,sp,#0
 114              	.LCFI2:
 115              	 .cfi_def_cfa_register 7
 354:../Dave/Generated/UCPROBE/probe_com.c **** #if (PROBE_COM_CFG_TERMINAL_REQ_EN == DEF_ENABLED)
 355:../Dave/Generated/UCPROBE/probe_com.c ****     CPU_BOOLEAN  ok;
 356:../Dave/Generated/UCPROBE/probe_com.c **** #endif
 357:../Dave/Generated/UCPROBE/probe_com.c **** 
 358:../Dave/Generated/UCPROBE/probe_com.c **** 
 359:../Dave/Generated/UCPROBE/probe_com.c **** #if (PROBE_COM_CFG_STR_REQ_EN      == DEF_ENABLED)
 360:../Dave/Generated/UCPROBE/probe_com.c ****     Mem_Clr((void     *)&ProbeCom_StrInBufData[0],
 116              	 .loc 1 360 0
 117 0006 314B     	 ldr r3,.L4
 118 0008 181C     	 mov r0,r3
 119 000a 8021     	 mov r1,#128
 120 000c FFF7FEFF 	 bl Mem_Clr
 361:../Dave/Generated/UCPROBE/probe_com.c ****             (CPU_SIZE_T) PROBE_COM_CFG_STR_IN_BUF_SIZE);
 362:../Dave/Generated/UCPROBE/probe_com.c **** 
 363:../Dave/Generated/UCPROBE/probe_com.c ****     ProbeCom_BufInit((PROBE_COM_BUF *)&ProbeCom_StrInBuf,
 121              	 .loc 1 363 0
 122 0010 2F4A     	 ldr r2,.L4+4
 123 0012 2E4B     	 ldr r3,.L4
 124 0014 101C     	 mov r0,r2
 125 0016 191C     	 mov r1,r3
 126 0018 8022     	 mov r2,#128
 127 001a FFF7FEFF 	 bl ProbeCom_BufInit
 364:../Dave/Generated/UCPROBE/probe_com.c ****                      (CPU_INT08U    *)&ProbeCom_StrInBufData[0],
 365:../Dave/Generated/UCPROBE/probe_com.c ****                      (CPU_SIZE_T     ) PROBE_COM_CFG_STR_IN_BUF_SIZE);
 366:../Dave/Generated/UCPROBE/probe_com.c **** 
 367:../Dave/Generated/UCPROBE/probe_com.c ****     Mem_Clr((void     *)&ProbeCom_StrOutBufData[0],
 128              	 .loc 1 367 0
 129 001e 2D4A     	 ldr r2,.L4+8
 130 0020 8023     	 mov r3,#128
 131 0022 1B01     	 lsl r3,r3,#4
 132 0024 101C     	 mov r0,r2
 133 0026 191C     	 mov r1,r3
 134 0028 FFF7FEFF 	 bl Mem_Clr
 368:../Dave/Generated/UCPROBE/probe_com.c ****             (CPU_SIZE_T) PROBE_COM_CFG_STR_OUT_BUF_SIZE);
 369:../Dave/Generated/UCPROBE/probe_com.c **** 
 370:../Dave/Generated/UCPROBE/probe_com.c ****     ProbeCom_BufInit((PROBE_COM_BUF *)&ProbeCom_StrOutBuf,
 135              	 .loc 1 370 0
 136 002c 2A49     	 ldr r1,.L4+12
 137 002e 294A     	 ldr r2,.L4+8
 138 0030 8023     	 mov r3,#128
 139 0032 1B01     	 lsl r3,r3,#4
 140 0034 081C     	 mov r0,r1
 141 0036 111C     	 mov r1,r2
 142 0038 1A1C     	 mov r2,r3
 143 003a FFF7FEFF 	 bl ProbeCom_BufInit
 371:../Dave/Generated/UCPROBE/probe_com.c ****                      (CPU_INT08U    *)&ProbeCom_StrOutBufData[0],
 372:../Dave/Generated/UCPROBE/probe_com.c ****                      (CPU_SIZE_T     ) PROBE_COM_CFG_STR_OUT_BUF_SIZE);
 373:../Dave/Generated/UCPROBE/probe_com.c **** #endif
 374:../Dave/Generated/UCPROBE/probe_com.c **** 
 375:../Dave/Generated/UCPROBE/probe_com.c **** 
 376:../Dave/Generated/UCPROBE/probe_com.c **** #if (PROBE_COM_CFG_TERMINAL_REQ_EN == DEF_ENABLED)
 377:../Dave/Generated/UCPROBE/probe_com.c ****     ProbeCom_TerminalExecHandler   = (void        *)0;
 144              	 .loc 1 377 0
 145 003e 274B     	 ldr r3,.L4+16
 146 0040 0022     	 mov r2,#0
 147 0042 1A60     	 str r2,[r3]
 378:../Dave/Generated/UCPROBE/probe_com.c ****     ProbeCom_TerminalExecuting     = (CPU_BOOLEAN  )DEF_NO;
 148              	 .loc 1 378 0
 149 0044 264B     	 ldr r3,.L4+20
 150 0046 0022     	 mov r2,#0
 151 0048 1A70     	 strb r2,[r3]
 379:../Dave/Generated/UCPROBE/probe_com.c **** 
 380:../Dave/Generated/UCPROBE/probe_com.c ****     ProbeCom_TerminalInHandler     = (void        *)0;
 152              	 .loc 1 380 0
 153 004a 264B     	 ldr r3,.L4+24
 154 004c 0022     	 mov r2,#0
 155 004e 1A60     	 str r2,[r3]
 381:../Dave/Generated/UCPROBE/probe_com.c **** 
 382:../Dave/Generated/UCPROBE/probe_com.c ****     ProbeCom_TerminalOutBufPtr     = (CPU_INT08U  *)0;
 156              	 .loc 1 382 0
 157 0050 254B     	 ldr r3,.L4+28
 158 0052 0022     	 mov r2,#0
 159 0054 1A60     	 str r2,[r3]
 383:../Dave/Generated/UCPROBE/probe_com.c ****     ProbeCom_TerminalOutBufIx      = (CPU_SIZE_T   )0;
 160              	 .loc 1 383 0
 161 0056 254B     	 ldr r3,.L4+32
 162 0058 0022     	 mov r2,#0
 163 005a 1A60     	 str r2,[r3]
 384:../Dave/Generated/UCPROBE/probe_com.c ****     ProbeCom_TerminalOutBufLen     = (CPU_SIZE_T   )0;
 164              	 .loc 1 384 0
 165 005c 244B     	 ldr r3,.L4+36
 166 005e 0022     	 mov r2,#0
 167 0060 1A60     	 str r2,[r3]
 385:../Dave/Generated/UCPROBE/probe_com.c **** 
 386:../Dave/Generated/UCPROBE/probe_com.c ****     ok = ProbeCom_OS_Init();
 168              	 .loc 1 386 0
 169 0062 FC1D     	 add r4,r7,#7
 170 0064 FFF7FEFF 	 bl ProbeCom_OS_Init
 171 0068 031C     	 mov r3,r0
 172 006a 2370     	 strb r3,[r4]
 387:../Dave/Generated/UCPROBE/probe_com.c **** 
 388:../Dave/Generated/UCPROBE/probe_com.c ****     if (ok == DEF_FAIL) {
 173              	 .loc 1 388 0
 174 006c FB1D     	 add r3,r7,#7
 175 006e 1B78     	 ldrb r3,[r3]
 176 0070 002B     	 cmp r3,#0
 177 0072 01D1     	 bne .L2
 389:../Dave/Generated/UCPROBE/probe_com.c ****         return (DEF_FAIL);
 178              	 .loc 1 389 0
 179 0074 0023     	 mov r3,#0
 180 0076 24E0     	 b .L3
 181              	.L2:
 390:../Dave/Generated/UCPROBE/probe_com.c ****     }
 391:../Dave/Generated/UCPROBE/probe_com.c **** #endif
 392:../Dave/Generated/UCPROBE/probe_com.c **** 
 393:../Dave/Generated/UCPROBE/probe_com.c **** 
 394:../Dave/Generated/UCPROBE/probe_com.c **** #if (PROBE_COM_CFG_STAT_EN         == DEF_ENABLED)
 395:../Dave/Generated/UCPROBE/probe_com.c ****     ProbeCom_RxPktCtr              =  0u;
 182              	 .loc 1 395 0
 183 0078 1E4B     	 ldr r3,.L4+40
 184 007a 0022     	 mov r2,#0
 185 007c 1A60     	 str r2,[r3]
 396:../Dave/Generated/UCPROBE/probe_com.c ****     ProbeCom_TxPktCtr              =  0u;
 186              	 .loc 1 396 0
 187 007e 1E4B     	 ldr r3,.L4+44
 188 0080 0022     	 mov r2,#0
 189 0082 1A60     	 str r2,[r3]
 397:../Dave/Generated/UCPROBE/probe_com.c **** 
 398:../Dave/Generated/UCPROBE/probe_com.c ****     ProbeCom_TxSymCtr              =  0u;
 190              	 .loc 1 398 0
 191 0084 1D4B     	 ldr r3,.L4+48
 192 0086 0022     	 mov r2,#0
 193 0088 1A60     	 str r2,[r3]
 399:../Dave/Generated/UCPROBE/probe_com.c ****     ProbeCom_TxSymByteCtr          =  0u;
 194              	 .loc 1 399 0
 195 008a 1D4B     	 ldr r3,.L4+52
 196 008c 0022     	 mov r2,#0
 197 008e 1A60     	 str r2,[r3]
 400:../Dave/Generated/UCPROBE/probe_com.c ****     ProbeCom_ErrPktCtr             =  0u;
 198              	 .loc 1 400 0
 199 0090 1C4B     	 ldr r3,.L4+56
 200 0092 0022     	 mov r2,#0
 201 0094 1A60     	 str r2,[r3]
 401:../Dave/Generated/UCPROBE/probe_com.c **** 
 402:../Dave/Generated/UCPROBE/probe_com.c **** #if (PROBE_COM_CFG_STR_REQ_EN      == DEF_ENABLED)
 403:../Dave/Generated/UCPROBE/probe_com.c ****     ProbeCom_StrRxCtr              =  0u;
 202              	 .loc 1 403 0
 203 0096 1C4B     	 ldr r3,.L4+60
 204 0098 0022     	 mov r2,#0
 205 009a 1A60     	 str r2,[r3]
 404:../Dave/Generated/UCPROBE/probe_com.c ****     ProbeCom_StrRxOvfErrCtr        =  0u;
 206              	 .loc 1 404 0
 207 009c 1B4B     	 ldr r3,.L4+64
 208 009e 0022     	 mov r2,#0
 209 00a0 1A60     	 str r2,[r3]
 405:../Dave/Generated/UCPROBE/probe_com.c **** 
 406:../Dave/Generated/UCPROBE/probe_com.c ****     ProbeCom_StrTxCtr              =  0u;
 210              	 .loc 1 406 0
 211 00a2 1B4B     	 ldr r3,.L4+68
 212 00a4 0022     	 mov r2,#0
 213 00a6 1A60     	 str r2,[r3]
 407:../Dave/Generated/UCPROBE/probe_com.c ****     ProbeCom_StrTxOvfErrCtr        =  0u;
 214              	 .loc 1 407 0
 215 00a8 1A4B     	 ldr r3,.L4+72
 216 00aa 0022     	 mov r2,#0
 217 00ac 1A60     	 str r2,[r3]
 408:../Dave/Generated/UCPROBE/probe_com.c **** #endif
 409:../Dave/Generated/UCPROBE/probe_com.c **** 
 410:../Dave/Generated/UCPROBE/probe_com.c **** #if (PROBE_COM_CFG_WR_REQ_EN       == DEF_ENABLED)
 411:../Dave/Generated/UCPROBE/probe_com.c ****     ProbeCom_RxSymCtr              =  0u;
 218              	 .loc 1 411 0
 219 00ae 1A4B     	 ldr r3,.L4+76
 220 00b0 0022     	 mov r2,#0
 221 00b2 1A60     	 str r2,[r3]
 412:../Dave/Generated/UCPROBE/probe_com.c ****     ProbeCom_RxSymByteCtr          =  0u;
 222              	 .loc 1 412 0
 223 00b4 194B     	 ldr r3,.L4+80
 224 00b6 0022     	 mov r2,#0
 225 00b8 1A60     	 str r2,[r3]
 413:../Dave/Generated/UCPROBE/probe_com.c **** #endif
 414:../Dave/Generated/UCPROBE/probe_com.c **** #endif
 415:../Dave/Generated/UCPROBE/probe_com.c **** 
 416:../Dave/Generated/UCPROBE/probe_com.c ****     ProbeCom_EndiannessTest        =  0x12345678uL;
 226              	 .loc 1 416 0
 227 00ba 194B     	 ldr r3,.L4+84
 228 00bc 194A     	 ldr r2,.L4+88
 229 00be 1A60     	 str r2,[r3]
 417:../Dave/Generated/UCPROBE/probe_com.c **** 
 418:../Dave/Generated/UCPROBE/probe_com.c ****     return (DEF_OK);
 230              	 .loc 1 418 0
 231 00c0 0123     	 mov r3,#1
 232              	.L3:
 419:../Dave/Generated/UCPROBE/probe_com.c **** }
 233              	 .loc 1 419 0
 234 00c2 181C     	 mov r0,r3
 235 00c4 BD46     	 mov sp,r7
 236 00c6 03B0     	 add sp,sp,#12
 237              	 
 238 00c8 90BD     	 pop {r4,r7,pc}
 239              	.L5:
 240 00ca C046     	 .align 2
 241              	.L4:
 242 00cc 00000000 	 .word ProbeCom_StrInBufData
 243 00d0 00000000 	 .word ProbeCom_StrInBuf
 244 00d4 00000000 	 .word ProbeCom_StrOutBufData
 245 00d8 00000000 	 .word ProbeCom_StrOutBuf
 246 00dc 00000000 	 .word ProbeCom_TerminalExecHandler
 247 00e0 00000000 	 .word ProbeCom_TerminalExecuting
 248 00e4 00000000 	 .word ProbeCom_TerminalInHandler
 249 00e8 00000000 	 .word ProbeCom_TerminalOutBufPtr
 250 00ec 00000000 	 .word ProbeCom_TerminalOutBufIx
 251 00f0 00000000 	 .word ProbeCom_TerminalOutBufLen
 252 00f4 00000000 	 .word ProbeCom_RxPktCtr
 253 00f8 00000000 	 .word ProbeCom_TxPktCtr
 254 00fc 00000000 	 .word ProbeCom_TxSymCtr
 255 0100 00000000 	 .word ProbeCom_TxSymByteCtr
 256 0104 00000000 	 .word ProbeCom_ErrPktCtr
 257 0108 00000000 	 .word ProbeCom_StrRxCtr
 258 010c 00000000 	 .word ProbeCom_StrRxOvfErrCtr
 259 0110 00000000 	 .word ProbeCom_StrTxCtr
 260 0114 00000000 	 .word ProbeCom_StrTxOvfErrCtr
 261 0118 00000000 	 .word ProbeCom_RxSymCtr
 262 011c 00000000 	 .word ProbeCom_RxSymByteCtr
 263 0120 00000000 	 .word ProbeCom_EndiannessTest
 264 0124 78563412 	 .word 305419896
 265              	 .cfi_endproc
 266              	.LFE0:
 268              	 .section .text.ProbeCom_StrRd,"ax",%progbits
 269              	 .align 2
 270              	 .global ProbeCom_StrRd
 271              	 .code 16
 272              	 .thumb_func
 274              	ProbeCom_StrRd:
 275              	.LFB1:
 420:../Dave/Generated/UCPROBE/probe_com.c **** 
 421:../Dave/Generated/UCPROBE/probe_com.c **** 
 422:../Dave/Generated/UCPROBE/probe_com.c **** /*
 423:../Dave/Generated/UCPROBE/probe_com.c **** ***************************************************************************************************
 424:../Dave/Generated/UCPROBE/probe_com.c **** *                                          ProbeCom_StrRd()
 425:../Dave/Generated/UCPROBE/probe_com.c **** *
 426:../Dave/Generated/UCPROBE/probe_com.c **** * Description : Read input data.
 427:../Dave/Generated/UCPROBE/probe_com.c **** *
 428:../Dave/Generated/UCPROBE/probe_com.c **** * Argument(s) : pdest       Pointer to the destination buffer.
 429:../Dave/Generated/UCPROBE/probe_com.c **** *
 430:../Dave/Generated/UCPROBE/probe_com.c **** *               len         Length of the destination buffer, in octets/characters.
 431:../Dave/Generated/UCPROBE/probe_com.c **** *
 432:../Dave/Generated/UCPROBE/probe_com.c **** * Return(s)   : Number of octets/characters read.
 433:../Dave/Generated/UCPROBE/probe_com.c **** *
 434:../Dave/Generated/UCPROBE/probe_com.c **** * Caller(s)   : Application.
 435:../Dave/Generated/UCPROBE/probe_com.c **** *
 436:../Dave/Generated/UCPROBE/probe_com.c **** * Note(s)     : (1) This function implements a non-blocking read.  It will read as much data as fit
 437:../Dave/Generated/UCPROBE/probe_com.c **** *                   into the buffer, up to 'len' bytes/characters.  The calling application should
 438:../Dave/Generated/UCPROBE/probe_com.c **** *                   monitor the return value to see if more data needs to be read.
 439:../Dave/Generated/UCPROBE/probe_com.c **** *
 440:../Dave/Generated/UCPROBE/probe_com.c **** *               (2) Since this function never blocks, it should not be called in a tight loop witho
 441:../Dave/Generated/UCPROBE/probe_com.c **** *                   delay.
 442:../Dave/Generated/UCPROBE/probe_com.c **** *
 443:../Dave/Generated/UCPROBE/probe_com.c **** *               (3) This function MAY be called from an ISR.
 444:../Dave/Generated/UCPROBE/probe_com.c **** ***************************************************************************************************
 445:../Dave/Generated/UCPROBE/probe_com.c **** */
 446:../Dave/Generated/UCPROBE/probe_com.c **** 
 447:../Dave/Generated/UCPROBE/probe_com.c **** #if (PROBE_COM_CFG_STR_REQ_EN == DEF_ENABLED)
 448:../Dave/Generated/UCPROBE/probe_com.c **** CPU_SIZE_T  ProbeCom_StrRd (CPU_CHAR    *pdest,
 449:../Dave/Generated/UCPROBE/probe_com.c ****                             CPU_SIZE_T   len)
 450:../Dave/Generated/UCPROBE/probe_com.c **** {
 276              	 .loc 1 450 0
 277              	 .cfi_startproc
 278 0000 80B5     	 push {r7,lr}
 279              	.LCFI3:
 280              	 .cfi_def_cfa_offset 8
 281              	 .cfi_offset 7,-8
 282              	 .cfi_offset 14,-4
 283 0002 84B0     	 sub sp,sp,#16
 284              	.LCFI4:
 285              	 .cfi_def_cfa_offset 24
 286 0004 00AF     	 add r7,sp,#0
 287              	.LCFI5:
 288              	 .cfi_def_cfa_register 7
 289 0006 7860     	 str r0,[r7,#4]
 290 0008 3960     	 str r1,[r7]
 451:../Dave/Generated/UCPROBE/probe_com.c ****     CPU_SIZE_T  len_rd;
 452:../Dave/Generated/UCPROBE/probe_com.c **** 
 453:../Dave/Generated/UCPROBE/probe_com.c **** 
 454:../Dave/Generated/UCPROBE/probe_com.c ****     len_rd = ProbeCom_BufRd((PROBE_COM_BUF *)&ProbeCom_StrInBuf,
 291              	 .loc 1 454 0
 292 000a 0749     	 ldr r1,.L8
 293 000c 7A68     	 ldr r2,[r7,#4]
 294 000e 3B68     	 ldr r3,[r7]
 295 0010 081C     	 mov r0,r1
 296 0012 111C     	 mov r1,r2
 297 0014 1A1C     	 mov r2,r3
 298 0016 FFF7FEFF 	 bl ProbeCom_BufRd
 299 001a 031C     	 mov r3,r0
 300 001c FB60     	 str r3,[r7,#12]
 455:../Dave/Generated/UCPROBE/probe_com.c ****                             (CPU_INT08U    *) pdest,
 456:../Dave/Generated/UCPROBE/probe_com.c ****                             (CPU_SIZE_T     ) len);
 457:../Dave/Generated/UCPROBE/probe_com.c **** 
 458:../Dave/Generated/UCPROBE/probe_com.c ****     return (len_rd);
 301              	 .loc 1 458 0
 302 001e FB68     	 ldr r3,[r7,#12]
 459:../Dave/Generated/UCPROBE/probe_com.c **** }
 303              	 .loc 1 459 0
 304 0020 181C     	 mov r0,r3
 305 0022 BD46     	 mov sp,r7
 306 0024 04B0     	 add sp,sp,#16
 307              	 
 308 0026 80BD     	 pop {r7,pc}
 309              	.L9:
 310              	 .align 2
 311              	.L8:
 312 0028 00000000 	 .word ProbeCom_StrInBuf
 313              	 .cfi_endproc
 314              	.LFE1:
 316              	 .section .text.ProbeCom_StrWr,"ax",%progbits
 317              	 .align 2
 318              	 .global ProbeCom_StrWr
 319              	 .code 16
 320              	 .thumb_func
 322              	ProbeCom_StrWr:
 323              	.LFB2:
 460:../Dave/Generated/UCPROBE/probe_com.c **** #endif
 461:../Dave/Generated/UCPROBE/probe_com.c **** 
 462:../Dave/Generated/UCPROBE/probe_com.c **** 
 463:../Dave/Generated/UCPROBE/probe_com.c **** /*
 464:../Dave/Generated/UCPROBE/probe_com.c **** ***************************************************************************************************
 465:../Dave/Generated/UCPROBE/probe_com.c **** *                                          ProbeCom_StrWr()
 466:../Dave/Generated/UCPROBE/probe_com.c **** *
 467:../Dave/Generated/UCPROBE/probe_com.c **** * Description : Write or buffer data for output.
 468:../Dave/Generated/UCPROBE/probe_com.c **** *
 469:../Dave/Generated/UCPROBE/probe_com.c **** * Argument(s) : psrc        Pointer to the source buffer.
 470:../Dave/Generated/UCPROBE/probe_com.c **** *
 471:../Dave/Generated/UCPROBE/probe_com.c **** *               len         Length of the source buffer, in octets/characters.
 472:../Dave/Generated/UCPROBE/probe_com.c **** *
 473:../Dave/Generated/UCPROBE/probe_com.c **** * Return(s)   : Number of octets/characters written or buffered.
 474:../Dave/Generated/UCPROBE/probe_com.c **** *
 475:../Dave/Generated/UCPROBE/probe_com.c **** * Caller(s)   : Application.
 476:../Dave/Generated/UCPROBE/probe_com.c **** *
 477:../Dave/Generated/UCPROBE/probe_com.c **** * Note(s)     : (1) This function implements a non-blocking write.  It will write as much data as f
 478:../Dave/Generated/UCPROBE/probe_com.c **** *                   into the buffer, up to 'len' bytes/characters.  The calling application should
 479:../Dave/Generated/UCPROBE/probe_com.c **** *                   monitor the return value to see if more data from the buffer needs to be writte
 480:../Dave/Generated/UCPROBE/probe_com.c **** *
 481:../Dave/Generated/UCPROBE/probe_com.c **** *               (2) Since this function never blocks, it should not be called in a tight loop witho
 482:../Dave/Generated/UCPROBE/probe_com.c **** *                   delay.
 483:../Dave/Generated/UCPROBE/probe_com.c **** *
 484:../Dave/Generated/UCPROBE/probe_com.c **** *               (3) This function MAY be called from an ISR.
 485:../Dave/Generated/UCPROBE/probe_com.c **** ***************************************************************************************************
 486:../Dave/Generated/UCPROBE/probe_com.c **** */
 487:../Dave/Generated/UCPROBE/probe_com.c **** 
 488:../Dave/Generated/UCPROBE/probe_com.c **** #if (PROBE_COM_CFG_STR_REQ_EN == DEF_ENABLED)
 489:../Dave/Generated/UCPROBE/probe_com.c **** CPU_SIZE_T  ProbeCom_StrWr (CPU_CHAR    *psrc,
 490:../Dave/Generated/UCPROBE/probe_com.c ****                             CPU_SIZE_T   len)
 491:../Dave/Generated/UCPROBE/probe_com.c **** {
 324              	 .loc 1 491 0
 325              	 .cfi_startproc
 326 0000 80B5     	 push {r7,lr}
 327              	.LCFI6:
 328              	 .cfi_def_cfa_offset 8
 329              	 .cfi_offset 7,-8
 330              	 .cfi_offset 14,-4
 331 0002 84B0     	 sub sp,sp,#16
 332              	.LCFI7:
 333              	 .cfi_def_cfa_offset 24
 334 0004 00AF     	 add r7,sp,#0
 335              	.LCFI8:
 336              	 .cfi_def_cfa_register 7
 337 0006 7860     	 str r0,[r7,#4]
 338 0008 3960     	 str r1,[r7]
 492:../Dave/Generated/UCPROBE/probe_com.c ****     CPU_SIZE_T  len_wr;
 493:../Dave/Generated/UCPROBE/probe_com.c **** 
 494:../Dave/Generated/UCPROBE/probe_com.c **** 
 495:../Dave/Generated/UCPROBE/probe_com.c ****     len_wr = ProbeCom_BufWr((PROBE_COM_BUF *)&ProbeCom_StrOutBuf,
 339              	 .loc 1 495 0
 340 000a 0C49     	 ldr r1,.L13
 341 000c 7A68     	 ldr r2,[r7,#4]
 342 000e 3B68     	 ldr r3,[r7]
 343 0010 081C     	 mov r0,r1
 344 0012 111C     	 mov r1,r2
 345 0014 1A1C     	 mov r2,r3
 346 0016 FFF7FEFF 	 bl ProbeCom_BufWr
 347 001a 031C     	 mov r3,r0
 348 001c FB60     	 str r3,[r7,#12]
 496:../Dave/Generated/UCPROBE/probe_com.c ****                             (CPU_INT08U    *) psrc,
 497:../Dave/Generated/UCPROBE/probe_com.c ****                             (CPU_SIZE_T     ) len);
 498:../Dave/Generated/UCPROBE/probe_com.c **** 
 499:../Dave/Generated/UCPROBE/probe_com.c **** #if (PROBE_COM_CFG_STAT_EN == DEF_ENABLED)
 500:../Dave/Generated/UCPROBE/probe_com.c ****     if (len_wr < len) {
 349              	 .loc 1 500 0
 350 001e FA68     	 ldr r2,[r7,#12]
 351 0020 3B68     	 ldr r3,[r7]
 352 0022 9A42     	 cmp r2,r3
 353 0024 04D2     	 bcs .L11
 501:../Dave/Generated/UCPROBE/probe_com.c ****         ProbeCom_StrTxOvfErrCtr++;
 354              	 .loc 1 501 0
 355 0026 064B     	 ldr r3,.L13+4
 356 0028 1B68     	 ldr r3,[r3]
 357 002a 5A1C     	 add r2,r3,#1
 358 002c 044B     	 ldr r3,.L13+4
 359 002e 1A60     	 str r2,[r3]
 360              	.L11:
 502:../Dave/Generated/UCPROBE/probe_com.c ****     }
 503:../Dave/Generated/UCPROBE/probe_com.c **** #endif
 504:../Dave/Generated/UCPROBE/probe_com.c **** 
 505:../Dave/Generated/UCPROBE/probe_com.c ****     return (len_wr);
 361              	 .loc 1 505 0
 362 0030 FB68     	 ldr r3,[r7,#12]
 506:../Dave/Generated/UCPROBE/probe_com.c **** }
 363              	 .loc 1 506 0
 364 0032 181C     	 mov r0,r3
 365 0034 BD46     	 mov sp,r7
 366 0036 04B0     	 add sp,sp,#16
 367              	 
 368 0038 80BD     	 pop {r7,pc}
 369              	.L14:
 370 003a C046     	 .align 2
 371              	.L13:
 372 003c 00000000 	 .word ProbeCom_StrOutBuf
 373 0040 00000000 	 .word ProbeCom_StrTxOvfErrCtr
 374              	 .cfi_endproc
 375              	.LFE2:
 377              	 .section .text.ProbeCom_TerminalOut,"ax",%progbits
 378              	 .align 2
 379              	 .global ProbeCom_TerminalOut
 380              	 .code 16
 381              	 .thumb_func
 383              	ProbeCom_TerminalOut:
 384              	.LFB3:
 507:../Dave/Generated/UCPROBE/probe_com.c **** #endif
 508:../Dave/Generated/UCPROBE/probe_com.c **** 
 509:../Dave/Generated/UCPROBE/probe_com.c **** 
 510:../Dave/Generated/UCPROBE/probe_com.c **** /*
 511:../Dave/Generated/UCPROBE/probe_com.c **** ***************************************************************************************************
 512:../Dave/Generated/UCPROBE/probe_com.c **** *                                       ProbeCom_TerminalOut()
 513:../Dave/Generated/UCPROBE/probe_com.c **** *
 514:../Dave/Generated/UCPROBE/probe_com.c **** * Description : Output data over terminal.
 515:../Dave/Generated/UCPROBE/probe_com.c **** *
 516:../Dave/Generated/UCPROBE/probe_com.c **** * Argument(s) : psrc        Pointer to the source buffer.
 517:../Dave/Generated/UCPROBE/probe_com.c **** *
 518:../Dave/Generated/UCPROBE/probe_com.c **** *               len         Length of source buffer, in octets/characters.
 519:../Dave/Generated/UCPROBE/probe_com.c **** *
 520:../Dave/Generated/UCPROBE/probe_com.c **** * Return(s)   : Number of octets/characters output.
 521:../Dave/Generated/UCPROBE/probe_com.c **** *
 522:../Dave/Generated/UCPROBE/probe_com.c **** * Caller(s)   : Application.
 523:../Dave/Generated/UCPROBE/probe_com.c **** *
 524:../Dave/Generated/UCPROBE/probe_com.c **** * Note(s)     : (1) This function implements a blocking write.  It will queue the request and wait 
 525:../Dave/Generated/UCPROBE/probe_com.c **** *                   all of the data has been buffered or transmitted before returning.
 526:../Dave/Generated/UCPROBE/probe_com.c **** *
 527:../Dave/Generated/UCPROBE/probe_com.c **** *               (2) Terminal data may ONLY be output while a command is being executed.
 528:../Dave/Generated/UCPROBE/probe_com.c **** *
 529:../Dave/Generated/UCPROBE/probe_com.c **** *                   (a) Generic read/write functionality is provided by the string read/write funct
 530:../Dave/Generated/UCPROBE/probe_com.c **** *                       (see 'ProbeCom_StrRd()', 'ProbeCom_StrWr()').
 531:../Dave/Generated/UCPROBE/probe_com.c **** *
 532:../Dave/Generated/UCPROBE/probe_com.c **** *               (3) This function MUST NOT be called from an ISR.
 533:../Dave/Generated/UCPROBE/probe_com.c **** ***************************************************************************************************
 534:../Dave/Generated/UCPROBE/probe_com.c **** */
 535:../Dave/Generated/UCPROBE/probe_com.c **** 
 536:../Dave/Generated/UCPROBE/probe_com.c **** #if (PROBE_COM_CFG_TERMINAL_REQ_EN == DEF_ENABLED)
 537:../Dave/Generated/UCPROBE/probe_com.c **** CPU_SIZE_T  ProbeCom_TerminalOut (CPU_CHAR    *psrc,
 538:../Dave/Generated/UCPROBE/probe_com.c ****                                   CPU_SIZE_T   len)
 539:../Dave/Generated/UCPROBE/probe_com.c **** {
 385              	 .loc 1 539 0
 386              	 .cfi_startproc
 387 0000 80B5     	 push {r7,lr}
 388              	.LCFI9:
 389              	 .cfi_def_cfa_offset 8
 390              	 .cfi_offset 7,-8
 391              	 .cfi_offset 14,-4
 392 0002 84B0     	 sub sp,sp,#16
 393              	.LCFI10:
 394              	 .cfi_def_cfa_offset 24
 395 0004 00AF     	 add r7,sp,#0
 396              	.LCFI11:
 397              	 .cfi_def_cfa_register 7
 398 0006 7860     	 str r0,[r7,#4]
 399 0008 3960     	 str r1,[r7]
 540:../Dave/Generated/UCPROBE/probe_com.c ****     CPU_SR_ALLOC();
 400              	 .loc 1 540 0
 401 000a 0023     	 mov r3,#0
 402 000c FB60     	 str r3,[r7,#12]
 541:../Dave/Generated/UCPROBE/probe_com.c **** 
 542:../Dave/Generated/UCPROBE/probe_com.c **** 
 543:../Dave/Generated/UCPROBE/probe_com.c ****                                                                 /* ------------------- VALIDATE ARG
 544:../Dave/Generated/UCPROBE/probe_com.c ****     if (psrc == (CPU_CHAR *)0) {                                /* Validate NULL ptr.              
 403              	 .loc 1 544 0
 404 000e 7B68     	 ldr r3,[r7,#4]
 405 0010 002B     	 cmp r3,#0
 406 0012 01D1     	 bne .L16
 545:../Dave/Generated/UCPROBE/probe_com.c ****         return ((CPU_SIZE_T)0);
 407              	 .loc 1 545 0
 408 0014 0023     	 mov r3,#0
 409 0016 35E0     	 b .L17
 410              	.L16:
 546:../Dave/Generated/UCPROBE/probe_com.c ****     }
 547:../Dave/Generated/UCPROBE/probe_com.c **** 
 548:../Dave/Generated/UCPROBE/probe_com.c ****     if (len == 0u) {                                            /* Validate NULL len.              
 411              	 .loc 1 548 0
 412 0018 3B68     	 ldr r3,[r7]
 413 001a 002B     	 cmp r3,#0
 414 001c 01D1     	 bne .L18
 549:../Dave/Generated/UCPROBE/probe_com.c ****         return ((CPU_SIZE_T)0);
 415              	 .loc 1 549 0
 416 001e 0023     	 mov r3,#0
 417 0020 30E0     	 b .L17
 418              	.L18:
 550:../Dave/Generated/UCPROBE/probe_com.c ****     }
 551:../Dave/Generated/UCPROBE/probe_com.c **** 
 552:../Dave/Generated/UCPROBE/probe_com.c **** 
 553:../Dave/Generated/UCPROBE/probe_com.c **** 
 554:../Dave/Generated/UCPROBE/probe_com.c ****                                                                 /* ------------------- START OUTPUT
 555:../Dave/Generated/UCPROBE/probe_com.c ****     CPU_CRITICAL_ENTER();
 419              	 .loc 1 555 0
 420 0022 FFF7FEFF 	 bl CPU_SR_Save
 421 0026 031C     	 mov r3,r0
 422 0028 FB60     	 str r3,[r7,#12]
 556:../Dave/Generated/UCPROBE/probe_com.c ****     if (ProbeCom_TerminalExecuting == DEF_NO) {                 /* Chk if cmd exec'ing.            
 423              	 .loc 1 556 0
 424 002a 184B     	 ldr r3,.L21
 425 002c 1B78     	 ldrb r3,[r3]
 426 002e 002B     	 cmp r3,#0
 427 0030 05D1     	 bne .L19
 557:../Dave/Generated/UCPROBE/probe_com.c ****         CPU_CRITICAL_EXIT();
 428              	 .loc 1 557 0
 429 0032 FB68     	 ldr r3,[r7,#12]
 430 0034 181C     	 mov r0,r3
 431 0036 FFF7FEFF 	 bl CPU_SR_Restore
 558:../Dave/Generated/UCPROBE/probe_com.c ****         return ((CPU_SIZE_T)0);
 432              	 .loc 1 558 0
 433 003a 0023     	 mov r3,#0
 434 003c 22E0     	 b .L17
 435              	.L19:
 559:../Dave/Generated/UCPROBE/probe_com.c ****     }
 560:../Dave/Generated/UCPROBE/probe_com.c **** 
 561:../Dave/Generated/UCPROBE/probe_com.c ****     if (ProbeCom_TerminalOutBufPtr != (CPU_INT08U *)0) {        /* Chk if out in progress.         
 436              	 .loc 1 561 0
 437 003e 144B     	 ldr r3,.L21+4
 438 0040 1B68     	 ldr r3,[r3]
 439 0042 002B     	 cmp r3,#0
 440 0044 05D0     	 beq .L20
 562:../Dave/Generated/UCPROBE/probe_com.c ****         CPU_CRITICAL_EXIT();
 441              	 .loc 1 562 0
 442 0046 FB68     	 ldr r3,[r7,#12]
 443 0048 181C     	 mov r0,r3
 444 004a FFF7FEFF 	 bl CPU_SR_Restore
 563:../Dave/Generated/UCPROBE/probe_com.c ****         return ((CPU_SIZE_T)0);
 445              	 .loc 1 563 0
 446 004e 0023     	 mov r3,#0
 447 0050 18E0     	 b .L17
 448              	.L20:
 564:../Dave/Generated/UCPROBE/probe_com.c ****     }
 565:../Dave/Generated/UCPROBE/probe_com.c **** 
 566:../Dave/Generated/UCPROBE/probe_com.c ****     ProbeCom_TerminalOutBufPtr = (CPU_INT08U *)psrc;            /* Schedule output.                
 449              	 .loc 1 566 0
 450 0052 0F4B     	 ldr r3,.L21+4
 451 0054 7A68     	 ldr r2,[r7,#4]
 452 0056 1A60     	 str r2,[r3]
 567:../Dave/Generated/UCPROBE/probe_com.c ****     ProbeCom_TerminalOutBufIx  = (CPU_SIZE_T  )0;
 453              	 .loc 1 567 0
 454 0058 0E4B     	 ldr r3,.L21+8
 455 005a 0022     	 mov r2,#0
 456 005c 1A60     	 str r2,[r3]
 568:../Dave/Generated/UCPROBE/probe_com.c ****     ProbeCom_TerminalOutBufLen = (CPU_SIZE_T  )len;
 457              	 .loc 1 568 0
 458 005e 0E4B     	 ldr r3,.L21+12
 459 0060 3A68     	 ldr r2,[r7]
 460 0062 1A60     	 str r2,[r3]
 569:../Dave/Generated/UCPROBE/probe_com.c **** 
 570:../Dave/Generated/UCPROBE/probe_com.c ****     ProbeCom_OS_TerminalOutWait();                              /* Wait for output completion.     
 461              	 .loc 1 570 0
 462 0064 FFF7FEFF 	 bl ProbeCom_OS_TerminalOutWait
 571:../Dave/Generated/UCPROBE/probe_com.c **** 
 572:../Dave/Generated/UCPROBE/probe_com.c ****     ProbeCom_TerminalOutBufPtr = (CPU_INT08U *)0;
 463              	 .loc 1 572 0
 464 0068 094B     	 ldr r3,.L21+4
 465 006a 0022     	 mov r2,#0
 466 006c 1A60     	 str r2,[r3]
 573:../Dave/Generated/UCPROBE/probe_com.c ****     ProbeCom_TerminalOutBufIx  = (CPU_SIZE_T  )0;
 467              	 .loc 1 573 0
 468 006e 094B     	 ldr r3,.L21+8
 469 0070 0022     	 mov r2,#0
 470 0072 1A60     	 str r2,[r3]
 574:../Dave/Generated/UCPROBE/probe_com.c ****     ProbeCom_TerminalOutBufLen = (CPU_SIZE_T  )0;
 471              	 .loc 1 574 0
 472 0074 084B     	 ldr r3,.L21+12
 473 0076 0022     	 mov r2,#0
 474 0078 1A60     	 str r2,[r3]
 575:../Dave/Generated/UCPROBE/probe_com.c ****     CPU_CRITICAL_EXIT();
 475              	 .loc 1 575 0
 476 007a FB68     	 ldr r3,[r7,#12]
 477 007c 181C     	 mov r0,r3
 478 007e FFF7FEFF 	 bl CPU_SR_Restore
 576:../Dave/Generated/UCPROBE/probe_com.c **** 
 577:../Dave/Generated/UCPROBE/probe_com.c **** 
 578:../Dave/Generated/UCPROBE/probe_com.c **** 
 579:../Dave/Generated/UCPROBE/probe_com.c ****                                                                 /* ----------------------- RTN ----
 580:../Dave/Generated/UCPROBE/probe_com.c ****     return (len);
 479              	 .loc 1 580 0
 480 0082 3B68     	 ldr r3,[r7]
 481              	.L17:
 581:../Dave/Generated/UCPROBE/probe_com.c **** }
 482              	 .loc 1 581 0
 483 0084 181C     	 mov r0,r3
 484 0086 BD46     	 mov sp,r7
 485 0088 04B0     	 add sp,sp,#16
 486              	 
 487 008a 80BD     	 pop {r7,pc}
 488              	.L22:
 489              	 .align 2
 490              	.L21:
 491 008c 00000000 	 .word ProbeCom_TerminalExecuting
 492 0090 00000000 	 .word ProbeCom_TerminalOutBufPtr
 493 0094 00000000 	 .word ProbeCom_TerminalOutBufIx
 494 0098 00000000 	 .word ProbeCom_TerminalOutBufLen
 495              	 .cfi_endproc
 496              	.LFE3:
 498              	 .section .text.ProbeCom_TerminalExecComplete,"ax",%progbits
 499              	 .align 2
 500              	 .global ProbeCom_TerminalExecComplete
 501              	 .code 16
 502              	 .thumb_func
 504              	ProbeCom_TerminalExecComplete:
 505              	.LFB4:
 582:../Dave/Generated/UCPROBE/probe_com.c **** #endif
 583:../Dave/Generated/UCPROBE/probe_com.c **** 
 584:../Dave/Generated/UCPROBE/probe_com.c **** 
 585:../Dave/Generated/UCPROBE/probe_com.c **** /*
 586:../Dave/Generated/UCPROBE/probe_com.c **** ***************************************************************************************************
 587:../Dave/Generated/UCPROBE/probe_com.c **** *                                   ProbeCom_TerminalExecComplete()
 588:../Dave/Generated/UCPROBE/probe_com.c **** *
 589:../Dave/Generated/UCPROBE/probe_com.c **** * Description : Signal completion of command execution.
 590:../Dave/Generated/UCPROBE/probe_com.c **** *
 591:../Dave/Generated/UCPROBE/probe_com.c **** * Argument(s) : none.
 592:../Dave/Generated/UCPROBE/probe_com.c **** *
 593:../Dave/Generated/UCPROBE/probe_com.c **** * Return(s)   : The number of bytes in the data segment of the packet to transmit in response.
 594:../Dave/Generated/UCPROBE/probe_com.c **** *
 595:../Dave/Generated/UCPROBE/probe_com.c **** * Caller(s)   : Application.
 596:../Dave/Generated/UCPROBE/probe_com.c **** *
 597:../Dave/Generated/UCPROBE/probe_com.c **** * Note(s)     : none.
 598:../Dave/Generated/UCPROBE/probe_com.c **** ***************************************************************************************************
 599:../Dave/Generated/UCPROBE/probe_com.c **** */
 600:../Dave/Generated/UCPROBE/probe_com.c **** 
 601:../Dave/Generated/UCPROBE/probe_com.c **** #if (PROBE_COM_CFG_TERMINAL_REQ_EN == DEF_ENABLED)
 602:../Dave/Generated/UCPROBE/probe_com.c **** void  ProbeCom_TerminalExecComplete (void)
 603:../Dave/Generated/UCPROBE/probe_com.c **** {
 506              	 .loc 1 603 0
 507              	 .cfi_startproc
 508 0000 80B5     	 push {r7,lr}
 509              	.LCFI12:
 510              	 .cfi_def_cfa_offset 8
 511              	 .cfi_offset 7,-8
 512              	 .cfi_offset 14,-4
 513 0002 82B0     	 sub sp,sp,#8
 514              	.LCFI13:
 515              	 .cfi_def_cfa_offset 16
 516 0004 00AF     	 add r7,sp,#0
 517              	.LCFI14:
 518              	 .cfi_def_cfa_register 7
 604:../Dave/Generated/UCPROBE/probe_com.c ****     CPU_BOOLEAN  executing;
 605:../Dave/Generated/UCPROBE/probe_com.c ****     CPU_SR_ALLOC();
 519              	 .loc 1 605 0
 520 0006 0023     	 mov r3,#0
 521 0008 7B60     	 str r3,[r7,#4]
 606:../Dave/Generated/UCPROBE/probe_com.c **** 
 607:../Dave/Generated/UCPROBE/probe_com.c **** 
 608:../Dave/Generated/UCPROBE/probe_com.c ****     CPU_CRITICAL_ENTER();
 522              	 .loc 1 608 0
 523 000a FFF7FEFF 	 bl CPU_SR_Save
 524 000e 031C     	 mov r3,r0
 525 0010 7B60     	 str r3,[r7,#4]
 609:../Dave/Generated/UCPROBE/probe_com.c ****     executing = ProbeCom_TerminalExecuting;
 526              	 .loc 1 609 0
 527 0012 FB1C     	 add r3,r7,#3
 528 0014 084A     	 ldr r2,.L25
 529 0016 1278     	 ldrb r2,[r2]
 530 0018 1A70     	 strb r2,[r3]
 610:../Dave/Generated/UCPROBE/probe_com.c ****     if (executing == DEF_YES) {
 531              	 .loc 1 610 0
 532 001a FB1C     	 add r3,r7,#3
 533 001c 1B78     	 ldrb r3,[r3]
 534 001e 012B     	 cmp r3,#1
 535 0020 02D1     	 bne .L24
 611:../Dave/Generated/UCPROBE/probe_com.c ****         ProbeCom_TerminalExecuting = DEF_NO;
 536              	 .loc 1 611 0
 537 0022 054B     	 ldr r3,.L25
 538 0024 0022     	 mov r2,#0
 539 0026 1A70     	 strb r2,[r3]
 540              	.L24:
 612:../Dave/Generated/UCPROBE/probe_com.c ****     }
 613:../Dave/Generated/UCPROBE/probe_com.c ****     CPU_CRITICAL_EXIT();
 541              	 .loc 1 613 0
 542 0028 7B68     	 ldr r3,[r7,#4]
 543 002a 181C     	 mov r0,r3
 544 002c FFF7FEFF 	 bl CPU_SR_Restore
 614:../Dave/Generated/UCPROBE/probe_com.c **** }
 545              	 .loc 1 614 0
 546 0030 BD46     	 mov sp,r7
 547 0032 02B0     	 add sp,sp,#8
 548              	 
 549 0034 80BD     	 pop {r7,pc}
 550              	.L26:
 551 0036 C046     	 .align 2
 552              	.L25:
 553 0038 00000000 	 .word ProbeCom_TerminalExecuting
 554              	 .cfi_endproc
 555              	.LFE4:
 557              	 .section .text.ProbeCom_TerminalExecSet,"ax",%progbits
 558              	 .align 2
 559              	 .global ProbeCom_TerminalExecSet
 560              	 .code 16
 561              	 .thumb_func
 563              	ProbeCom_TerminalExecSet:
 564              	.LFB5:
 615:../Dave/Generated/UCPROBE/probe_com.c **** #endif
 616:../Dave/Generated/UCPROBE/probe_com.c **** 
 617:../Dave/Generated/UCPROBE/probe_com.c **** 
 618:../Dave/Generated/UCPROBE/probe_com.c **** /*
 619:../Dave/Generated/UCPROBE/probe_com.c **** ***************************************************************************************************
 620:../Dave/Generated/UCPROBE/probe_com.c **** *                                     ProbeCom_TerminalExecSet()
 621:../Dave/Generated/UCPROBE/probe_com.c **** *
 622:../Dave/Generated/UCPROBE/probe_com.c **** * Description : Set the handler that will be invoked to process a terminal command.
 623:../Dave/Generated/UCPROBE/probe_com.c **** *
 624:../Dave/Generated/UCPROBE/probe_com.c **** * Argument(s) : handler         The handler that will be invoked.
 625:../Dave/Generated/UCPROBE/probe_com.c **** *
 626:../Dave/Generated/UCPROBE/probe_com.c **** * Return(s)   : none.
 627:../Dave/Generated/UCPROBE/probe_com.c **** *
 628:../Dave/Generated/UCPROBE/probe_com.c **** * Caller(s)   : Application.
 629:../Dave/Generated/UCPROBE/probe_com.c **** *
 630:../Dave/Generated/UCPROBE/probe_com.c **** * Note(s)     : (1) The handler should be a function with the following prototype:
 631:../Dave/Generated/UCPROBE/probe_com.c **** *
 632:../Dave/Generated/UCPROBE/probe_com.c **** *                       void  App_TerminalExecFnct (CPU_CHAR    *pstr,
 633:../Dave/Generated/UCPROBE/probe_com.c **** *                                                   CPU_SIZE_T   len);
 634:../Dave/Generated/UCPROBE/probe_com.c **** *
 635:../Dave/Generated/UCPROBE/probe_com.c **** *                   where 'pstr' is a pointer to the command string, and 'len' is the length of the
 636:../Dave/Generated/UCPROBE/probe_com.c **** *                   command string (in characters) excluding the final NULL byte.  The command stri
 637:../Dave/Generated/UCPROBE/probe_com.c **** *                   will NOT include a terminating new line or line feed.
 638:../Dave/Generated/UCPROBE/probe_com.c **** ***************************************************************************************************
 639:../Dave/Generated/UCPROBE/probe_com.c **** */
 640:../Dave/Generated/UCPROBE/probe_com.c **** 
 641:../Dave/Generated/UCPROBE/probe_com.c **** #if (PROBE_COM_CFG_TERMINAL_REQ_EN == DEF_ENABLED)
 642:../Dave/Generated/UCPROBE/probe_com.c **** void  ProbeCom_TerminalExecSet (PROBE_COM_TERMINAL_EXEC_FNCT  handler)
 643:../Dave/Generated/UCPROBE/probe_com.c **** {
 565              	 .loc 1 643 0
 566              	 .cfi_startproc
 567 0000 80B5     	 push {r7,lr}
 568              	.LCFI15:
 569              	 .cfi_def_cfa_offset 8
 570              	 .cfi_offset 7,-8
 571              	 .cfi_offset 14,-4
 572 0002 84B0     	 sub sp,sp,#16
 573              	.LCFI16:
 574              	 .cfi_def_cfa_offset 24
 575 0004 00AF     	 add r7,sp,#0
 576              	.LCFI17:
 577              	 .cfi_def_cfa_register 7
 578 0006 7860     	 str r0,[r7,#4]
 644:../Dave/Generated/UCPROBE/probe_com.c ****     CPU_SR_ALLOC();
 579              	 .loc 1 644 0
 580 0008 0023     	 mov r3,#0
 581 000a FB60     	 str r3,[r7,#12]
 645:../Dave/Generated/UCPROBE/probe_com.c **** 
 646:../Dave/Generated/UCPROBE/probe_com.c **** 
 647:../Dave/Generated/UCPROBE/probe_com.c ****     CPU_CRITICAL_ENTER();
 582              	 .loc 1 647 0
 583 000c FFF7FEFF 	 bl CPU_SR_Save
 584 0010 031C     	 mov r3,r0
 585 0012 FB60     	 str r3,[r7,#12]
 648:../Dave/Generated/UCPROBE/probe_com.c ****     ProbeCom_TerminalExecHandler = handler;
 586              	 .loc 1 648 0
 587 0014 044B     	 ldr r3,.L28
 588 0016 7A68     	 ldr r2,[r7,#4]
 589 0018 1A60     	 str r2,[r3]
 649:../Dave/Generated/UCPROBE/probe_com.c ****     CPU_CRITICAL_EXIT();
 590              	 .loc 1 649 0
 591 001a FB68     	 ldr r3,[r7,#12]
 592 001c 181C     	 mov r0,r3
 593 001e FFF7FEFF 	 bl CPU_SR_Restore
 650:../Dave/Generated/UCPROBE/probe_com.c **** }
 594              	 .loc 1 650 0
 595 0022 BD46     	 mov sp,r7
 596 0024 04B0     	 add sp,sp,#16
 597              	 
 598 0026 80BD     	 pop {r7,pc}
 599              	.L29:
 600              	 .align 2
 601              	.L28:
 602 0028 00000000 	 .word ProbeCom_TerminalExecHandler
 603              	 .cfi_endproc
 604              	.LFE5:
 606              	 .section .text.ProbeCom_TerminalInSet,"ax",%progbits
 607              	 .align 2
 608              	 .global ProbeCom_TerminalInSet
 609              	 .code 16
 610              	 .thumb_func
 612              	ProbeCom_TerminalInSet:
 613              	.LFB6:
 651:../Dave/Generated/UCPROBE/probe_com.c **** #endif
 652:../Dave/Generated/UCPROBE/probe_com.c **** 
 653:../Dave/Generated/UCPROBE/probe_com.c **** 
 654:../Dave/Generated/UCPROBE/probe_com.c **** /*
 655:../Dave/Generated/UCPROBE/probe_com.c **** ***************************************************************************************************
 656:../Dave/Generated/UCPROBE/probe_com.c **** *                                      ProbeCom_TerminalInSet()
 657:../Dave/Generated/UCPROBE/probe_com.c **** *
 658:../Dave/Generated/UCPROBE/probe_com.c **** * Description : Set the handler that will be invoked to process terminal input.
 659:../Dave/Generated/UCPROBE/probe_com.c **** *
 660:../Dave/Generated/UCPROBE/probe_com.c **** * Argument(s) : handler         The handler that will be invoked.
 661:../Dave/Generated/UCPROBE/probe_com.c **** *
 662:../Dave/Generated/UCPROBE/probe_com.c **** * Return(s)   : none.
 663:../Dave/Generated/UCPROBE/probe_com.c **** *
 664:../Dave/Generated/UCPROBE/probe_com.c **** * Caller(s)   : Application.
 665:../Dave/Generated/UCPROBE/probe_com.c **** *
 666:../Dave/Generated/UCPROBE/probe_com.c **** * Note(s)     : (1) The handler should be a function with the following prototype:
 667:../Dave/Generated/UCPROBE/probe_com.c **** *
 668:../Dave/Generated/UCPROBE/probe_com.c **** *                       void  App_TerminalInFnct (CPU_CHAR    *pstr,
 669:../Dave/Generated/UCPROBE/probe_com.c **** *                                                 CPU_SIZE_T   len);
 670:../Dave/Generated/UCPROBE/probe_com.c **** *
 671:../Dave/Generated/UCPROBE/probe_com.c **** *                   where 'pstr' is a pointer to the input string, and 'len' is the length of the i
 672:../Dave/Generated/UCPROBE/probe_com.c **** *                   string (in characters) excluding the final NULL byte.  The input string will NO
 673:../Dave/Generated/UCPROBE/probe_com.c **** *                   include a terminating new line or line feed.
 674:../Dave/Generated/UCPROBE/probe_com.c **** ***************************************************************************************************
 675:../Dave/Generated/UCPROBE/probe_com.c **** */
 676:../Dave/Generated/UCPROBE/probe_com.c **** 
 677:../Dave/Generated/UCPROBE/probe_com.c **** #if (PROBE_COM_CFG_TERMINAL_REQ_EN == DEF_ENABLED)
 678:../Dave/Generated/UCPROBE/probe_com.c **** void  ProbeCom_TerminalInSet (PROBE_COM_TERMINAL_IN_FNCT  handler)
 679:../Dave/Generated/UCPROBE/probe_com.c **** {
 614              	 .loc 1 679 0
 615              	 .cfi_startproc
 616 0000 80B5     	 push {r7,lr}
 617              	.LCFI18:
 618              	 .cfi_def_cfa_offset 8
 619              	 .cfi_offset 7,-8
 620              	 .cfi_offset 14,-4
 621 0002 84B0     	 sub sp,sp,#16
 622              	.LCFI19:
 623              	 .cfi_def_cfa_offset 24
 624 0004 00AF     	 add r7,sp,#0
 625              	.LCFI20:
 626              	 .cfi_def_cfa_register 7
 627 0006 7860     	 str r0,[r7,#4]
 680:../Dave/Generated/UCPROBE/probe_com.c **** #if (CPU_CFG_CRITICAL_METHOD == CPU_CRITICAL_METHOD_STATUS_LOCAL)
 681:../Dave/Generated/UCPROBE/probe_com.c ****     CPU_SR  cpu_sr;
 682:../Dave/Generated/UCPROBE/probe_com.c **** #endif
 683:../Dave/Generated/UCPROBE/probe_com.c **** 
 684:../Dave/Generated/UCPROBE/probe_com.c **** 
 685:../Dave/Generated/UCPROBE/probe_com.c ****     CPU_CRITICAL_ENTER();
 628              	 .loc 1 685 0
 629 0008 FFF7FEFF 	 bl CPU_SR_Save
 630 000c 031C     	 mov r3,r0
 631 000e FB60     	 str r3,[r7,#12]
 686:../Dave/Generated/UCPROBE/probe_com.c ****     ProbeCom_TerminalInHandler = handler;
 632              	 .loc 1 686 0
 633 0010 044B     	 ldr r3,.L31
 634 0012 7A68     	 ldr r2,[r7,#4]
 635 0014 1A60     	 str r2,[r3]
 687:../Dave/Generated/UCPROBE/probe_com.c ****     CPU_CRITICAL_EXIT();
 636              	 .loc 1 687 0
 637 0016 FB68     	 ldr r3,[r7,#12]
 638 0018 181C     	 mov r0,r3
 639 001a FFF7FEFF 	 bl CPU_SR_Restore
 688:../Dave/Generated/UCPROBE/probe_com.c **** }
 640              	 .loc 1 688 0
 641 001e BD46     	 mov sp,r7
 642 0020 04B0     	 add sp,sp,#16
 643              	 
 644 0022 80BD     	 pop {r7,pc}
 645              	.L32:
 646              	 .align 2
 647              	.L31:
 648 0024 00000000 	 .word ProbeCom_TerminalInHandler
 649              	 .cfi_endproc
 650              	.LFE6:
 652              	 .section .text.ProbeCom_ParseRxPkt,"ax",%progbits
 653              	 .align 2
 654              	 .global ProbeCom_ParseRxPkt
 655              	 .code 16
 656              	 .thumb_func
 658              	ProbeCom_ParseRxPkt:
 659              	.LFB7:
 689:../Dave/Generated/UCPROBE/probe_com.c **** #endif
 690:../Dave/Generated/UCPROBE/probe_com.c **** 
 691:../Dave/Generated/UCPROBE/probe_com.c **** 
 692:../Dave/Generated/UCPROBE/probe_com.c **** /*
 693:../Dave/Generated/UCPROBE/probe_com.c **** ***************************************************************************************************
 694:../Dave/Generated/UCPROBE/probe_com.c **** *                                        ProbeCom_ParseRxPkt()
 695:../Dave/Generated/UCPROBE/probe_com.c **** *
 696:../Dave/Generated/UCPROBE/probe_com.c **** * Description : Parse a packet & formulate a response.
 697:../Dave/Generated/UCPROBE/probe_com.c **** *
 698:../Dave/Generated/UCPROBE/probe_com.c **** * Argument(s) : prx_pkt         Pointer to the receive  packet buffer
 699:../Dave/Generated/UCPROBE/probe_com.c **** *
 700:../Dave/Generated/UCPROBE/probe_com.c **** *               ptx_pkt         Pointer to the transmit packet buffer
 701:../Dave/Generated/UCPROBE/probe_com.c **** *
 702:../Dave/Generated/UCPROBE/probe_com.c **** *               rx_pkt_size     Size of the received packet
 703:../Dave/Generated/UCPROBE/probe_com.c **** *
 704:../Dave/Generated/UCPROBE/probe_com.c **** *               tx_pkt_size     Size of the transmit packet buffer
 705:../Dave/Generated/UCPROBE/probe_com.c **** *
 706:../Dave/Generated/UCPROBE/probe_com.c **** * Return(s)   : The number of bytes in the data segment of the packet to transmit in response.
 707:../Dave/Generated/UCPROBE/probe_com.c **** *
 708:../Dave/Generated/UCPROBE/probe_com.c **** * Caller(s)   : Tasks/receive handlers in communications-specific drivers, (e.g., probe_rs232,
 709:../Dave/Generated/UCPROBE/probe_com.c **** *               probe_usb, probe_tcpip, etc.).
 710:../Dave/Generated/UCPROBE/probe_com.c **** *
 711:../Dave/Generated/UCPROBE/probe_com.c **** * Note(s)     : none.
 712:../Dave/Generated/UCPROBE/probe_com.c **** ***************************************************************************************************
 713:../Dave/Generated/UCPROBE/probe_com.c **** */
 714:../Dave/Generated/UCPROBE/probe_com.c **** 
 715:../Dave/Generated/UCPROBE/probe_com.c **** CPU_SIZE_T  ProbeCom_ParseRxPkt (void        *prx_pkt,
 716:../Dave/Generated/UCPROBE/probe_com.c ****                                  void        *ptx_pkt,
 717:../Dave/Generated/UCPROBE/probe_com.c ****                                  CPU_SIZE_T   rx_pkt_size,
 718:../Dave/Generated/UCPROBE/probe_com.c ****                                  CPU_SIZE_T   tx_buf_size)
 719:../Dave/Generated/UCPROBE/probe_com.c **** {
 660              	 .loc 1 719 0
 661              	 .cfi_startproc
 662 0000 80B5     	 push {r7,lr}
 663              	.LCFI21:
 664              	 .cfi_def_cfa_offset 8
 665              	 .cfi_offset 7,-8
 666              	 .cfi_offset 14,-4
 667 0002 88B0     	 sub sp,sp,#32
 668              	.LCFI22:
 669              	 .cfi_def_cfa_offset 40
 670 0004 00AF     	 add r7,sp,#0
 671              	.LCFI23:
 672              	 .cfi_def_cfa_register 7
 673 0006 F860     	 str r0,[r7,#12]
 674 0008 B960     	 str r1,[r7,#8]
 675 000a 7A60     	 str r2,[r7,#4]
 676 000c 3B60     	 str r3,[r7]
 720:../Dave/Generated/UCPROBE/probe_com.c ****     CPU_SIZE_T   tx_buf_wr;
 721:../Dave/Generated/UCPROBE/probe_com.c ****     CPU_INT16U   format;
 722:../Dave/Generated/UCPROBE/probe_com.c ****     CPU_INT08U  *prx_pkt_08;
 723:../Dave/Generated/UCPROBE/probe_com.c ****     CPU_INT08U  *ptx_pkt_08;
 724:../Dave/Generated/UCPROBE/probe_com.c **** 
 725:../Dave/Generated/UCPROBE/probe_com.c **** 
 726:../Dave/Generated/UCPROBE/probe_com.c ****     if (rx_pkt_size < 2u) {
 677              	 .loc 1 726 0
 678 000e 7B68     	 ldr r3,[r7,#4]
 679 0010 012B     	 cmp r3,#1
 680 0012 01D8     	 bhi .L34
 727:../Dave/Generated/UCPROBE/probe_com.c ****         return (0);
 681              	 .loc 1 727 0
 682 0014 0023     	 mov r3,#0
 683 0016 8AE0     	 b .L35
 684              	.L34:
 728:../Dave/Generated/UCPROBE/probe_com.c ****     }
 729:../Dave/Generated/UCPROBE/probe_com.c **** 
 730:../Dave/Generated/UCPROBE/probe_com.c ****     prx_pkt_08  = (CPU_INT08U *)prx_pkt;
 685              	 .loc 1 730 0
 686 0018 FB68     	 ldr r3,[r7,#12]
 687 001a BB61     	 str r3,[r7,#24]
 731:../Dave/Generated/UCPROBE/probe_com.c ****     ptx_pkt_08  = (CPU_INT08U *)ptx_pkt;
 688              	 .loc 1 731 0
 689 001c BB68     	 ldr r3,[r7,#8]
 690 001e 7B61     	 str r3,[r7,#20]
 732:../Dave/Generated/UCPROBE/probe_com.c ****     format      = (prx_pkt_08[1] << 8) + prx_pkt_08[0];
 691              	 .loc 1 732 0
 692 0020 BB69     	 ldr r3,[r7,#24]
 693 0022 0133     	 add r3,r3,#1
 694 0024 1B78     	 ldrb r3,[r3]
 695 0026 9BB2     	 uxth r3,r3
 696 0028 1B02     	 lsl r3,r3,#8
 697 002a 99B2     	 uxth r1,r3
 698 002c BB69     	 ldr r3,[r7,#24]
 699 002e 1B78     	 ldrb r3,[r3]
 700 0030 9AB2     	 uxth r2,r3
 701 0032 1223     	 mov r3,#18
 702 0034 FB18     	 add r3,r7,r3
 703 0036 8A18     	 add r2,r1,r2
 704 0038 1A80     	 strh r2,[r3]
 733:../Dave/Generated/UCPROBE/probe_com.c ****     prx_pkt_08 += 2u;
 705              	 .loc 1 733 0
 706 003a BB69     	 ldr r3,[r7,#24]
 707 003c 0233     	 add r3,r3,#2
 708 003e BB61     	 str r3,[r7,#24]
 734:../Dave/Generated/UCPROBE/probe_com.c **** 
 735:../Dave/Generated/UCPROBE/probe_com.c **** #if (PROBE_COM_CFG_STAT_EN == DEF_ENABLED)
 736:../Dave/Generated/UCPROBE/probe_com.c ****     ProbeCom_RxPktCtr++;
 709              	 .loc 1 736 0
 710 0040 3D4B     	 ldr r3,.L49
 711 0042 1B68     	 ldr r3,[r3]
 712 0044 5A1C     	 add r2,r3,#1
 713 0046 3C4B     	 ldr r3,.L49
 714 0048 1A60     	 str r2,[r3]
 737:../Dave/Generated/UCPROBE/probe_com.c ****     ProbeCom_TxPktCtr++;
 715              	 .loc 1 737 0
 716 004a 3C4B     	 ldr r3,.L49+4
 717 004c 1B68     	 ldr r3,[r3]
 718 004e 5A1C     	 add r2,r3,#1
 719 0050 3A4B     	 ldr r3,.L49+4
 720 0052 1A60     	 str r2,[r3]
 738:../Dave/Generated/UCPROBE/probe_com.c **** #endif
 739:../Dave/Generated/UCPROBE/probe_com.c **** 
 740:../Dave/Generated/UCPROBE/probe_com.c ****     switch (format) {
 721              	 .loc 1 740 0
 722 0054 1223     	 mov r3,#18
 723 0056 FB18     	 add r3,r7,r3
 724 0058 1B88     	 ldrh r3,[r3]
 725 005a 0D2B     	 cmp r3,#13
 726 005c 5ED8     	 bhi .L36
 727 005e 9A00     	 lsl r2,r3,#2
 728 0060 374B     	 ldr r3,.L49+8
 729 0062 D318     	 add r3,r2,r3
 730 0064 1B68     	 ldr r3,[r3]
 731 0066 9F46     	 mov pc,r3
 732              	 .section .rodata.ProbeCom_ParseRxPkt,"a",%progbits
 733              	 .align 2
 734              	.L38:
 735 0000 1C010000 	 .word .L36
 736 0004 68000000 	 .word .L37
 737 0008 7A000000 	 .word .L39
 738 000c 9E000000 	 .word .L40
 739 0010 1C010000 	 .word .L36
 740 0014 1C010000 	 .word .L36
 741 0018 1C010000 	 .word .L36
 742 001c 8C000000 	 .word .L41
 743 0020 B0000000 	 .word .L42
 744 0024 D4000000 	 .word .L43
 745 0028 C2000000 	 .word .L44
 746 002c E6000000 	 .word .L45
 747 0030 0A010000 	 .word .L46
 748 0034 F8000000 	 .word .L47
 749              	 .section .text.ProbeCom_ParseRxPkt
 750              	.L37:
 741:../Dave/Generated/UCPROBE/probe_com.c ****         case PROBE_COM_FMT_RX_QUERY:
 742:../Dave/Generated/UCPROBE/probe_com.c ****              tx_buf_wr = ProbeCom_ReqQuery(       prx_pkt_08, ptx_pkt_08, rx_pkt_size, tx_buf_size)
 751              	 .loc 1 742 0
 752 0068 B869     	 ldr r0,[r7,#24]
 753 006a 7969     	 ldr r1,[r7,#20]
 754 006c 7A68     	 ldr r2,[r7,#4]
 755 006e 3B68     	 ldr r3,[r7]
 756 0070 FFF7FEFF 	 bl ProbeCom_ReqQuery
 757 0074 031C     	 mov r3,r0
 758 0076 FB61     	 str r3,[r7,#28]
 743:../Dave/Generated/UCPROBE/probe_com.c ****              break;
 759              	 .loc 1 743 0
 760 0078 58E0     	 b .L48
 761              	.L39:
 744:../Dave/Generated/UCPROBE/probe_com.c **** 
 745:../Dave/Generated/UCPROBE/probe_com.c ****         case PROBE_COM_FMT_RX_RD:
 746:../Dave/Generated/UCPROBE/probe_com.c ****              tx_buf_wr = ProbeCom_ReqRd(          prx_pkt_08, ptx_pkt_08, rx_pkt_size, tx_buf_size)
 762              	 .loc 1 746 0
 763 007a B869     	 ldr r0,[r7,#24]
 764 007c 7969     	 ldr r1,[r7,#20]
 765 007e 7A68     	 ldr r2,[r7,#4]
 766 0080 3B68     	 ldr r3,[r7]
 767 0082 FFF7FEFF 	 bl ProbeCom_ReqRd
 768 0086 031C     	 mov r3,r0
 769 0088 FB61     	 str r3,[r7,#28]
 747:../Dave/Generated/UCPROBE/probe_com.c ****              break;
 770              	 .loc 1 747 0
 771 008a 4FE0     	 b .L48
 772              	.L41:
 748:../Dave/Generated/UCPROBE/probe_com.c **** 
 749:../Dave/Generated/UCPROBE/probe_com.c ****         case PROBE_COM_FMT_RX_RD_MULTI:
 750:../Dave/Generated/UCPROBE/probe_com.c ****              tx_buf_wr = ProbeCom_ReqRdMulti(     prx_pkt_08, ptx_pkt_08, rx_pkt_size, tx_buf_size)
 773              	 .loc 1 750 0
 774 008c B869     	 ldr r0,[r7,#24]
 775 008e 7969     	 ldr r1,[r7,#20]
 776 0090 7A68     	 ldr r2,[r7,#4]
 777 0092 3B68     	 ldr r3,[r7]
 778 0094 FFF7FEFF 	 bl ProbeCom_ReqRdMulti
 779 0098 031C     	 mov r3,r0
 780 009a FB61     	 str r3,[r7,#28]
 751:../Dave/Generated/UCPROBE/probe_com.c ****              break;
 781              	 .loc 1 751 0
 782 009c 46E0     	 b .L48
 783              	.L40:
 752:../Dave/Generated/UCPROBE/probe_com.c **** 
 753:../Dave/Generated/UCPROBE/probe_com.c **** #if (PROBE_COM_CFG_WR_REQ_EN == DEF_ENABLED)
 754:../Dave/Generated/UCPROBE/probe_com.c ****         case PROBE_COM_FMT_RX_WR:
 755:../Dave/Generated/UCPROBE/probe_com.c ****              tx_buf_wr = ProbeCom_ReqWr(          prx_pkt_08, ptx_pkt_08, rx_pkt_size, tx_buf_size)
 784              	 .loc 1 755 0
 785 009e B869     	 ldr r0,[r7,#24]
 786 00a0 7969     	 ldr r1,[r7,#20]
 787 00a2 7A68     	 ldr r2,[r7,#4]
 788 00a4 3B68     	 ldr r3,[r7]
 789 00a6 FFF7FEFF 	 bl ProbeCom_ReqWr
 790 00aa 031C     	 mov r3,r0
 791 00ac FB61     	 str r3,[r7,#28]
 756:../Dave/Generated/UCPROBE/probe_com.c ****              break;
 792              	 .loc 1 756 0
 793 00ae 3DE0     	 b .L48
 794              	.L42:
 757:../Dave/Generated/UCPROBE/probe_com.c **** 
 758:../Dave/Generated/UCPROBE/probe_com.c ****         case PROBE_COM_FMT_RX_WR_MULTI:
 759:../Dave/Generated/UCPROBE/probe_com.c ****              tx_buf_wr = ProbeCom_ReqWrMulti(     prx_pkt_08, ptx_pkt_08, rx_pkt_size, tx_buf_size)
 795              	 .loc 1 759 0
 796 00b0 B869     	 ldr r0,[r7,#24]
 797 00b2 7969     	 ldr r1,[r7,#20]
 798 00b4 7A68     	 ldr r2,[r7,#4]
 799 00b6 3B68     	 ldr r3,[r7]
 800 00b8 FFF7FEFF 	 bl ProbeCom_ReqWrMulti
 801 00bc 031C     	 mov r3,r0
 802 00be FB61     	 str r3,[r7,#28]
 760:../Dave/Generated/UCPROBE/probe_com.c ****              break;
 803              	 .loc 1 760 0
 804 00c0 34E0     	 b .L48
 805              	.L44:
 761:../Dave/Generated/UCPROBE/probe_com.c **** #endif
 762:../Dave/Generated/UCPROBE/probe_com.c **** 
 763:../Dave/Generated/UCPROBE/probe_com.c **** #if (PROBE_COM_CFG_STR_REQ_EN == DEF_ENABLED)
 764:../Dave/Generated/UCPROBE/probe_com.c ****         case PROBE_COM_FMT_RX_STR_IN:
 765:../Dave/Generated/UCPROBE/probe_com.c ****              tx_buf_wr = ProbeCom_ReqStrIn(       prx_pkt_08, ptx_pkt_08, rx_pkt_size, tx_buf_size)
 806              	 .loc 1 765 0
 807 00c2 B869     	 ldr r0,[r7,#24]
 808 00c4 7969     	 ldr r1,[r7,#20]
 809 00c6 7A68     	 ldr r2,[r7,#4]
 810 00c8 3B68     	 ldr r3,[r7]
 811 00ca FFF7FEFF 	 bl ProbeCom_ReqStrIn
 812 00ce 031C     	 mov r3,r0
 813 00d0 FB61     	 str r3,[r7,#28]
 766:../Dave/Generated/UCPROBE/probe_com.c ****              break;
 814              	 .loc 1 766 0
 815 00d2 2BE0     	 b .L48
 816              	.L43:
 767:../Dave/Generated/UCPROBE/probe_com.c **** 
 768:../Dave/Generated/UCPROBE/probe_com.c ****         case PROBE_COM_FMT_RX_STR_OUT:
 769:../Dave/Generated/UCPROBE/probe_com.c ****              tx_buf_wr = ProbeCom_ReqStrOut(      prx_pkt_08, ptx_pkt_08, rx_pkt_size, tx_buf_size)
 817              	 .loc 1 769 0
 818 00d4 B869     	 ldr r0,[r7,#24]
 819 00d6 7969     	 ldr r1,[r7,#20]
 820 00d8 7A68     	 ldr r2,[r7,#4]
 821 00da 3B68     	 ldr r3,[r7]
 822 00dc FFF7FEFF 	 bl ProbeCom_ReqStrOut
 823 00e0 031C     	 mov r3,r0
 824 00e2 FB61     	 str r3,[r7,#28]
 770:../Dave/Generated/UCPROBE/probe_com.c ****              break;
 825              	 .loc 1 770 0
 826 00e4 22E0     	 b .L48
 827              	.L45:
 771:../Dave/Generated/UCPROBE/probe_com.c **** #endif
 772:../Dave/Generated/UCPROBE/probe_com.c **** 
 773:../Dave/Generated/UCPROBE/probe_com.c **** #if (PROBE_COM_CFG_TERMINAL_REQ_EN == DEF_ENABLED)
 774:../Dave/Generated/UCPROBE/probe_com.c ****         case PROBE_COM_FMT_RX_TERMINAL_EXEC:
 775:../Dave/Generated/UCPROBE/probe_com.c ****              tx_buf_wr = ProbeCom_ReqTerminalExec(prx_pkt_08, ptx_pkt_08, rx_pkt_size, tx_buf_size)
 828              	 .loc 1 775 0
 829 00e6 B869     	 ldr r0,[r7,#24]
 830 00e8 7969     	 ldr r1,[r7,#20]
 831 00ea 7A68     	 ldr r2,[r7,#4]
 832 00ec 3B68     	 ldr r3,[r7]
 833 00ee FFF7FEFF 	 bl ProbeCom_ReqTerminalExec
 834 00f2 031C     	 mov r3,r0
 835 00f4 FB61     	 str r3,[r7,#28]
 776:../Dave/Generated/UCPROBE/probe_com.c ****              break;
 836              	 .loc 1 776 0
 837 00f6 19E0     	 b .L48
 838              	.L47:
 777:../Dave/Generated/UCPROBE/probe_com.c **** 
 778:../Dave/Generated/UCPROBE/probe_com.c ****         case PROBE_COM_FMT_RX_TERMINAL_IN:
 779:../Dave/Generated/UCPROBE/probe_com.c ****              tx_buf_wr = ProbeCom_ReqTerminalIn(  prx_pkt_08, ptx_pkt_08, rx_pkt_size, tx_buf_size)
 839              	 .loc 1 779 0
 840 00f8 B869     	 ldr r0,[r7,#24]
 841 00fa 7969     	 ldr r1,[r7,#20]
 842 00fc 7A68     	 ldr r2,[r7,#4]
 843 00fe 3B68     	 ldr r3,[r7]
 844 0100 FFF7FEFF 	 bl ProbeCom_ReqTerminalIn
 845 0104 031C     	 mov r3,r0
 846 0106 FB61     	 str r3,[r7,#28]
 780:../Dave/Generated/UCPROBE/probe_com.c ****              break;
 847              	 .loc 1 780 0
 848 0108 10E0     	 b .L48
 849              	.L46:
 781:../Dave/Generated/UCPROBE/probe_com.c **** 
 782:../Dave/Generated/UCPROBE/probe_com.c ****         case PROBE_COM_FMT_RX_TERMINAL_OUT:
 783:../Dave/Generated/UCPROBE/probe_com.c ****              tx_buf_wr = ProbeCom_ReqTerminalOut( prx_pkt_08, ptx_pkt_08, rx_pkt_size, tx_buf_size)
 850              	 .loc 1 783 0
 851 010a B869     	 ldr r0,[r7,#24]
 852 010c 7969     	 ldr r1,[r7,#20]
 853 010e 7A68     	 ldr r2,[r7,#4]
 854 0110 3B68     	 ldr r3,[r7]
 855 0112 FFF7FEFF 	 bl ProbeCom_ReqTerminalOut
 856 0116 031C     	 mov r3,r0
 857 0118 FB61     	 str r3,[r7,#28]
 784:../Dave/Generated/UCPROBE/probe_com.c ****              break;
 858              	 .loc 1 784 0
 859 011a 07E0     	 b .L48
 860              	.L36:
 785:../Dave/Generated/UCPROBE/probe_com.c **** #endif
 786:../Dave/Generated/UCPROBE/probe_com.c **** 
 787:../Dave/Generated/UCPROBE/probe_com.c ****         default:
 788:../Dave/Generated/UCPROBE/probe_com.c ****              tx_buf_wr = ProbeCom_ReqErr(                     ptx_pkt_08, PROBE_COM_STATUS_UNKNOWN_
 861              	 .loc 1 788 0
 862 011c 7B69     	 ldr r3,[r7,#20]
 863 011e 181C     	 mov r0,r3
 864 0120 F921     	 mov r1,#249
 865 0122 FFF7FEFF 	 bl ProbeCom_ReqErr
 866 0126 031C     	 mov r3,r0
 867 0128 FB61     	 str r3,[r7,#28]
 789:../Dave/Generated/UCPROBE/probe_com.c ****              break;
 868              	 .loc 1 789 0
 869 012a C046     	 mov r8,r8
 870              	.L48:
 790:../Dave/Generated/UCPROBE/probe_com.c ****     }
 791:../Dave/Generated/UCPROBE/probe_com.c **** 
 792:../Dave/Generated/UCPROBE/probe_com.c ****     return (tx_buf_wr);
 871              	 .loc 1 792 0
 872 012c FB69     	 ldr r3,[r7,#28]
 873              	.L35:
 793:../Dave/Generated/UCPROBE/probe_com.c **** }
 874              	 .loc 1 793 0
 875 012e 181C     	 mov r0,r3
 876 0130 BD46     	 mov sp,r7
 877 0132 08B0     	 add sp,sp,#32
 878              	 
 879 0134 80BD     	 pop {r7,pc}
 880              	.L50:
 881 0136 C046     	 .align 2
 882              	.L49:
 883 0138 00000000 	 .word ProbeCom_RxPktCtr
 884 013c 00000000 	 .word ProbeCom_TxPktCtr
 885 0140 00000000 	 .word .L38
 886              	 .cfi_endproc
 887              	.LFE7:
 889              	 .section .text.ProbeCom_StrOutAvail,"ax",%progbits
 890              	 .align 2
 891              	 .code 16
 892              	 .thumb_func
 894              	ProbeCom_StrOutAvail:
 895              	.LFB8:
 794:../Dave/Generated/UCPROBE/probe_com.c **** 
 795:../Dave/Generated/UCPROBE/probe_com.c **** 
 796:../Dave/Generated/UCPROBE/probe_com.c **** /*
 797:../Dave/Generated/UCPROBE/probe_com.c **** ***************************************************************************************************
 798:../Dave/Generated/UCPROBE/probe_com.c **** ***************************************************************************************************
 799:../Dave/Generated/UCPROBE/probe_com.c **** *                                           LOCAL FUNCTIONS
 800:../Dave/Generated/UCPROBE/probe_com.c **** ***************************************************************************************************
 801:../Dave/Generated/UCPROBE/probe_com.c **** ***************************************************************************************************
 802:../Dave/Generated/UCPROBE/probe_com.c **** */
 803:../Dave/Generated/UCPROBE/probe_com.c **** 
 804:../Dave/Generated/UCPROBE/probe_com.c **** /*
 805:../Dave/Generated/UCPROBE/probe_com.c **** ***************************************************************************************************
 806:../Dave/Generated/UCPROBE/probe_com.c **** *                                       ProbeCom_StrOutAvail()
 807:../Dave/Generated/UCPROBE/probe_com.c **** *
 808:../Dave/Generated/UCPROBE/probe_com.c **** * Description : Check if string output is waiting for transmission.
 809:../Dave/Generated/UCPROBE/probe_com.c **** *
 810:../Dave/Generated/UCPROBE/probe_com.c **** * Argument(s) : none.
 811:../Dave/Generated/UCPROBE/probe_com.c **** *
 812:../Dave/Generated/UCPROBE/probe_com.c **** * Return(s)   : DEF_TRUE   if a  string output is waiting for transmission.
 813:../Dave/Generated/UCPROBE/probe_com.c **** *               DEF_FALSE  if no string output is waiting for transmission.
 814:../Dave/Generated/UCPROBE/probe_com.c **** *
 815:../Dave/Generated/UCPROBE/probe_com.c **** * Caller(s)   : ProbeCom_PktModifier().
 816:../Dave/Generated/UCPROBE/probe_com.c **** *
 817:../Dave/Generated/UCPROBE/probe_com.c **** * Note(s)     : (1) See Notes for 'ProbeCom_StrWr()'.
 818:../Dave/Generated/UCPROBE/probe_com.c **** ***************************************************************************************************
 819:../Dave/Generated/UCPROBE/probe_com.c **** */
 820:../Dave/Generated/UCPROBE/probe_com.c **** 
 821:../Dave/Generated/UCPROBE/probe_com.c **** #if (PROBE_COM_CFG_STR_REQ_EN == DEF_ENABLED)
 822:../Dave/Generated/UCPROBE/probe_com.c **** static  CPU_BOOLEAN  ProbeCom_StrOutAvail (void)
 823:../Dave/Generated/UCPROBE/probe_com.c **** {
 896              	 .loc 1 823 0
 897              	 .cfi_startproc
 898 0000 90B5     	 push {r4,r7,lr}
 899              	.LCFI24:
 900              	 .cfi_def_cfa_offset 12
 901              	 .cfi_offset 4,-12
 902              	 .cfi_offset 7,-8
 903              	 .cfi_offset 14,-4
 904 0002 83B0     	 sub sp,sp,#12
 905              	.LCFI25:
 906              	 .cfi_def_cfa_offset 24
 907 0004 00AF     	 add r7,sp,#0
 908              	.LCFI26:
 909              	 .cfi_def_cfa_register 7
 824:../Dave/Generated/UCPROBE/probe_com.c ****     CPU_BOOLEAN  avail;
 825:../Dave/Generated/UCPROBE/probe_com.c ****     CPU_BOOLEAN  empty;
 826:../Dave/Generated/UCPROBE/probe_com.c **** 
 827:../Dave/Generated/UCPROBE/probe_com.c **** 
 828:../Dave/Generated/UCPROBE/probe_com.c ****     empty = ProbeCom_BufIsEmpty(&ProbeCom_StrOutBuf);
 910              	 .loc 1 828 0
 911 0006 FC1D     	 add r4,r7,#7
 912 0008 094B     	 ldr r3,.L53
 913 000a 181C     	 mov r0,r3
 914 000c FFF7FEFF 	 bl ProbeCom_BufIsEmpty
 915 0010 031C     	 mov r3,r0
 916 0012 2370     	 strb r3,[r4]
 829:../Dave/Generated/UCPROBE/probe_com.c ****     avail = (empty == DEF_YES) ? (DEF_FALSE) : (DEF_TRUE);
 917              	 .loc 1 829 0
 918 0014 FB1D     	 add r3,r7,#7
 919 0016 1B78     	 ldrb r3,[r3]
 920 0018 013B     	 sub r3,r3,#1
 921 001a 5A1E     	 sub r2,r3,#1
 922 001c 9341     	 sbc r3,r3,r2
 923 001e DAB2     	 uxtb r2,r3
 924 0020 BB1D     	 add r3,r7,#6
 925 0022 1A70     	 strb r2,[r3]
 830:../Dave/Generated/UCPROBE/probe_com.c **** 
 831:../Dave/Generated/UCPROBE/probe_com.c ****     return (avail);
 926              	 .loc 1 831 0
 927 0024 BB1D     	 add r3,r7,#6
 928 0026 1B78     	 ldrb r3,[r3]
 832:../Dave/Generated/UCPROBE/probe_com.c **** }
 929              	 .loc 1 832 0
 930 0028 181C     	 mov r0,r3
 931 002a BD46     	 mov sp,r7
 932 002c 03B0     	 add sp,sp,#12
 933              	 
 934 002e 90BD     	 pop {r4,r7,pc}
 935              	.L54:
 936              	 .align 2
 937              	.L53:
 938 0030 00000000 	 .word ProbeCom_StrOutBuf
 939              	 .cfi_endproc
 940              	.LFE8:
 942              	 .section .text.ProbeCom_TerminalOutAvail,"ax",%progbits
 943              	 .align 2
 944              	 .code 16
 945              	 .thumb_func
 947              	ProbeCom_TerminalOutAvail:
 948              	.LFB9:
 833:../Dave/Generated/UCPROBE/probe_com.c **** #endif
 834:../Dave/Generated/UCPROBE/probe_com.c **** 
 835:../Dave/Generated/UCPROBE/probe_com.c **** 
 836:../Dave/Generated/UCPROBE/probe_com.c **** 
 837:../Dave/Generated/UCPROBE/probe_com.c **** /*
 838:../Dave/Generated/UCPROBE/probe_com.c **** ***************************************************************************************************
 839:../Dave/Generated/UCPROBE/probe_com.c **** *                                     ProbeCom_TerminalOutAvail()
 840:../Dave/Generated/UCPROBE/probe_com.c **** *
 841:../Dave/Generated/UCPROBE/probe_com.c **** * Description : Check if terminal output is waiting for transmission.
 842:../Dave/Generated/UCPROBE/probe_com.c **** *
 843:../Dave/Generated/UCPROBE/probe_com.c **** * Argument(s) : none.
 844:../Dave/Generated/UCPROBE/probe_com.c **** *
 845:../Dave/Generated/UCPROBE/probe_com.c **** * Return(s)   : DEF_TRUE   if a  terminal output is waiting for transmission.
 846:../Dave/Generated/UCPROBE/probe_com.c **** *               DEF_FALSE  if no terminal output is waiting for transmission.
 847:../Dave/Generated/UCPROBE/probe_com.c **** *
 848:../Dave/Generated/UCPROBE/probe_com.c **** * Caller(s)   : ProbeCom_PktModifier().
 849:../Dave/Generated/UCPROBE/probe_com.c **** *
 850:../Dave/Generated/UCPROBE/probe_com.c **** * Note(s)     : (1) See Notes for 'ProbeCom_TerminalOut()'.
 851:../Dave/Generated/UCPROBE/probe_com.c **** ***************************************************************************************************
 852:../Dave/Generated/UCPROBE/probe_com.c **** */
 853:../Dave/Generated/UCPROBE/probe_com.c **** 
 854:../Dave/Generated/UCPROBE/probe_com.c **** #if (PROBE_COM_CFG_TERMINAL_REQ_EN == DEF_ENABLED)
 855:../Dave/Generated/UCPROBE/probe_com.c **** static  CPU_BOOLEAN  ProbeCom_TerminalOutAvail (void)
 856:../Dave/Generated/UCPROBE/probe_com.c **** {
 949              	 .loc 1 856 0
 950              	 .cfi_startproc
 951 0000 80B5     	 push {r7,lr}
 952              	.LCFI27:
 953              	 .cfi_def_cfa_offset 8
 954              	 .cfi_offset 7,-8
 955              	 .cfi_offset 14,-4
 956 0002 84B0     	 sub sp,sp,#16
 957              	.LCFI28:
 958              	 .cfi_def_cfa_offset 24
 959 0004 00AF     	 add r7,sp,#0
 960              	.LCFI29:
 961              	 .cfi_def_cfa_register 7
 857:../Dave/Generated/UCPROBE/probe_com.c ****     CPU_SIZE_T   buf_len;
 858:../Dave/Generated/UCPROBE/probe_com.c ****     CPU_BOOLEAN  avail;
 859:../Dave/Generated/UCPROBE/probe_com.c ****     CPU_SR_ALLOC();
 962              	 .loc 1 859 0
 963 0006 0023     	 mov r3,#0
 964 0008 FB60     	 str r3,[r7,#12]
 860:../Dave/Generated/UCPROBE/probe_com.c **** 
 861:../Dave/Generated/UCPROBE/probe_com.c **** 
 862:../Dave/Generated/UCPROBE/probe_com.c ****     CPU_CRITICAL_ENTER();
 965              	 .loc 1 862 0
 966 000a FFF7FEFF 	 bl CPU_SR_Save
 967 000e 031C     	 mov r3,r0
 968 0010 FB60     	 str r3,[r7,#12]
 863:../Dave/Generated/UCPROBE/probe_com.c ****     buf_len = ProbeCom_TerminalOutBufLen;
 969              	 .loc 1 863 0
 970 0012 094B     	 ldr r3,.L57
 971 0014 1B68     	 ldr r3,[r3]
 972 0016 BB60     	 str r3,[r7,#8]
 864:../Dave/Generated/UCPROBE/probe_com.c ****     CPU_CRITICAL_EXIT();
 973              	 .loc 1 864 0
 974 0018 FB68     	 ldr r3,[r7,#12]
 975 001a 181C     	 mov r0,r3
 976 001c FFF7FEFF 	 bl CPU_SR_Restore
 865:../Dave/Generated/UCPROBE/probe_com.c **** 
 866:../Dave/Generated/UCPROBE/probe_com.c ****     avail   = (buf_len == 0u) ? (DEF_FALSE) : (DEF_TRUE);
 977              	 .loc 1 866 0
 978 0020 BB68     	 ldr r3,[r7,#8]
 979 0022 5A1E     	 sub r2,r3,#1
 980 0024 9341     	 sbc r3,r3,r2
 981 0026 DAB2     	 uxtb r2,r3
 982 0028 FB1D     	 add r3,r7,#7
 983 002a 1A70     	 strb r2,[r3]
 867:../Dave/Generated/UCPROBE/probe_com.c **** 
 868:../Dave/Generated/UCPROBE/probe_com.c ****     return (avail);
 984              	 .loc 1 868 0
 985 002c FB1D     	 add r3,r7,#7
 986 002e 1B78     	 ldrb r3,[r3]
 869:../Dave/Generated/UCPROBE/probe_com.c **** }
 987              	 .loc 1 869 0
 988 0030 181C     	 mov r0,r3
 989 0032 BD46     	 mov sp,r7
 990 0034 04B0     	 add sp,sp,#16
 991              	 
 992 0036 80BD     	 pop {r7,pc}
 993              	.L58:
 994              	 .align 2
 995              	.L57:
 996 0038 00000000 	 .word ProbeCom_TerminalOutBufLen
 997              	 .cfi_endproc
 998              	.LFE9:
 1000              	 .section .text.ProbeCom_TerminalExecDone,"ax",%progbits
 1001              	 .align 2
 1002              	 .code 16
 1003              	 .thumb_func
 1005              	ProbeCom_TerminalExecDone:
 1006              	.LFB10:
 870:../Dave/Generated/UCPROBE/probe_com.c **** #endif
 871:../Dave/Generated/UCPROBE/probe_com.c **** 
 872:../Dave/Generated/UCPROBE/probe_com.c **** 
 873:../Dave/Generated/UCPROBE/probe_com.c **** 
 874:../Dave/Generated/UCPROBE/probe_com.c **** /*
 875:../Dave/Generated/UCPROBE/probe_com.c **** ***************************************************************************************************
 876:../Dave/Generated/UCPROBE/probe_com.c **** *                                     ProbeCom_TerminalExecDone()
 877:../Dave/Generated/UCPROBE/probe_com.c **** *
 878:../Dave/Generated/UCPROBE/probe_com.c **** * Description : Check if terminal execution is done.
 879:../Dave/Generated/UCPROBE/probe_com.c **** *
 880:../Dave/Generated/UCPROBE/probe_com.c **** * Argument(s) : none.
 881:../Dave/Generated/UCPROBE/probe_com.c **** *
 882:../Dave/Generated/UCPROBE/probe_com.c **** * Return(s)   : DEF_TRUE   if terminal command execution is     done.
 883:../Dave/Generated/UCPROBE/probe_com.c **** *               DEF_FALSE  if terminal command execution is NOT done.
 884:../Dave/Generated/UCPROBE/probe_com.c **** *
 885:../Dave/Generated/UCPROBE/probe_com.c **** * Caller(s)   : ProbeCom_PktModifier().
 886:../Dave/Generated/UCPROBE/probe_com.c **** *
 887:../Dave/Generated/UCPROBE/probe_com.c **** * Note(s)     : (1) See Notes for 'ProbeCom_TerminalOut()'.
 888:../Dave/Generated/UCPROBE/probe_com.c **** ***************************************************************************************************
 889:../Dave/Generated/UCPROBE/probe_com.c **** */
 890:../Dave/Generated/UCPROBE/probe_com.c **** 
 891:../Dave/Generated/UCPROBE/probe_com.c **** #if (PROBE_COM_CFG_TERMINAL_REQ_EN == DEF_ENABLED)
 892:../Dave/Generated/UCPROBE/probe_com.c **** static  CPU_BOOLEAN  ProbeCom_TerminalExecDone (void)
 893:../Dave/Generated/UCPROBE/probe_com.c **** {
 1007              	 .loc 1 893 0
 1008              	 .cfi_startproc
 1009 0000 80B5     	 push {r7,lr}
 1010              	.LCFI30:
 1011              	 .cfi_def_cfa_offset 8
 1012              	 .cfi_offset 7,-8
 1013              	 .cfi_offset 14,-4
 1014 0002 82B0     	 sub sp,sp,#8
 1015              	.LCFI31:
 1016              	 .cfi_def_cfa_offset 16
 1017 0004 00AF     	 add r7,sp,#0
 1018              	.LCFI32:
 1019              	 .cfi_def_cfa_register 7
 894:../Dave/Generated/UCPROBE/probe_com.c **** #if (CPU_CFG_CRITICAL_METHOD == CPU_CRITICAL_METHOD_STATUS_LOCAL)
 895:../Dave/Generated/UCPROBE/probe_com.c ****     CPU_SR       cpu_sr;
 896:../Dave/Generated/UCPROBE/probe_com.c **** #endif
 897:../Dave/Generated/UCPROBE/probe_com.c ****     CPU_BOOLEAN  executing;
 898:../Dave/Generated/UCPROBE/probe_com.c ****     CPU_BOOLEAN  done;
 899:../Dave/Generated/UCPROBE/probe_com.c **** 
 900:../Dave/Generated/UCPROBE/probe_com.c **** 
 901:../Dave/Generated/UCPROBE/probe_com.c ****     CPU_CRITICAL_ENTER();
 1020              	 .loc 1 901 0
 1021 0006 FFF7FEFF 	 bl CPU_SR_Save
 1022 000a 031C     	 mov r3,r0
 1023 000c 7B60     	 str r3,[r7,#4]
 902:../Dave/Generated/UCPROBE/probe_com.c ****     executing = ProbeCom_TerminalExecuting;
 1024              	 .loc 1 902 0
 1025 000e FB1C     	 add r3,r7,#3
 1026 0010 0A4A     	 ldr r2,.L61
 1027 0012 1278     	 ldrb r2,[r2]
 1028 0014 1A70     	 strb r2,[r3]
 903:../Dave/Generated/UCPROBE/probe_com.c ****     CPU_CRITICAL_EXIT();
 1029              	 .loc 1 903 0
 1030 0016 7B68     	 ldr r3,[r7,#4]
 1031 0018 181C     	 mov r0,r3
 1032 001a FFF7FEFF 	 bl CPU_SR_Restore
 904:../Dave/Generated/UCPROBE/probe_com.c **** 
 905:../Dave/Generated/UCPROBE/probe_com.c ****     done = (executing == DEF_YES) ? (DEF_FALSE) : (DEF_TRUE);
 1033              	 .loc 1 905 0
 1034 001e FB1C     	 add r3,r7,#3
 1035 0020 1B78     	 ldrb r3,[r3]
 1036 0022 013B     	 sub r3,r3,#1
 1037 0024 5A1E     	 sub r2,r3,#1
 1038 0026 9341     	 sbc r3,r3,r2
 1039 0028 DAB2     	 uxtb r2,r3
 1040 002a BB1C     	 add r3,r7,#2
 1041 002c 1A70     	 strb r2,[r3]
 906:../Dave/Generated/UCPROBE/probe_com.c **** 
 907:../Dave/Generated/UCPROBE/probe_com.c ****     return (done);
 1042              	 .loc 1 907 0
 1043 002e BB1C     	 add r3,r7,#2
 1044 0030 1B78     	 ldrb r3,[r3]
 908:../Dave/Generated/UCPROBE/probe_com.c **** }
 1045              	 .loc 1 908 0
 1046 0032 181C     	 mov r0,r3
 1047 0034 BD46     	 mov sp,r7
 1048 0036 02B0     	 add sp,sp,#8
 1049              	 
 1050 0038 80BD     	 pop {r7,pc}
 1051              	.L62:
 1052 003a C046     	 .align 2
 1053              	.L61:
 1054 003c 00000000 	 .word ProbeCom_TerminalExecuting
 1055              	 .cfi_endproc
 1056              	.LFE10:
 1058              	 .section .text.ProbeCom_PktModifier,"ax",%progbits
 1059              	 .align 2
 1060              	 .code 16
 1061              	 .thumb_func
 1063              	ProbeCom_PktModifier:
 1064              	.LFB11:
 909:../Dave/Generated/UCPROBE/probe_com.c **** #endif
 910:../Dave/Generated/UCPROBE/probe_com.c **** 
 911:../Dave/Generated/UCPROBE/probe_com.c **** 
 912:../Dave/Generated/UCPROBE/probe_com.c **** /*
 913:../Dave/Generated/UCPROBE/probe_com.c **** ***************************************************************************************************
 914:../Dave/Generated/UCPROBE/probe_com.c **** *                                       ProbeCom_PktModifier()
 915:../Dave/Generated/UCPROBE/probe_com.c **** *
 916:../Dave/Generated/UCPROBE/probe_com.c **** * Description : Get packet modfier byte.
 917:../Dave/Generated/UCPROBE/probe_com.c **** *
 918:../Dave/Generated/UCPROBE/probe_com.c **** * Argument(s) : none.
 919:../Dave/Generated/UCPROBE/probe_com.c **** *
 920:../Dave/Generated/UCPROBE/probe_com.c **** * Return(s)   : The modifier byte.
 921:../Dave/Generated/UCPROBE/probe_com.c **** *
 922:../Dave/Generated/UCPROBE/probe_com.c **** * Caller(s)   : Various command handlers (ProbeCom_Req????()).
 923:../Dave/Generated/UCPROBE/probe_com.c **** *
 924:../Dave/Generated/UCPROBE/probe_com.c **** * Note(s)     : none.
 925:../Dave/Generated/UCPROBE/probe_com.c **** ***************************************************************************************************
 926:../Dave/Generated/UCPROBE/probe_com.c **** */
 927:../Dave/Generated/UCPROBE/probe_com.c **** 
 928:../Dave/Generated/UCPROBE/probe_com.c **** static  CPU_INT08U  ProbeCom_PktModifier (void)
 929:../Dave/Generated/UCPROBE/probe_com.c **** {
 1065              	 .loc 1 929 0
 1066              	 .cfi_startproc
 1067 0000 90B5     	 push {r4,r7,lr}
 1068              	.LCFI33:
 1069              	 .cfi_def_cfa_offset 12
 1070              	 .cfi_offset 4,-12
 1071              	 .cfi_offset 7,-8
 1072              	 .cfi_offset 14,-4
 1073 0002 83B0     	 sub sp,sp,#12
 1074              	.LCFI34:
 1075              	 .cfi_def_cfa_offset 24
 1076 0004 00AF     	 add r7,sp,#0
 1077              	.LCFI35:
 1078              	 .cfi_def_cfa_register 7
 930:../Dave/Generated/UCPROBE/probe_com.c **** #if ((PROBE_COM_CFG_STR_REQ_EN      == DEF_ENABLED) || \
 931:../Dave/Generated/UCPROBE/probe_com.c ****      (PROBE_COM_CFG_TERMINAL_REQ_EN == DEF_ENABLED))
 932:../Dave/Generated/UCPROBE/probe_com.c ****     CPU_BOOLEAN  avail;
 933:../Dave/Generated/UCPROBE/probe_com.c **** #endif
 934:../Dave/Generated/UCPROBE/probe_com.c **** #if  (PROBE_COM_CFG_TERMINAL_REQ_EN == DEF_ENABLED)
 935:../Dave/Generated/UCPROBE/probe_com.c ****     CPU_BOOLEAN  done;
 936:../Dave/Generated/UCPROBE/probe_com.c **** #endif
 937:../Dave/Generated/UCPROBE/probe_com.c ****     CPU_INT08U   mod;
 938:../Dave/Generated/UCPROBE/probe_com.c **** 
 939:../Dave/Generated/UCPROBE/probe_com.c **** 
 940:../Dave/Generated/UCPROBE/probe_com.c ****     mod = PROBE_COM_MODIFIER_NONE;
 1079              	 .loc 1 940 0
 1080 0006 FB1D     	 add r3,r7,#7
 1081 0008 0022     	 mov r2,#0
 1082 000a 1A70     	 strb r2,[r3]
 941:../Dave/Generated/UCPROBE/probe_com.c **** 
 942:../Dave/Generated/UCPROBE/probe_com.c **** #if (PROBE_COM_CFG_STR_REQ_EN == DEF_ENABLED)
 943:../Dave/Generated/UCPROBE/probe_com.c ****     avail = ProbeCom_StrOutAvail();
 1083              	 .loc 1 943 0
 1084 000c BC1D     	 add r4,r7,#6
 1085 000e FFF7FEFF 	 bl ProbeCom_StrOutAvail
 1086 0012 031C     	 mov r3,r0
 1087 0014 2370     	 strb r3,[r4]
 944:../Dave/Generated/UCPROBE/probe_com.c ****     if (avail == DEF_TRUE) {
 1088              	 .loc 1 944 0
 1089 0016 BB1D     	 add r3,r7,#6
 1090 0018 1B78     	 ldrb r3,[r3]
 1091 001a 012B     	 cmp r3,#1
 1092 001c 05D1     	 bne .L64
 945:../Dave/Generated/UCPROBE/probe_com.c ****         DEF_BIT_SET(mod, PROBE_COM_MODIFIER_STR_OUT_AVAIL);
 1093              	 .loc 1 945 0
 1094 001e FB1D     	 add r3,r7,#7
 1095 0020 FA1D     	 add r2,r7,#7
 1096 0022 1278     	 ldrb r2,[r2]
 1097 0024 0121     	 mov r1,#1
 1098 0026 0A43     	 orr r2,r1
 1099 0028 1A70     	 strb r2,[r3]
 1100              	.L64:
 946:../Dave/Generated/UCPROBE/probe_com.c ****     }
 947:../Dave/Generated/UCPROBE/probe_com.c **** #endif
 948:../Dave/Generated/UCPROBE/probe_com.c **** 
 949:../Dave/Generated/UCPROBE/probe_com.c **** #if (PROBE_COM_CFG_TERMINAL_REQ_EN == DEF_ENABLED)
 950:../Dave/Generated/UCPROBE/probe_com.c ****     avail = ProbeCom_TerminalOutAvail();
 1101              	 .loc 1 950 0
 1102 002a BC1D     	 add r4,r7,#6
 1103 002c FFF7FEFF 	 bl ProbeCom_TerminalOutAvail
 1104 0030 031C     	 mov r3,r0
 1105 0032 2370     	 strb r3,[r4]
 951:../Dave/Generated/UCPROBE/probe_com.c ****     if (avail == DEF_TRUE) {
 1106              	 .loc 1 951 0
 1107 0034 BB1D     	 add r3,r7,#6
 1108 0036 1B78     	 ldrb r3,[r3]
 1109 0038 012B     	 cmp r3,#1
 1110 003a 05D1     	 bne .L65
 952:../Dave/Generated/UCPROBE/probe_com.c ****         DEF_BIT_SET(mod, PROBE_COM_MODIFIER_TERMINAL_OUT_AVAIL);
 1111              	 .loc 1 952 0
 1112 003c FB1D     	 add r3,r7,#7
 1113 003e FA1D     	 add r2,r7,#7
 1114 0040 1278     	 ldrb r2,[r2]
 1115 0042 0421     	 mov r1,#4
 1116 0044 0A43     	 orr r2,r1
 1117 0046 1A70     	 strb r2,[r3]
 1118              	.L65:
 953:../Dave/Generated/UCPROBE/probe_com.c ****     }
 954:../Dave/Generated/UCPROBE/probe_com.c **** 
 955:../Dave/Generated/UCPROBE/probe_com.c ****     done = ProbeCom_TerminalExecDone();
 1119              	 .loc 1 955 0
 1120 0048 7C1D     	 add r4,r7,#5
 1121 004a FFF7FEFF 	 bl ProbeCom_TerminalExecDone
 1122 004e 031C     	 mov r3,r0
 1123 0050 2370     	 strb r3,[r4]
 956:../Dave/Generated/UCPROBE/probe_com.c ****     if (done == DEF_TRUE) {
 1124              	 .loc 1 956 0
 1125 0052 7B1D     	 add r3,r7,#5
 1126 0054 1B78     	 ldrb r3,[r3]
 1127 0056 012B     	 cmp r3,#1
 1128 0058 05D1     	 bne .L66
 957:../Dave/Generated/UCPROBE/probe_com.c ****         DEF_BIT_SET(mod, PROBE_COM_MODIFIER_TERMINAL_EXEC_DONE);
 1129              	 .loc 1 957 0
 1130 005a FB1D     	 add r3,r7,#7
 1131 005c FA1D     	 add r2,r7,#7
 1132 005e 1278     	 ldrb r2,[r2]
 1133 0060 0221     	 mov r1,#2
 1134 0062 0A43     	 orr r2,r1
 1135 0064 1A70     	 strb r2,[r3]
 1136              	.L66:
 958:../Dave/Generated/UCPROBE/probe_com.c ****     }
 959:../Dave/Generated/UCPROBE/probe_com.c **** #endif
 960:../Dave/Generated/UCPROBE/probe_com.c **** 
 961:../Dave/Generated/UCPROBE/probe_com.c ****     return (mod);
 1137              	 .loc 1 961 0
 1138 0066 FB1D     	 add r3,r7,#7
 1139 0068 1B78     	 ldrb r3,[r3]
 962:../Dave/Generated/UCPROBE/probe_com.c **** }
 1140              	 .loc 1 962 0
 1141 006a 181C     	 mov r0,r3
 1142 006c BD46     	 mov sp,r7
 1143 006e 03B0     	 add sp,sp,#12
 1144              	 
 1145 0070 90BD     	 pop {r4,r7,pc}
 1146              	 .cfi_endproc
 1147              	.LFE11:
 1149 0072 C046     	 .section .text.ProbeCom_ReqErr,"ax",%progbits
 1150              	 .align 2
 1151              	 .code 16
 1152              	 .thumb_func
 1154              	ProbeCom_ReqErr:
 1155              	.LFB12:
 963:../Dave/Generated/UCPROBE/probe_com.c **** 
 964:../Dave/Generated/UCPROBE/probe_com.c **** 
 965:../Dave/Generated/UCPROBE/probe_com.c **** /*
 966:../Dave/Generated/UCPROBE/probe_com.c **** ***************************************************************************************************
 967:../Dave/Generated/UCPROBE/probe_com.c **** *                                          ProbeCom_ReqErr()
 968:../Dave/Generated/UCPROBE/probe_com.c **** *
 969:../Dave/Generated/UCPROBE/probe_com.c **** * Description : Formulate error response when the target receives a request it cannot handle.
 970:../Dave/Generated/UCPROBE/probe_com.c **** *
 971:../Dave/Generated/UCPROBE/probe_com.c **** * Argument(s) : ptx_buf      Pointer to the transmit buffer
 972:../Dave/Generated/UCPROBE/probe_com.c **** *
 973:../Dave/Generated/UCPROBE/probe_com.c **** *               comm_err     Error that occurred
 974:../Dave/Generated/UCPROBE/probe_com.c **** *
 975:../Dave/Generated/UCPROBE/probe_com.c **** * Return(s)   : The number of bytes written to the tx buffer.
 976:../Dave/Generated/UCPROBE/probe_com.c **** *
 977:../Dave/Generated/UCPROBE/probe_com.c **** * Caller(s)   : Various command handlers (ProbeCom_Req????()).
 978:../Dave/Generated/UCPROBE/probe_com.c **** *
 979:../Dave/Generated/UCPROBE/probe_com.c **** * Note(s)     : (1) The TX format:
 980:../Dave/Generated/UCPROBE/probe_com.c **** *
 981:../Dave/Generated/UCPROBE/probe_com.c **** *                   (A) A 2-byte format  , indicating the data segment format;
 982:../Dave/Generated/UCPROBE/probe_com.c **** *                   (B) A 1-byte constant, PROBE_RS232_OK,   if the location can    be read;
 983:../Dave/Generated/UCPROBE/probe_com.c **** *                       A 1-byte constant, PROBE_RS232_FAIL, if the location cannot be read.
 984:../Dave/Generated/UCPROBE/probe_com.c **** *                   (C) A 1-byte modifier.
 985:../Dave/Generated/UCPROBE/probe_com.c **** *
 986:../Dave/Generated/UCPROBE/probe_com.c **** *                         +-------------------------+------------+------------+
 987:../Dave/Generated/UCPROBE/probe_com.c **** *                         |          Format         |   Status   |  Modifier  |
 988:../Dave/Generated/UCPROBE/probe_com.c **** *                         +-------------------------+------------+------------+
 989:../Dave/Generated/UCPROBE/probe_com.c **** ***************************************************************************************************
 990:../Dave/Generated/UCPROBE/probe_com.c **** */
 991:../Dave/Generated/UCPROBE/probe_com.c **** 
 992:../Dave/Generated/UCPROBE/probe_com.c **** static  CPU_SIZE_T  ProbeCom_ReqErr (CPU_INT08U  *ptx_buf,
 993:../Dave/Generated/UCPROBE/probe_com.c ****                                      CPU_INT08U   comm_err)
 994:../Dave/Generated/UCPROBE/probe_com.c **** {
 1156              	 .loc 1 994 0
 1157              	 .cfi_startproc
 1158 0000 80B5     	 push {r7,lr}
 1159              	.LCFI36:
 1160              	 .cfi_def_cfa_offset 8
 1161              	 .cfi_offset 7,-8
 1162              	 .cfi_offset 14,-4
 1163 0002 84B0     	 sub sp,sp,#16
 1164              	.LCFI37:
 1165              	 .cfi_def_cfa_offset 24
 1166 0004 00AF     	 add r7,sp,#0
 1167              	.LCFI38:
 1168              	 .cfi_def_cfa_register 7
 1169 0006 7860     	 str r0,[r7,#4]
 1170 0008 0A1C     	 mov r2,r1
 1171 000a FB1C     	 add r3,r7,#3
 1172 000c 1A70     	 strb r2,[r3]
 995:../Dave/Generated/UCPROBE/probe_com.c ****     CPU_SIZE_T  tx_len;
 996:../Dave/Generated/UCPROBE/probe_com.c **** 
 997:../Dave/Generated/UCPROBE/probe_com.c **** 
 998:../Dave/Generated/UCPROBE/probe_com.c **** #if (PROBE_COM_CFG_STAT_EN == DEF_ENABLED)
 999:../Dave/Generated/UCPROBE/probe_com.c ****     ProbeCom_ErrPktCtr++;
 1173              	 .loc 1 999 0
 1174 000e 114B     	 ldr r3,.L70
 1175 0010 1B68     	 ldr r3,[r3]
 1176 0012 5A1C     	 add r2,r3,#1
 1177 0014 0F4B     	 ldr r3,.L70
 1178 0016 1A60     	 str r2,[r3]
1000:../Dave/Generated/UCPROBE/probe_com.c **** #endif
1001:../Dave/Generated/UCPROBE/probe_com.c **** 
1002:../Dave/Generated/UCPROBE/probe_com.c ****     ProbeCom_StoINT16U(&ptx_buf, PROBE_COM_FMT_TX_ERR);         /* Tx pkt fmt.                     
 1179              	 .loc 1 1002 0
 1180 0018 3A1D     	 add r2,r7,#4
 1181 001a 8023     	 mov r3,#128
 1182 001c 1B02     	 lsl r3,r3,#8
 1183 001e 101C     	 mov r0,r2
 1184 0020 191C     	 mov r1,r3
 1185 0022 FFF7FEFF 	 bl ProbeCom_StoINT16U
1003:../Dave/Generated/UCPROBE/probe_com.c ****     ProbeCom_StoINT08U(&ptx_buf, comm_err);                     /* Target status.                  
 1186              	 .loc 1 1003 0
 1187 0026 3A1D     	 add r2,r7,#4
 1188 0028 FB1C     	 add r3,r7,#3
 1189 002a 1B78     	 ldrb r3,[r3]
 1190 002c 101C     	 mov r0,r2
 1191 002e 191C     	 mov r1,r3
 1192 0030 FFF7FEFF 	 bl ProbeCom_StoINT08U
1004:../Dave/Generated/UCPROBE/probe_com.c ****     ProbeCom_StoINT08U(&ptx_buf, ProbeCom_PktModifier());       /* Modifier.                       
 1193              	 .loc 1 1004 0
 1194 0034 FFF7FEFF 	 bl ProbeCom_PktModifier
 1195 0038 031C     	 mov r3,r0
 1196 003a 1A1C     	 mov r2,r3
 1197 003c 3B1D     	 add r3,r7,#4
 1198 003e 181C     	 mov r0,r3
 1199 0040 111C     	 mov r1,r2
 1200 0042 FFF7FEFF 	 bl ProbeCom_StoINT08U
1005:../Dave/Generated/UCPROBE/probe_com.c **** 
1006:../Dave/Generated/UCPROBE/probe_com.c ****     tx_len = (CPU_SIZE_T)PROBE_COM_SIZE_TX_HDR;
 1201              	 .loc 1 1006 0
 1202 0046 0423     	 mov r3,#4
 1203 0048 FB60     	 str r3,[r7,#12]
1007:../Dave/Generated/UCPROBE/probe_com.c ****     return (tx_len);                                            /* Rtn TX data segment size =  4 (=
 1204              	 .loc 1 1007 0
 1205 004a FB68     	 ldr r3,[r7,#12]
1008:../Dave/Generated/UCPROBE/probe_com.c **** }
 1206              	 .loc 1 1008 0
 1207 004c 181C     	 mov r0,r3
 1208 004e BD46     	 mov sp,r7
 1209 0050 04B0     	 add sp,sp,#16
 1210              	 
 1211 0052 80BD     	 pop {r7,pc}
 1212              	.L71:
 1213              	 .align 2
 1214              	.L70:
 1215 0054 00000000 	 .word ProbeCom_ErrPktCtr
 1216              	 .cfi_endproc
 1217              	.LFE12:
 1219              	 .section .text.ProbeCom_ReqQuery,"ax",%progbits
 1220              	 .align 2
 1221              	 .code 16
 1222              	 .thumb_func
 1224              	ProbeCom_ReqQuery:
 1225              	.LFB13:
1009:../Dave/Generated/UCPROBE/probe_com.c **** 
1010:../Dave/Generated/UCPROBE/probe_com.c **** 
1011:../Dave/Generated/UCPROBE/probe_com.c **** /*
1012:../Dave/Generated/UCPROBE/probe_com.c **** ***************************************************************************************************
1013:../Dave/Generated/UCPROBE/probe_com.c **** *                                         ProbeCom_ReqQuery()
1014:../Dave/Generated/UCPROBE/probe_com.c **** *
1015:../Dave/Generated/UCPROBE/probe_com.c **** * Description : Parse the FMT_QUERY command & formulate response.  This command asks the target
1016:../Dave/Generated/UCPROBE/probe_com.c **** *               about its capabilities, which are returned in response.
1017:../Dave/Generated/UCPROBE/probe_com.c **** *
1018:../Dave/Generated/UCPROBE/probe_com.c **** * Argument(s) : prx_buf         Pointer to the receive  buffer
1019:../Dave/Generated/UCPROBE/probe_com.c **** *
1020:../Dave/Generated/UCPROBE/probe_com.c **** *               ptx_buf         Pointer to the transmit buffer
1021:../Dave/Generated/UCPROBE/probe_com.c **** *
1022:../Dave/Generated/UCPROBE/probe_com.c **** *               rx_pkt_size     Size of the receive  packet
1023:../Dave/Generated/UCPROBE/probe_com.c **** *
1024:../Dave/Generated/UCPROBE/probe_com.c **** *               tx_buf_size     Size of the transmit buffer
1025:../Dave/Generated/UCPROBE/probe_com.c **** *
1026:../Dave/Generated/UCPROBE/probe_com.c **** * Return(s)   : The number of bytes written to the tx buffer.
1027:../Dave/Generated/UCPROBE/probe_com.c **** *
1028:../Dave/Generated/UCPROBE/probe_com.c **** * Caller(s)   : ProbeCom_ParseRxPkt().
1029:../Dave/Generated/UCPROBE/probe_com.c **** *
1030:../Dave/Generated/UCPROBE/probe_com.c **** * Note(s)     : (1) The RX format:
1031:../Dave/Generated/UCPROBE/probe_com.c **** *
1032:../Dave/Generated/UCPROBE/probe_com.c **** *                   (A) A 2-byte format, indicating the data segment format;
1033:../Dave/Generated/UCPROBE/probe_com.c **** *                   (B) A 2-byte query , indicating the query type.
1034:../Dave/Generated/UCPROBE/probe_com.c **** *
1035:../Dave/Generated/UCPROBE/probe_com.c **** *                         +-------------------------+-------------------------+
1036:../Dave/Generated/UCPROBE/probe_com.c **** *                         |          Format         |          Query          |
1037:../Dave/Generated/UCPROBE/probe_com.c **** *                         +-------------------------+-------------------------+
1038:../Dave/Generated/UCPROBE/probe_com.c **** *
1039:../Dave/Generated/UCPROBE/probe_com.c **** *              (2) The TX format:
1040:../Dave/Generated/UCPROBE/probe_com.c **** *
1041:../Dave/Generated/UCPROBE/probe_com.c **** *                   (A) A 2-byte format, indicating the data segment format;
1042:../Dave/Generated/UCPROBE/probe_com.c **** *                   (B) A 1-byte status, indicating the status after the request;
1043:../Dave/Generated/UCPROBE/probe_com.c **** *                   (C) A 1-byte modifier;
1044:../Dave/Generated/UCPROBE/probe_com.c **** *                   (E) A n-byte answer, the answer to the query.
1045:../Dave/Generated/UCPROBE/probe_com.c **** *
1046:../Dave/Generated/UCPROBE/probe_com.c **** *                         +-------------------------+------------+------------+
1047:../Dave/Generated/UCPROBE/probe_com.c **** *                         |          Format         |   Status   |  Modifier  |
1048:../Dave/Generated/UCPROBE/probe_com.c **** *                         +-------------------------+------------+------------+
1049:../Dave/Generated/UCPROBE/probe_com.c **** *                         |                       Answer                      |
1050:../Dave/Generated/UCPROBE/probe_com.c **** *                         |                         .                         |
1051:../Dave/Generated/UCPROBE/probe_com.c **** *                         |                         .                         |
1052:../Dave/Generated/UCPROBE/probe_com.c **** *                         |                         .                         |
1053:../Dave/Generated/UCPROBE/probe_com.c **** *                         +---------------------------------------------------+
1054:../Dave/Generated/UCPROBE/probe_com.c **** *
1055:../Dave/Generated/UCPROBE/probe_com.c **** ***************************************************************************************************
1056:../Dave/Generated/UCPROBE/probe_com.c **** */
1057:../Dave/Generated/UCPROBE/probe_com.c **** 
1058:../Dave/Generated/UCPROBE/probe_com.c **** static  CPU_SIZE_T  ProbeCom_ReqQuery (CPU_INT08U  *prx_buf,
1059:../Dave/Generated/UCPROBE/probe_com.c ****                                        CPU_INT08U  *ptx_buf,
1060:../Dave/Generated/UCPROBE/probe_com.c ****                                        CPU_SIZE_T   rx_pkt_size,
1061:../Dave/Generated/UCPROBE/probe_com.c ****                                        CPU_SIZE_T   tx_buf_size)
1062:../Dave/Generated/UCPROBE/probe_com.c **** {
 1226              	 .loc 1 1062 0
 1227              	 .cfi_startproc
 1228 0000 90B5     	 push {r4,r7,lr}
 1229              	.LCFI39:
 1230              	 .cfi_def_cfa_offset 12
 1231              	 .cfi_offset 4,-12
 1232              	 .cfi_offset 7,-8
 1233              	 .cfi_offset 14,-4
 1234 0002 89B0     	 sub sp,sp,#36
 1235              	.LCFI40:
 1236              	 .cfi_def_cfa_offset 48
 1237 0004 00AF     	 add r7,sp,#0
 1238              	.LCFI41:
 1239              	 .cfi_def_cfa_register 7
 1240 0006 F860     	 str r0,[r7,#12]
 1241 0008 B960     	 str r1,[r7,#8]
 1242 000a 7A60     	 str r2,[r7,#4]
 1243 000c 3B60     	 str r3,[r7]
1063:../Dave/Generated/UCPROBE/probe_com.c ****     CPU_INT16U  query;
1064:../Dave/Generated/UCPROBE/probe_com.c ****     CPU_INT32U  status;
1065:../Dave/Generated/UCPROBE/probe_com.c ****     CPU_SIZE_T  tx_len;
1066:../Dave/Generated/UCPROBE/probe_com.c ****     CPU_INT32U  version;
1067:../Dave/Generated/UCPROBE/probe_com.c **** 
1068:../Dave/Generated/UCPROBE/probe_com.c **** 
1069:../Dave/Generated/UCPROBE/probe_com.c ****    (void)&tx_buf_size;                                          /* Prevent compiler warning.       
1070:../Dave/Generated/UCPROBE/probe_com.c **** 
1071:../Dave/Generated/UCPROBE/probe_com.c ****                                                                 /* ------------------- CHK PKT SIZE
1072:../Dave/Generated/UCPROBE/probe_com.c ****                                                                 /* Expected size =  2 (= Rx hdr siz
1073:../Dave/Generated/UCPROBE/probe_com.c ****                                                                 /*               +  2 (= Query     
1074:../Dave/Generated/UCPROBE/probe_com.c ****     if (rx_pkt_size != 4u) {
 1244              	 .loc 1 1074 0
 1245 000e 7B68     	 ldr r3,[r7,#4]
 1246 0010 042B     	 cmp r3,#4
 1247 0012 08D0     	 beq .L73
1075:../Dave/Generated/UCPROBE/probe_com.c ****         tx_len = ProbeCom_ReqErr(ptx_buf, PROBE_COM_STATUS_RX_PKT_WRONG_SIZE);
 1248              	 .loc 1 1075 0
 1249 0014 BB68     	 ldr r3,[r7,#8]
 1250 0016 181C     	 mov r0,r3
 1251 0018 FE21     	 mov r1,#254
 1252 001a FFF7FEFF 	 bl ProbeCom_ReqErr
 1253 001e 031C     	 mov r3,r0
 1254 0020 FB61     	 str r3,[r7,#28]
1076:../Dave/Generated/UCPROBE/probe_com.c ****         return (tx_len);
 1255              	 .loc 1 1076 0
 1256 0022 FB69     	 ldr r3,[r7,#28]
 1257 0024 F5E0     	 b .L88
 1258              	.L73:
1077:../Dave/Generated/UCPROBE/probe_com.c ****     }
1078:../Dave/Generated/UCPROBE/probe_com.c **** 
1079:../Dave/Generated/UCPROBE/probe_com.c ****                                                                 /* ------------------- HANDLE QUERY
1080:../Dave/Generated/UCPROBE/probe_com.c ****     query = ProbeCom_GetINT16U(&prx_buf);                       /* Rd the query.                   
 1259              	 .loc 1 1080 0
 1260 0026 1A23     	 mov r3,#26
 1261 0028 FC18     	 add r4,r7,r3
 1262 002a 0C23     	 mov r3,#12
 1263 002c FB18     	 add r3,r7,r3
 1264 002e 181C     	 mov r0,r3
 1265 0030 FFF7FEFF 	 bl ProbeCom_GetINT16U
 1266 0034 031C     	 mov r3,r0
 1267 0036 2380     	 strh r3,[r4]
1081:../Dave/Generated/UCPROBE/probe_com.c **** 
1082:../Dave/Generated/UCPROBE/probe_com.c ****     switch (query) {                                            /* Determine if query is supported.
 1268              	 .loc 1 1082 0
 1269 0038 1A23     	 mov r3,#26
 1270 003a FB18     	 add r3,r7,r3
 1271 003c 1B88     	 ldrh r3,[r3]
 1272 003e 774A     	 ldr r2,.L90
 1273 0040 9342     	 cmp r3,r2
 1274 0042 07DC     	 bgt .L76
 1275 0044 764A     	 ldr r2,.L90+4
 1276 0046 9342     	 cmp r3,r2
 1277 0048 12DA     	 bge .L89
 1278 004a 023B     	 sub r3,r3,#2
 1279 004c FF3B     	 sub r3,r3,#255
 1280 004e 012B     	 cmp r3,#1
 1281 0050 05D8     	 bhi .L75
1083:../Dave/Generated/UCPROBE/probe_com.c ****         case PROBE_COM_QUERY_MAX_RX_SIZE:
1084:../Dave/Generated/UCPROBE/probe_com.c ****         case PROBE_COM_QUERY_MAX_TX_SIZE:
1085:../Dave/Generated/UCPROBE/probe_com.c ****         case PROBE_COM_QUERY_FMT_SUPPORT:
1086:../Dave/Generated/UCPROBE/probe_com.c ****         case PROBE_COM_QUERY_ENDIANNESS_TEST:
1087:../Dave/Generated/UCPROBE/probe_com.c ****         case PROBE_COM_QUERY_STATUS:
1088:../Dave/Generated/UCPROBE/probe_com.c ****         case PROBE_COM_QUERY_VERSION:
1089:../Dave/Generated/UCPROBE/probe_com.c ****              break;
 1282              	 .loc 1 1089 0
 1283 0052 0DE0     	 b .L89
 1284              	.L76:
1082:../Dave/Generated/UCPROBE/probe_com.c ****         case PROBE_COM_QUERY_MAX_RX_SIZE:
 1285              	 .loc 1 1082 0
 1286 0054 734A     	 ldr r2,.L90+8
 1287 0056 9446     	 mov ip,r2
 1288 0058 6344     	 add r3,r3,ip
 1289 005a 012B     	 cmp r3,#1
 1290 005c 08D9     	 bls .L89
 1291              	.L75:
1090:../Dave/Generated/UCPROBE/probe_com.c **** 
1091:../Dave/Generated/UCPROBE/probe_com.c ****         default:
1092:../Dave/Generated/UCPROBE/probe_com.c ****              tx_len = ProbeCom_ReqErr(ptx_buf, PROBE_COM_STATUS_QUERY_NOT_SUPPORTED);
 1292              	 .loc 1 1092 0
 1293 005e BB68     	 ldr r3,[r7,#8]
 1294 0060 181C     	 mov r0,r3
 1295 0062 FC21     	 mov r1,#252
 1296 0064 FFF7FEFF 	 bl ProbeCom_ReqErr
 1297 0068 031C     	 mov r3,r0
 1298 006a FB61     	 str r3,[r7,#28]
1093:../Dave/Generated/UCPROBE/probe_com.c ****              return (tx_len);
 1299              	 .loc 1 1093 0
 1300 006c FB69     	 ldr r3,[r7,#28]
 1301 006e D0E0     	 b .L88
 1302              	.L89:
1089:../Dave/Generated/UCPROBE/probe_com.c **** 
 1303              	 .loc 1 1089 0
 1304 0070 C046     	 mov r8,r8
1094:../Dave/Generated/UCPROBE/probe_com.c ****     }
1095:../Dave/Generated/UCPROBE/probe_com.c **** 
1096:../Dave/Generated/UCPROBE/probe_com.c ****                                                                 /* Sto tx pkt hdr :                
1097:../Dave/Generated/UCPROBE/probe_com.c ****     ProbeCom_StoINT16U(&ptx_buf, PROBE_COM_FMT_TX_QUERY);       /*  (a) TX pkt fmt.                
 1305              	 .loc 1 1097 0
 1306 0072 0823     	 mov r3,#8
 1307 0074 FB18     	 add r3,r7,r3
 1308 0076 6C4A     	 ldr r2,.L90+12
 1309 0078 181C     	 mov r0,r3
 1310 007a 111C     	 mov r1,r2
 1311 007c FFF7FEFF 	 bl ProbeCom_StoINT16U
1098:../Dave/Generated/UCPROBE/probe_com.c ****     ProbeCom_StoINT08U(&ptx_buf, PROBE_COM_STATUS_OK);          /*  (b) Target status.             
 1312              	 .loc 1 1098 0
 1313 0080 0823     	 mov r3,#8
 1314 0082 FB18     	 add r3,r7,r3
 1315 0084 181C     	 mov r0,r3
 1316 0086 0121     	 mov r1,#1
 1317 0088 FFF7FEFF 	 bl ProbeCom_StoINT08U
1099:../Dave/Generated/UCPROBE/probe_com.c ****     ProbeCom_StoINT08U(&ptx_buf, ProbeCom_PktModifier());       /*  (c) Modifier.                  
 1318              	 .loc 1 1099 0
 1319 008c FFF7FEFF 	 bl ProbeCom_PktModifier
 1320 0090 031C     	 mov r3,r0
 1321 0092 1A1C     	 mov r2,r3
 1322 0094 0823     	 mov r3,#8
 1323 0096 FB18     	 add r3,r7,r3
 1324 0098 181C     	 mov r0,r3
 1325 009a 111C     	 mov r1,r2
 1326 009c FFF7FEFF 	 bl ProbeCom_StoINT08U
1100:../Dave/Generated/UCPROBE/probe_com.c **** 
1101:../Dave/Generated/UCPROBE/probe_com.c ****                                                                 /* Sto tx data segment data.       
1102:../Dave/Generated/UCPROBE/probe_com.c ****     switch (query) {
 1327              	 .loc 1 1102 0
 1328 00a0 1A23     	 mov r3,#26
 1329 00a2 FB18     	 add r3,r7,r3
 1330 00a4 1B88     	 ldrh r3,[r3]
 1331 00a6 5E4A     	 ldr r2,.L90+4
 1332 00a8 9342     	 cmp r3,r2
 1333 00aa 00D1     	 bne .LCB1099
 1334 00ac 80E0     	 b .L80
 1335              	.LCB1099:
 1336 00ae 5C4A     	 ldr r2,.L90+4
 1337 00b0 9342     	 cmp r3,r2
 1338 00b2 08DC     	 bgt .L81
 1339 00b4 0222     	 mov r2,#2
 1340 00b6 FF32     	 add r2,r2,#255
 1341 00b8 9342     	 cmp r3,r2
 1342 00ba 0FD0     	 beq .L82
 1343 00bc 8122     	 mov r2,#129
 1344 00be 5200     	 lsl r2,r2,#1
 1345 00c0 9342     	 cmp r3,r2
 1346 00c2 1CD0     	 beq .L83
 1347 00c4 9EE0     	 b .L79
 1348              	.L81:
 1349 00c6 594A     	 ldr r2,.L90+16
 1350 00c8 9342     	 cmp r3,r2
 1351 00ca 29D0     	 beq .L84
 1352 00cc 584A     	 ldr r2,.L90+20
 1353 00ce 9342     	 cmp r3,r2
 1354 00d0 00D1     	 bne .LCB1120
 1355 00d2 89E0     	 b .L85
 1356              	.LCB1120:
 1357 00d4 514A     	 ldr r2,.L90
 1358 00d6 9342     	 cmp r3,r2
 1359 00d8 77D0     	 beq .L86
 1360 00da 93E0     	 b .L79
 1361              	.L82:
1103:../Dave/Generated/UCPROBE/probe_com.c ****         case PROBE_COM_QUERY_MAX_RX_SIZE:
1104:../Dave/Generated/UCPROBE/probe_com.c ****              ProbeCom_StoINT16U(&ptx_buf, PROBE_COM_CFG_RX_MAX_SIZE);
 1362              	 .loc 1 1104 0
 1363 00dc 0823     	 mov r3,#8
 1364 00de FA18     	 add r2,r7,r3
 1365 00e0 8023     	 mov r3,#128
 1366 00e2 5B00     	 lsl r3,r3,#1
 1367 00e4 101C     	 mov r0,r2
 1368 00e6 191C     	 mov r1,r3
 1369 00e8 FFF7FEFF 	 bl ProbeCom_StoINT16U
1105:../Dave/Generated/UCPROBE/probe_com.c ****              ProbeCom_StoINT16U(&ptx_buf, 0);
 1370              	 .loc 1 1105 0
 1371 00ec 0823     	 mov r3,#8
 1372 00ee FB18     	 add r3,r7,r3
 1373 00f0 181C     	 mov r0,r3
 1374 00f2 0021     	 mov r1,#0
 1375 00f4 FFF7FEFF 	 bl ProbeCom_StoINT16U
1106:../Dave/Generated/UCPROBE/probe_com.c ****              tx_len  = 4u;
 1376              	 .loc 1 1106 0
 1377 00f8 0423     	 mov r3,#4
 1378 00fa FB61     	 str r3,[r7,#28]
1107:../Dave/Generated/UCPROBE/probe_com.c ****              break;
 1379              	 .loc 1 1107 0
 1380 00fc 85E0     	 b .L87
 1381              	.L83:
1108:../Dave/Generated/UCPROBE/probe_com.c **** 
1109:../Dave/Generated/UCPROBE/probe_com.c **** 
1110:../Dave/Generated/UCPROBE/probe_com.c ****         case PROBE_COM_QUERY_MAX_TX_SIZE:
1111:../Dave/Generated/UCPROBE/probe_com.c ****              ProbeCom_StoINT16U(&ptx_buf, PROBE_COM_CFG_TX_MAX_SIZE);
 1382              	 .loc 1 1111 0
 1383 00fe 0823     	 mov r3,#8
 1384 0100 FA18     	 add r2,r7,r3
 1385 0102 8023     	 mov r3,#128
 1386 0104 5B00     	 lsl r3,r3,#1
 1387 0106 101C     	 mov r0,r2
 1388 0108 191C     	 mov r1,r3
 1389 010a FFF7FEFF 	 bl ProbeCom_StoINT16U
1112:../Dave/Generated/UCPROBE/probe_com.c ****              ProbeCom_StoINT16U(&ptx_buf, 0);
 1390              	 .loc 1 1112 0
 1391 010e 0823     	 mov r3,#8
 1392 0110 FB18     	 add r3,r7,r3
 1393 0112 181C     	 mov r0,r3
 1394 0114 0021     	 mov r1,#0
 1395 0116 FFF7FEFF 	 bl ProbeCom_StoINT16U
1113:../Dave/Generated/UCPROBE/probe_com.c ****              tx_len  = 4u;
 1396              	 .loc 1 1113 0
 1397 011a 0423     	 mov r3,#4
 1398 011c FB61     	 str r3,[r7,#28]
1114:../Dave/Generated/UCPROBE/probe_com.c ****              break;
 1399              	 .loc 1 1114 0
 1400 011e 74E0     	 b .L87
 1401              	.L84:
1115:../Dave/Generated/UCPROBE/probe_com.c **** 
1116:../Dave/Generated/UCPROBE/probe_com.c **** 
1117:../Dave/Generated/UCPROBE/probe_com.c ****         case PROBE_COM_QUERY_FMT_SUPPORT:
1118:../Dave/Generated/UCPROBE/probe_com.c ****              ProbeCom_StoINT16U(&ptx_buf, PROBE_COM_FMT_RX_QUERY);
 1402              	 .loc 1 1118 0
 1403 0120 0823     	 mov r3,#8
 1404 0122 FB18     	 add r3,r7,r3
 1405 0124 181C     	 mov r0,r3
 1406 0126 0121     	 mov r1,#1
 1407 0128 FFF7FEFF 	 bl ProbeCom_StoINT16U
1119:../Dave/Generated/UCPROBE/probe_com.c ****              ProbeCom_StoINT16U(&ptx_buf, PROBE_COM_FMT_RX_RD);
 1408              	 .loc 1 1119 0
 1409 012c 0823     	 mov r3,#8
 1410 012e FB18     	 add r3,r7,r3
 1411 0130 181C     	 mov r0,r3
 1412 0132 0221     	 mov r1,#2
 1413 0134 FFF7FEFF 	 bl ProbeCom_StoINT16U
1120:../Dave/Generated/UCPROBE/probe_com.c ****              ProbeCom_StoINT16U(&ptx_buf, PROBE_COM_FMT_RX_RD_MULTI);
 1414              	 .loc 1 1120 0
 1415 0138 0823     	 mov r3,#8
 1416 013a FB18     	 add r3,r7,r3
 1417 013c 181C     	 mov r0,r3
 1418 013e 0721     	 mov r1,#7
 1419 0140 FFF7FEFF 	 bl ProbeCom_StoINT16U
1121:../Dave/Generated/UCPROBE/probe_com.c ****              tx_len  = 8u;
 1420              	 .loc 1 1121 0
 1421 0144 0823     	 mov r3,#8
 1422 0146 FB61     	 str r3,[r7,#28]
1122:../Dave/Generated/UCPROBE/probe_com.c **** #if (PROBE_COM_CFG_WR_REQ_EN == DEF_ENABLED)
1123:../Dave/Generated/UCPROBE/probe_com.c ****              ProbeCom_StoINT16U(&ptx_buf, PROBE_COM_FMT_RX_WR);
 1423              	 .loc 1 1123 0
 1424 0148 0823     	 mov r3,#8
 1425 014a FB18     	 add r3,r7,r3
 1426 014c 181C     	 mov r0,r3
 1427 014e 0321     	 mov r1,#3
 1428 0150 FFF7FEFF 	 bl ProbeCom_StoINT16U
1124:../Dave/Generated/UCPROBE/probe_com.c ****              ProbeCom_StoINT16U(&ptx_buf, PROBE_COM_FMT_RX_WR_MULTI);
 1429              	 .loc 1 1124 0
 1430 0154 0823     	 mov r3,#8
 1431 0156 FB18     	 add r3,r7,r3
 1432 0158 181C     	 mov r0,r3
 1433 015a 0821     	 mov r1,#8
 1434 015c FFF7FEFF 	 bl ProbeCom_StoINT16U
1125:../Dave/Generated/UCPROBE/probe_com.c ****              tx_len += 4u;
 1435              	 .loc 1 1125 0
 1436 0160 FB69     	 ldr r3,[r7,#28]
 1437 0162 0433     	 add r3,r3,#4
 1438 0164 FB61     	 str r3,[r7,#28]
1126:../Dave/Generated/UCPROBE/probe_com.c **** #endif
1127:../Dave/Generated/UCPROBE/probe_com.c **** #if (PROBE_COM_CFG_STR_REQ_EN == DEF_ENABLED)
1128:../Dave/Generated/UCPROBE/probe_com.c ****              ProbeCom_StoINT16U(&ptx_buf, PROBE_COM_FMT_RX_STR_IN);
 1439              	 .loc 1 1128 0
 1440 0166 0823     	 mov r3,#8
 1441 0168 FB18     	 add r3,r7,r3
 1442 016a 181C     	 mov r0,r3
 1443 016c 0A21     	 mov r1,#10
 1444 016e FFF7FEFF 	 bl ProbeCom_StoINT16U
1129:../Dave/Generated/UCPROBE/probe_com.c ****              ProbeCom_StoINT16U(&ptx_buf, PROBE_COM_FMT_RX_STR_OUT);
 1445              	 .loc 1 1129 0
 1446 0172 0823     	 mov r3,#8
 1447 0174 FB18     	 add r3,r7,r3
 1448 0176 181C     	 mov r0,r3
 1449 0178 0921     	 mov r1,#9
 1450 017a FFF7FEFF 	 bl ProbeCom_StoINT16U
1130:../Dave/Generated/UCPROBE/probe_com.c ****              tx_len += 4u;
 1451              	 .loc 1 1130 0
 1452 017e FB69     	 ldr r3,[r7,#28]
 1453 0180 0433     	 add r3,r3,#4
 1454 0182 FB61     	 str r3,[r7,#28]
1131:../Dave/Generated/UCPROBE/probe_com.c **** #endif
1132:../Dave/Generated/UCPROBE/probe_com.c **** #if (PROBE_COM_CFG_TERMINAL_REQ_EN == DEF_ENABLED)
1133:../Dave/Generated/UCPROBE/probe_com.c ****              ProbeCom_StoINT16U(&ptx_buf, PROBE_COM_FMT_RX_TERMINAL_EXEC);
 1455              	 .loc 1 1133 0
 1456 0184 0823     	 mov r3,#8
 1457 0186 FB18     	 add r3,r7,r3
 1458 0188 181C     	 mov r0,r3
 1459 018a 0B21     	 mov r1,#11
 1460 018c FFF7FEFF 	 bl ProbeCom_StoINT16U
1134:../Dave/Generated/UCPROBE/probe_com.c ****              ProbeCom_StoINT16U(&ptx_buf, PROBE_COM_FMT_RX_TERMINAL_IN);
 1461              	 .loc 1 1134 0
 1462 0190 0823     	 mov r3,#8
 1463 0192 FB18     	 add r3,r7,r3
 1464 0194 181C     	 mov r0,r3
 1465 0196 0D21     	 mov r1,#13
 1466 0198 FFF7FEFF 	 bl ProbeCom_StoINT16U
1135:../Dave/Generated/UCPROBE/probe_com.c ****              ProbeCom_StoINT16U(&ptx_buf, PROBE_COM_FMT_RX_TERMINAL_OUT);
 1467              	 .loc 1 1135 0
 1468 019c 0823     	 mov r3,#8
 1469 019e FB18     	 add r3,r7,r3
 1470 01a0 181C     	 mov r0,r3
 1471 01a2 0C21     	 mov r1,#12
 1472 01a4 FFF7FEFF 	 bl ProbeCom_StoINT16U
1136:../Dave/Generated/UCPROBE/probe_com.c ****              tx_len += 6u;
 1473              	 .loc 1 1136 0
 1474 01a8 FB69     	 ldr r3,[r7,#28]
 1475 01aa 0633     	 add r3,r3,#6
 1476 01ac FB61     	 str r3,[r7,#28]
1137:../Dave/Generated/UCPROBE/probe_com.c **** #endif
1138:../Dave/Generated/UCPROBE/probe_com.c ****              break;
 1477              	 .loc 1 1138 0
 1478 01ae 2CE0     	 b .L87
 1479              	.L80:
1139:../Dave/Generated/UCPROBE/probe_com.c **** 
1140:../Dave/Generated/UCPROBE/probe_com.c **** 
1141:../Dave/Generated/UCPROBE/probe_com.c ****         case PROBE_COM_QUERY_ENDIANNESS_TEST:
1142:../Dave/Generated/UCPROBE/probe_com.c ****              ProbeCom_EndiannessTest = 0x12345678;
 1480              	 .loc 1 1142 0
 1481 01b0 204B     	 ldr r3,.L90+24
 1482 01b2 214A     	 ldr r2,.L90+28
 1483 01b4 1A60     	 str r2,[r3]
1143:../Dave/Generated/UCPROBE/probe_com.c ****              Mem_Copy((void     *) ptx_buf,
 1484              	 .loc 1 1143 0
 1485 01b6 BA68     	 ldr r2,[r7,#8]
 1486 01b8 1E4B     	 ldr r3,.L90+24
 1487 01ba 101C     	 mov r0,r2
 1488 01bc 191C     	 mov r1,r3
 1489 01be 0422     	 mov r2,#4
 1490 01c0 FFF7FEFF 	 bl Mem_Copy
1144:../Dave/Generated/UCPROBE/probe_com.c ****                       (void     *)&ProbeCom_EndiannessTest,
1145:../Dave/Generated/UCPROBE/probe_com.c ****                       (CPU_SIZE_T) 4);
1146:../Dave/Generated/UCPROBE/probe_com.c ****              tx_len  = 4u;
 1491              	 .loc 1 1146 0
 1492 01c4 0423     	 mov r3,#4
 1493 01c6 FB61     	 str r3,[r7,#28]
1147:../Dave/Generated/UCPROBE/probe_com.c ****              break;
 1494              	 .loc 1 1147 0
 1495 01c8 1FE0     	 b .L87
 1496              	.L86:
1148:../Dave/Generated/UCPROBE/probe_com.c **** 
1149:../Dave/Generated/UCPROBE/probe_com.c **** 
1150:../Dave/Generated/UCPROBE/probe_com.c ****         case PROBE_COM_QUERY_STATUS:
1151:../Dave/Generated/UCPROBE/probe_com.c ****              status = (CPU_INT32U)ProbeCom_PktModifier();
 1497              	 .loc 1 1151 0
 1498 01ca FFF7FEFF 	 bl ProbeCom_PktModifier
 1499 01ce 031C     	 mov r3,r0
 1500 01d0 7B61     	 str r3,[r7,#20]
1152:../Dave/Generated/UCPROBE/probe_com.c ****              Mem_Copy((void     *) ptx_buf,
 1501              	 .loc 1 1152 0
 1502 01d2 BA68     	 ldr r2,[r7,#8]
 1503 01d4 1423     	 mov r3,#20
 1504 01d6 FB18     	 add r3,r7,r3
 1505 01d8 101C     	 mov r0,r2
 1506 01da 191C     	 mov r1,r3
 1507 01dc 0422     	 mov r2,#4
 1508 01de FFF7FEFF 	 bl Mem_Copy
1153:../Dave/Generated/UCPROBE/probe_com.c ****                       (void     *)&status,
1154:../Dave/Generated/UCPROBE/probe_com.c ****                       (CPU_SIZE_T) 4);
1155:../Dave/Generated/UCPROBE/probe_com.c ****              tx_len = 4u;
 1509              	 .loc 1 1155 0
 1510 01e2 0423     	 mov r3,#4
 1511 01e4 FB61     	 str r3,[r7,#28]
1156:../Dave/Generated/UCPROBE/probe_com.c ****              break;
 1512              	 .loc 1 1156 0
 1513 01e6 10E0     	 b .L87
 1514              	.L85:
1157:../Dave/Generated/UCPROBE/probe_com.c **** 
1158:../Dave/Generated/UCPROBE/probe_com.c **** 
1159:../Dave/Generated/UCPROBE/probe_com.c ****         case PROBE_COM_QUERY_VERSION:
1160:../Dave/Generated/UCPROBE/probe_com.c ****              version = PROBE_COM_VERSION;
 1515              	 .loc 1 1160 0
 1516 01e8 CD23     	 mov r3,#205
 1517 01ea 5B00     	 lsl r3,r3,#1
 1518 01ec 3B61     	 str r3,[r7,#16]
1161:../Dave/Generated/UCPROBE/probe_com.c ****              Mem_Copy((void     *) ptx_buf,
 1519              	 .loc 1 1161 0
 1520 01ee BA68     	 ldr r2,[r7,#8]
 1521 01f0 1023     	 mov r3,#16
 1522 01f2 FB18     	 add r3,r7,r3
 1523 01f4 101C     	 mov r0,r2
 1524 01f6 191C     	 mov r1,r3
 1525 01f8 0422     	 mov r2,#4
 1526 01fa FFF7FEFF 	 bl Mem_Copy
1162:../Dave/Generated/UCPROBE/probe_com.c ****                       (void     *)&version,
1163:../Dave/Generated/UCPROBE/probe_com.c ****                       (CPU_SIZE_T) 4);
1164:../Dave/Generated/UCPROBE/probe_com.c ****              tx_len  = 4u;
 1527              	 .loc 1 1164 0
 1528 01fe 0423     	 mov r3,#4
 1529 0200 FB61     	 str r3,[r7,#28]
1165:../Dave/Generated/UCPROBE/probe_com.c ****              break;
 1530              	 .loc 1 1165 0
 1531 0202 02E0     	 b .L87
 1532              	.L79:
1166:../Dave/Generated/UCPROBE/probe_com.c **** 
1167:../Dave/Generated/UCPROBE/probe_com.c **** 
1168:../Dave/Generated/UCPROBE/probe_com.c ****         default:
1169:../Dave/Generated/UCPROBE/probe_com.c ****              tx_len  = 0u;
 1533              	 .loc 1 1169 0
 1534 0204 0023     	 mov r3,#0
 1535 0206 FB61     	 str r3,[r7,#28]
1170:../Dave/Generated/UCPROBE/probe_com.c ****              break;
 1536              	 .loc 1 1170 0
 1537 0208 C046     	 mov r8,r8
 1538              	.L87:
1171:../Dave/Generated/UCPROBE/probe_com.c ****     }
1172:../Dave/Generated/UCPROBE/probe_com.c **** 
1173:../Dave/Generated/UCPROBE/probe_com.c ****                                                                 /* ------------------ RTN TX PKT SI
1174:../Dave/Generated/UCPROBE/probe_com.c ****     tx_len += PROBE_COM_SIZE_TX_HDR;
 1539              	 .loc 1 1174 0
 1540 020a FB69     	 ldr r3,[r7,#28]
 1541 020c 0433     	 add r3,r3,#4
 1542 020e FB61     	 str r3,[r7,#28]
1175:../Dave/Generated/UCPROBE/probe_com.c ****     return (tx_len);                                            /* TX pkt size = nbytes (= Tx data 
 1543              	 .loc 1 1175 0
 1544 0210 FB69     	 ldr r3,[r7,#28]
 1545              	.L88:
1176:../Dave/Generated/UCPROBE/probe_com.c ****                                                                 /*             + 4      (= Tx hdr  
1177:../Dave/Generated/UCPROBE/probe_com.c **** }
 1546              	 .loc 1 1177 0 discriminator 1
 1547 0212 181C     	 mov r0,r3
 1548 0214 BD46     	 mov sp,r7
 1549 0216 09B0     	 add sp,sp,#36
 1550              	 
 1551 0218 90BD     	 pop {r4,r7,pc}
 1552              	.L91:
 1553 021a C046     	 .align 2
 1554              	.L90:
 1555 021c 02020000 	 .word 514
 1556 0220 01020000 	 .word 513
 1557 0224 FFEFFFFF 	 .word -4097
 1558 0228 01800000 	 .word 32769
 1559 022c 01100000 	 .word 4097
 1560 0230 02100000 	 .word 4098
 1561 0234 00000000 	 .word ProbeCom_EndiannessTest
 1562 0238 78563412 	 .word 305419896
 1563              	 .cfi_endproc
 1564              	.LFE13:
 1566              	 .section .text.ProbeCom_ReqRd,"ax",%progbits
 1567              	 .align 2
 1568              	 .code 16
 1569              	 .thumb_func
 1571              	ProbeCom_ReqRd:
 1572              	.LFB14:
1178:../Dave/Generated/UCPROBE/probe_com.c **** 
1179:../Dave/Generated/UCPROBE/probe_com.c **** 
1180:../Dave/Generated/UCPROBE/probe_com.c **** /*
1181:../Dave/Generated/UCPROBE/probe_com.c **** ***************************************************************************************************
1182:../Dave/Generated/UCPROBE/probe_com.c **** *                                          ProbeCom_ReqRd()
1183:../Dave/Generated/UCPROBE/probe_com.c **** *
1184:../Dave/Generated/UCPROBE/probe_com.c **** * Description : Parse the FMT_RD request & formulate response.  This command causes the target to s
1185:../Dave/Generated/UCPROBE/probe_com.c **** *               data read from its memory for a certain {memory address, data length} pair (which i
1186:../Dave/Generated/UCPROBE/probe_com.c **** *               given in the request).
1187:../Dave/Generated/UCPROBE/probe_com.c **** *
1188:../Dave/Generated/UCPROBE/probe_com.c **** * Argument(s) : prx_buf         Pointer to the receive  buffer
1189:../Dave/Generated/UCPROBE/probe_com.c **** *
1190:../Dave/Generated/UCPROBE/probe_com.c **** *               ptx_buf         Pointer to the transmit buffer
1191:../Dave/Generated/UCPROBE/probe_com.c **** *
1192:../Dave/Generated/UCPROBE/probe_com.c **** *               rx_pkt_size     Size of the receive  packet
1193:../Dave/Generated/UCPROBE/probe_com.c **** *
1194:../Dave/Generated/UCPROBE/probe_com.c **** *               tx_buf_size     Size of the transmit buffer
1195:../Dave/Generated/UCPROBE/probe_com.c **** *
1196:../Dave/Generated/UCPROBE/probe_com.c **** * Return(s)   : The number of bytes written to the tx buffer.
1197:../Dave/Generated/UCPROBE/probe_com.c **** *
1198:../Dave/Generated/UCPROBE/probe_com.c **** * Caller(s)   : ProbeCom_ParseRxPkt().
1199:../Dave/Generated/UCPROBE/probe_com.c **** *
1200:../Dave/Generated/UCPROBE/probe_com.c **** * Note(s)     : (1) The RX format:
1201:../Dave/Generated/UCPROBE/probe_com.c **** *
1202:../Dave/Generated/UCPROBE/probe_com.c **** *                   (A) A 2-byte format , indicating the data segment format;
1203:../Dave/Generated/UCPROBE/probe_com.c **** *                   (B) A 2-byte length , indicating the number of bytes to read;
1204:../Dave/Generated/UCPROBE/probe_com.c **** *                   (C) A 4-byte address, the starting address of the data to read.
1205:../Dave/Generated/UCPROBE/probe_com.c **** *
1206:../Dave/Generated/UCPROBE/probe_com.c **** *                         +-------------------------+-------------------------+
1207:../Dave/Generated/UCPROBE/probe_com.c **** *                         |          Format         |     Number of bytes     |
1208:../Dave/Generated/UCPROBE/probe_com.c **** *                         +-------------------------+-------------------------+
1209:../Dave/Generated/UCPROBE/probe_com.c **** *                         |                      Address                      |
1210:../Dave/Generated/UCPROBE/probe_com.c **** *                         +-------------------------+-------------------------+
1211:../Dave/Generated/UCPROBE/probe_com.c **** *
1212:../Dave/Generated/UCPROBE/probe_com.c **** *               (2) The TX format:
1213:../Dave/Generated/UCPROBE/probe_com.c **** *
1214:../Dave/Generated/UCPROBE/probe_com.c **** *                   (A) A 2-byte format, indicating the data segment format;
1215:../Dave/Generated/UCPROBE/probe_com.c **** *                   (B) A 1-byte status, indicating the status after the request;
1216:../Dave/Generated/UCPROBE/probe_com.c **** *                   (C) A 1-byte modifier;
1217:../Dave/Generated/UCPROBE/probe_com.c **** *                   (D) The memory data.
1218:../Dave/Generated/UCPROBE/probe_com.c **** *
1219:../Dave/Generated/UCPROBE/probe_com.c **** *                         +-------------------------+------------+------------+
1220:../Dave/Generated/UCPROBE/probe_com.c **** *                         |          Format         |   Status   |  Modifier  |
1221:../Dave/Generated/UCPROBE/probe_com.c **** *                         +-------------------------+------------+------------+
1222:../Dave/Generated/UCPROBE/probe_com.c **** *                         |                        Data                       |
1223:../Dave/Generated/UCPROBE/probe_com.c **** *                         |                         .                         |
1224:../Dave/Generated/UCPROBE/probe_com.c **** *                         |                         .                         |
1225:../Dave/Generated/UCPROBE/probe_com.c **** *                         |                         .                         |
1226:../Dave/Generated/UCPROBE/probe_com.c **** *                         +---------------------------------------------------+
1227:../Dave/Generated/UCPROBE/probe_com.c **** *
1228:../Dave/Generated/UCPROBE/probe_com.c **** ***************************************************************************************************
1229:../Dave/Generated/UCPROBE/probe_com.c **** */
1230:../Dave/Generated/UCPROBE/probe_com.c **** 
1231:../Dave/Generated/UCPROBE/probe_com.c **** static  CPU_SIZE_T  ProbeCom_ReqRd (CPU_INT08U  *prx_buf,
1232:../Dave/Generated/UCPROBE/probe_com.c ****                                     CPU_INT08U  *ptx_buf,
1233:../Dave/Generated/UCPROBE/probe_com.c ****                                     CPU_SIZE_T   rx_pkt_size,
1234:../Dave/Generated/UCPROBE/probe_com.c ****                                     CPU_SIZE_T   tx_buf_size)
1235:../Dave/Generated/UCPROBE/probe_com.c **** {
 1573              	 .loc 1 1235 0
 1574              	 .cfi_startproc
 1575 0000 80B5     	 push {r7,lr}
 1576              	.LCFI42:
 1577              	 .cfi_def_cfa_offset 8
 1578              	 .cfi_offset 7,-8
 1579              	 .cfi_offset 14,-4
 1580 0002 88B0     	 sub sp,sp,#32
 1581              	.LCFI43:
 1582              	 .cfi_def_cfa_offset 40
 1583 0004 00AF     	 add r7,sp,#0
 1584              	.LCFI44:
 1585              	 .cfi_def_cfa_register 7
 1586 0006 F860     	 str r0,[r7,#12]
 1587 0008 B960     	 str r1,[r7,#8]
 1588 000a 7A60     	 str r2,[r7,#4]
 1589 000c 3B60     	 str r3,[r7]
1236:../Dave/Generated/UCPROBE/probe_com.c ****     CPU_ADDR    sym_addr;
1237:../Dave/Generated/UCPROBE/probe_com.c ****     CPU_SIZE_T  sym_size;
1238:../Dave/Generated/UCPROBE/probe_com.c ****     CPU_SIZE_T  tx_len;
1239:../Dave/Generated/UCPROBE/probe_com.c **** 
1240:../Dave/Generated/UCPROBE/probe_com.c **** 
1241:../Dave/Generated/UCPROBE/probe_com.c ****                                                                 /* ------------------- CHK PKT SIZE
1242:../Dave/Generated/UCPROBE/probe_com.c ****                                                                 /* Expected size = 2 (= Rx hdr size
1243:../Dave/Generated/UCPROBE/probe_com.c ****                                                                 /*               + 2 (= Sym size   
1244:../Dave/Generated/UCPROBE/probe_com.c ****                                                                 /*               + 4 (= Sym addr   
1245:../Dave/Generated/UCPROBE/probe_com.c ****     if (rx_pkt_size != 8u) {
 1590              	 .loc 1 1245 0
 1591 000e 7B68     	 ldr r3,[r7,#4]
 1592 0010 082B     	 cmp r3,#8
 1593 0012 08D0     	 beq .L93
1246:../Dave/Generated/UCPROBE/probe_com.c ****         tx_len = ProbeCom_ReqErr(ptx_buf, PROBE_COM_STATUS_RX_PKT_WRONG_SIZE);
 1594              	 .loc 1 1246 0
 1595 0014 BB68     	 ldr r3,[r7,#8]
 1596 0016 181C     	 mov r0,r3
 1597 0018 FE21     	 mov r1,#254
 1598 001a FFF7FEFF 	 bl ProbeCom_ReqErr
 1599 001e 031C     	 mov r3,r0
 1600 0020 FB61     	 str r3,[r7,#28]
1247:../Dave/Generated/UCPROBE/probe_com.c ****         return (tx_len);
 1601              	 .loc 1 1247 0
 1602 0022 FB69     	 ldr r3,[r7,#28]
 1603 0024 49E0     	 b .L94
 1604              	.L93:
1248:../Dave/Generated/UCPROBE/probe_com.c ****     }
1249:../Dave/Generated/UCPROBE/probe_com.c **** 
1250:../Dave/Generated/UCPROBE/probe_com.c **** 
1251:../Dave/Generated/UCPROBE/probe_com.c ****                                                                 /* -------------------- HANDLE RD -
1252:../Dave/Generated/UCPROBE/probe_com.c ****     sym_size = ProbeCom_GetINT16U(&prx_buf);                    /* Get nbr of bytes to rd.         
 1605              	 .loc 1 1252 0
 1606 0026 0C23     	 mov r3,#12
 1607 0028 FB18     	 add r3,r7,r3
 1608 002a 181C     	 mov r0,r3
 1609 002c FFF7FEFF 	 bl ProbeCom_GetINT16U
 1610 0030 031C     	 mov r3,r0
 1611 0032 BB61     	 str r3,[r7,#24]
1253:../Dave/Generated/UCPROBE/probe_com.c **** 
1254:../Dave/Generated/UCPROBE/probe_com.c ****                                                                 /* Get rd addr.                    
1255:../Dave/Generated/UCPROBE/probe_com.c **** #if ((!defined(CPU_CFG_ADDR_SIZE)) || \
1256:../Dave/Generated/UCPROBE/probe_com.c ****      ((defined(CPU_CFG_ADDR_SIZE)) && \
1257:../Dave/Generated/UCPROBE/probe_com.c ****               (CPU_CFG_ADDR_SIZE   != CPU_WORD_SIZE_16)))
1258:../Dave/Generated/UCPROBE/probe_com.c ****     sym_addr = (CPU_ADDR)ProbeCom_GetINT32U(&prx_buf);
 1612              	 .loc 1 1258 0
 1613 0034 0C23     	 mov r3,#12
 1614 0036 FB18     	 add r3,r7,r3
 1615 0038 181C     	 mov r0,r3
 1616 003a FFF7FEFF 	 bl ProbeCom_GetINT32U
 1617 003e 031C     	 mov r3,r0
 1618 0040 7B61     	 str r3,[r7,#20]
1259:../Dave/Generated/UCPROBE/probe_com.c **** #else
1260:../Dave/Generated/UCPROBE/probe_com.c ****     sym_addr = (CPU_ADDR)ProbeCom_GetINT16U(&prx_buf);
1261:../Dave/Generated/UCPROBE/probe_com.c **** #endif
1262:../Dave/Generated/UCPROBE/probe_com.c **** 
1263:../Dave/Generated/UCPROBE/probe_com.c ****     if (sym_size + PROBE_COM_SIZE_TX_HDR > tx_buf_size) {       /* If tx pkt will NOT fit in buf, r
 1619              	 .loc 1 1263 0
 1620 0042 BB69     	 ldr r3,[r7,#24]
 1621 0044 1A1D     	 add r2,r3,#4
 1622 0046 3B68     	 ldr r3,[r7]
 1623 0048 9A42     	 cmp r2,r3
 1624 004a 08D9     	 bls .L95
1264:../Dave/Generated/UCPROBE/probe_com.c ****         tx_len = ProbeCom_ReqErr(ptx_buf, PROBE_COM_STATUS_TX_PKT_TOO_LARGE);
 1625              	 .loc 1 1264 0
 1626 004c BB68     	 ldr r3,[r7,#8]
 1627 004e 181C     	 mov r0,r3
 1628 0050 FD21     	 mov r1,#253
 1629 0052 FFF7FEFF 	 bl ProbeCom_ReqErr
 1630 0056 031C     	 mov r3,r0
 1631 0058 FB61     	 str r3,[r7,#28]
1265:../Dave/Generated/UCPROBE/probe_com.c ****         return (tx_len);
 1632              	 .loc 1 1265 0
 1633 005a FB69     	 ldr r3,[r7,#28]
 1634 005c 2DE0     	 b .L94
 1635              	.L95:
1266:../Dave/Generated/UCPROBE/probe_com.c ****     }
1267:../Dave/Generated/UCPROBE/probe_com.c **** 
1268:../Dave/Generated/UCPROBE/probe_com.c **** #if (PROBE_COM_CFG_STAT_EN == DEF_ENABLED)
1269:../Dave/Generated/UCPROBE/probe_com.c ****     ProbeCom_TxSymCtr++;                                        /* Inc tx sym ctr.                 
 1636              	 .loc 1 1269 0
 1637 005e 194B     	 ldr r3,.L96
 1638 0060 1B68     	 ldr r3,[r3]
 1639 0062 5A1C     	 add r2,r3,#1
 1640 0064 174B     	 ldr r3,.L96
 1641 0066 1A60     	 str r2,[r3]
1270:../Dave/Generated/UCPROBE/probe_com.c ****     ProbeCom_TxSymByteCtr += sym_size;
 1642              	 .loc 1 1270 0
 1643 0068 174B     	 ldr r3,.L96+4
 1644 006a 1A68     	 ldr r2,[r3]
 1645 006c BB69     	 ldr r3,[r7,#24]
 1646 006e D218     	 add r2,r2,r3
 1647 0070 154B     	 ldr r3,.L96+4
 1648 0072 1A60     	 str r2,[r3]
1271:../Dave/Generated/UCPROBE/probe_com.c **** #endif
1272:../Dave/Generated/UCPROBE/probe_com.c **** 
1273:../Dave/Generated/UCPROBE/probe_com.c ****                                                                 /* Store tx pkt hdr :              
1274:../Dave/Generated/UCPROBE/probe_com.c ****     ProbeCom_StoINT16U(&ptx_buf, PROBE_COM_FMT_TX_RD);          /*  (a) Tx pkt fmt.                
 1649              	 .loc 1 1274 0
 1650 0074 0823     	 mov r3,#8
 1651 0076 FB18     	 add r3,r7,r3
 1652 0078 144A     	 ldr r2,.L96+8
 1653 007a 181C     	 mov r0,r3
 1654 007c 111C     	 mov r1,r2
 1655 007e FFF7FEFF 	 bl ProbeCom_StoINT16U
1275:../Dave/Generated/UCPROBE/probe_com.c ****     ProbeCom_StoINT08U(&ptx_buf, PROBE_COM_STATUS_OK);          /*  (b) Target status.             
 1656              	 .loc 1 1275 0
 1657 0082 0823     	 mov r3,#8
 1658 0084 FB18     	 add r3,r7,r3
 1659 0086 181C     	 mov r0,r3
 1660 0088 0121     	 mov r1,#1
 1661 008a FFF7FEFF 	 bl ProbeCom_StoINT08U
1276:../Dave/Generated/UCPROBE/probe_com.c ****     ProbeCom_StoINT08U(&ptx_buf, ProbeCom_PktModifier());       /*  (c) Modifier.                  
 1662              	 .loc 1 1276 0
 1663 008e FFF7FEFF 	 bl ProbeCom_PktModifier
 1664 0092 031C     	 mov r3,r0
 1665 0094 1A1C     	 mov r2,r3
 1666 0096 0823     	 mov r3,#8
 1667 0098 FB18     	 add r3,r7,r3
 1668 009a 181C     	 mov r0,r3
 1669 009c 111C     	 mov r1,r2
 1670 009e FFF7FEFF 	 bl ProbeCom_StoINT08U
1277:../Dave/Generated/UCPROBE/probe_com.c **** 
1278:../Dave/Generated/UCPROBE/probe_com.c ****     Mem_Copy((void     *)ptx_buf,                               /* Save tx data segment data.      
 1671              	 .loc 1 1278 0
 1672 00a2 B968     	 ldr r1,[r7,#8]
 1673 00a4 7A69     	 ldr r2,[r7,#20]
 1674 00a6 BB69     	 ldr r3,[r7,#24]
 1675 00a8 081C     	 mov r0,r1
 1676 00aa 111C     	 mov r1,r2
 1677 00ac 1A1C     	 mov r2,r3
 1678 00ae FFF7FEFF 	 bl Mem_Copy
1279:../Dave/Generated/UCPROBE/probe_com.c ****              (void     *)sym_addr,
1280:../Dave/Generated/UCPROBE/probe_com.c ****              (CPU_SIZE_T)sym_size);
1281:../Dave/Generated/UCPROBE/probe_com.c **** 
1282:../Dave/Generated/UCPROBE/probe_com.c ****                                                                 /* ------------------ RTN TX PKT SI
1283:../Dave/Generated/UCPROBE/probe_com.c ****     tx_len = sym_size + PROBE_COM_SIZE_TX_HDR;
 1679              	 .loc 1 1283 0
 1680 00b2 BB69     	 ldr r3,[r7,#24]
 1681 00b4 0433     	 add r3,r3,#4
 1682 00b6 FB61     	 str r3,[r7,#28]
1284:../Dave/Generated/UCPROBE/probe_com.c ****     return (tx_len);                                            /* Tx pkt size = nbytes (= Tx data 
 1683              	 .loc 1 1284 0
 1684 00b8 FB69     	 ldr r3,[r7,#28]
 1685              	.L94:
1285:../Dave/Generated/UCPROBE/probe_com.c ****                                                                 /*             + 4      (= Tx heade
1286:../Dave/Generated/UCPROBE/probe_com.c **** }
 1686              	 .loc 1 1286 0
 1687 00ba 181C     	 mov r0,r3
 1688 00bc BD46     	 mov sp,r7
 1689 00be 08B0     	 add sp,sp,#32
 1690              	 
 1691 00c0 80BD     	 pop {r7,pc}
 1692              	.L97:
 1693 00c2 C046     	 .align 2
 1694              	.L96:
 1695 00c4 00000000 	 .word ProbeCom_TxSymCtr
 1696 00c8 00000000 	 .word ProbeCom_TxSymByteCtr
 1697 00cc 02800000 	 .word 32770
 1698              	 .cfi_endproc
 1699              	.LFE14:
 1701              	 .section .text.ProbeCom_ReqRdMulti,"ax",%progbits
 1702              	 .align 2
 1703              	 .code 16
 1704              	 .thumb_func
 1706              	ProbeCom_ReqRdMulti:
 1707              	.LFB15:
1287:../Dave/Generated/UCPROBE/probe_com.c **** 
1288:../Dave/Generated/UCPROBE/probe_com.c **** 
1289:../Dave/Generated/UCPROBE/probe_com.c **** /*
1290:../Dave/Generated/UCPROBE/probe_com.c **** ***************************************************************************************************
1291:../Dave/Generated/UCPROBE/probe_com.c **** *                                        ProbeCom_ReqRdMulti()
1292:../Dave/Generated/UCPROBE/probe_com.c **** *
1293:../Dave/Generated/UCPROBE/probe_com.c **** * Description : Parse the FMT_RD_MULTI request & formulate respnse.  This command causes the target
1294:../Dave/Generated/UCPROBE/probe_com.c **** *               send data read from its memory for a certain set of {memory address, data length} p
1295:../Dave/Generated/UCPROBE/probe_com.c **** *               (which are given in the request).
1296:../Dave/Generated/UCPROBE/probe_com.c **** *
1297:../Dave/Generated/UCPROBE/probe_com.c **** * Argument(s) : prx_buf         Pointer to the receive  buffer
1298:../Dave/Generated/UCPROBE/probe_com.c **** *
1299:../Dave/Generated/UCPROBE/probe_com.c **** *               ptx_buf         Pointer to the transmit buffer
1300:../Dave/Generated/UCPROBE/probe_com.c **** *
1301:../Dave/Generated/UCPROBE/probe_com.c **** *               rx_pkt_size     Size of the receive  packet
1302:../Dave/Generated/UCPROBE/probe_com.c **** *
1303:../Dave/Generated/UCPROBE/probe_com.c **** *               tx_buf_size     Size of the transmit buffer
1304:../Dave/Generated/UCPROBE/probe_com.c **** *
1305:../Dave/Generated/UCPROBE/probe_com.c **** * Return(s)   : The number of bytes written to the tx buffer.
1306:../Dave/Generated/UCPROBE/probe_com.c **** *
1307:../Dave/Generated/UCPROBE/probe_com.c **** * Caller(s)   : ProbeCom_ParseRxPkt().
1308:../Dave/Generated/UCPROBE/probe_com.c **** *
1309:../Dave/Generated/UCPROBE/probe_com.c **** * Note(s)     : (1) The RX format:
1310:../Dave/Generated/UCPROBE/probe_com.c **** *
1311:../Dave/Generated/UCPROBE/probe_com.c **** *                   (A) A 2-byte format,          indicating the data segment format;
1312:../Dave/Generated/UCPROBE/probe_com.c **** *                   (B) A 5-byte item descriptor, for each item in the list, consisting of:
1313:../Dave/Generated/UCPROBE/probe_com.c **** *
1314:../Dave/Generated/UCPROBE/probe_com.c **** *                       (1) A 4-byte address, the starting address of the data to read;
1315:../Dave/Generated/UCPROBE/probe_com.c **** *                       (2) A 1-byte length,  indicating the number of bytes to read.
1316:../Dave/Generated/UCPROBE/probe_com.c **** *
1317:../Dave/Generated/UCPROBE/probe_com.c **** *                         +-------------------------+------------+------------+
1318:../Dave/Generated/UCPROBE/probe_com.c **** *                         |          Format         | Num. bytes |         Addr       ---
1319:../Dave/Generated/UCPROBE/probe_com.c **** *                         +-------------------------+------------+------------+        |    Item 1
1320:../Dave/Generated/UCPROBE/probe_com.c **** *                         ress                                   | Num. bytes |       ---
1321:../Dave/Generated/UCPROBE/probe_com.c **** *                         +--------------------------------------+------------+        |
1322:../Dave/Generated/UCPROBE/probe_com.c **** *                         |                      Address                      |        |    Item 2
1323:../Dave/Generated/UCPROBE/probe_com.c **** *                         +------------+--------------------------------------+       ---
1324:../Dave/Generated/UCPROBE/probe_com.c **** *                         | Num. bytes |                                   Addr        |    Item 3
1325:../Dave/Generated/UCPROBE/probe_com.c **** *                         +------------+--------------------------------------+        .
1326:../Dave/Generated/UCPROBE/probe_com.c **** *                         |                         .                         |        .
1327:../Dave/Generated/UCPROBE/probe_com.c **** *                         |                         .                         |        .
1328:../Dave/Generated/UCPROBE/probe_com.c **** *                         |                         .                         |        .
1329:../Dave/Generated/UCPROBE/probe_com.c **** *                         |                         .                         |        .
1330:../Dave/Generated/UCPROBE/probe_com.c **** *                         +--------------------------------------+------------+        .
1331:../Dave/Generated/UCPROBE/probe_com.c **** *                         ress                                   | Num. bytes |       ---
1332:../Dave/Generated/UCPROBE/probe_com.c **** *                         ---------------------------------------+------------+        |   Item n
1333:../Dave/Generated/UCPROBE/probe_com.c **** *                         |                      Address                      |        |
1334:../Dave/Generated/UCPROBE/probe_com.c **** *                         +---------------------------------------------------+       ---
1335:../Dave/Generated/UCPROBE/probe_com.c **** *
1336:../Dave/Generated/UCPROBE/probe_com.c **** *               (2) The TX format:
1337:../Dave/Generated/UCPROBE/probe_com.c **** *
1338:../Dave/Generated/UCPROBE/probe_com.c **** *                   (A) A 2-byte format, indicating the data segment format;
1339:../Dave/Generated/UCPROBE/probe_com.c **** *                   (B) A 1-byte status, indicating the status after the request;
1340:../Dave/Generated/UCPROBE/probe_com.c **** *                   (C) A 1-byte modifier;
1341:../Dave/Generated/UCPROBE/probe_com.c **** *                   (D) For each item, the following is sent:
1342:../Dave/Generated/UCPROBE/probe_com.c **** *
1343:../Dave/Generated/UCPROBE/probe_com.c **** *                       (1) The memory data.
1344:../Dave/Generated/UCPROBE/probe_com.c **** *
1345:../Dave/Generated/UCPROBE/probe_com.c **** *                         +-------------------------+------------+------------+
1346:../Dave/Generated/UCPROBE/probe_com.c **** *                         |          Format         |   Status   |  Modifier  |
1347:../Dave/Generated/UCPROBE/probe_com.c **** *                         +-------------------------+------------+------------+       ---
1348:../Dave/Generated/UCPROBE/probe_com.c **** *                         |                        Data                       |        |    Item 1
1349:../Dave/Generated/UCPROBE/probe_com.c **** *                         |                         .                         |        |
1350:../Dave/Generated/UCPROBE/probe_com.c **** *                         |                         .                         |        |
1351:../Dave/Generated/UCPROBE/probe_com.c **** *                         |                         .                         |        |
1352:../Dave/Generated/UCPROBE/probe_com.c **** *                         +---------------------------------------------------+       ---
1353:../Dave/Generated/UCPROBE/probe_com.c **** *                         |                         .                         |        .
1354:../Dave/Generated/UCPROBE/probe_com.c **** *                         |                         .                         |        .
1355:../Dave/Generated/UCPROBE/probe_com.c **** *                         |                         .                         |        .
1356:../Dave/Generated/UCPROBE/probe_com.c **** *                         |                         .                         |        .
1357:../Dave/Generated/UCPROBE/probe_com.c **** *                         |                         .                         |        .
1358:../Dave/Generated/UCPROBE/probe_com.c **** *                         +---------------------------------------------------+       ---
1359:../Dave/Generated/UCPROBE/probe_com.c **** *                         |                        Data                       |        |    Item n
1360:../Dave/Generated/UCPROBE/probe_com.c **** *                         |                         .                         |        |
1361:../Dave/Generated/UCPROBE/probe_com.c **** *                         |                         .                         |        |
1362:../Dave/Generated/UCPROBE/probe_com.c **** *                         |                         .                         |        |
1363:../Dave/Generated/UCPROBE/probe_com.c **** *                         +---------------------------------------------------+       ---
1364:../Dave/Generated/UCPROBE/probe_com.c **** *
1365:../Dave/Generated/UCPROBE/probe_com.c **** ***************************************************************************************************
1366:../Dave/Generated/UCPROBE/probe_com.c **** */
1367:../Dave/Generated/UCPROBE/probe_com.c **** 
1368:../Dave/Generated/UCPROBE/probe_com.c **** static  CPU_SIZE_T  ProbeCom_ReqRdMulti (CPU_INT08U  *prx_buf,
1369:../Dave/Generated/UCPROBE/probe_com.c ****                                          CPU_INT08U  *ptx_buf,
1370:../Dave/Generated/UCPROBE/probe_com.c ****                                          CPU_SIZE_T   rx_pkt_size,
1371:../Dave/Generated/UCPROBE/probe_com.c ****                                          CPU_SIZE_T   tx_buf_size)
1372:../Dave/Generated/UCPROBE/probe_com.c **** {
 1708              	 .loc 1 1372 0
 1709              	 .cfi_startproc
 1710 0000 90B5     	 push {r4,r7,lr}
 1711              	.LCFI45:
 1712              	 .cfi_def_cfa_offset 12
 1713              	 .cfi_offset 4,-12
 1714              	 .cfi_offset 7,-8
 1715              	 .cfi_offset 14,-4
 1716 0002 8DB0     	 sub sp,sp,#52
 1717              	.LCFI46:
 1718              	 .cfi_def_cfa_offset 64
 1719 0004 00AF     	 add r7,sp,#0
 1720              	.LCFI47:
 1721              	 .cfi_def_cfa_register 7
 1722 0006 F860     	 str r0,[r7,#12]
 1723 0008 B960     	 str r1,[r7,#8]
 1724 000a 7A60     	 str r2,[r7,#4]
 1725 000c 3B60     	 str r3,[r7]
1373:../Dave/Generated/UCPROBE/probe_com.c ****     CPU_SIZE_T   rx_pkt_ix;
1374:../Dave/Generated/UCPROBE/probe_com.c **** #if (PROBE_COM_CFG_STAT_EN == DEF_ENABLED)
1375:../Dave/Generated/UCPROBE/probe_com.c ****     CPU_INT32U   sym_byte_ctr;
1376:../Dave/Generated/UCPROBE/probe_com.c ****     CPU_INT32U   sym_ctr;
1377:../Dave/Generated/UCPROBE/probe_com.c **** #endif
1378:../Dave/Generated/UCPROBE/probe_com.c ****     CPU_ADDR     sym_addr;
1379:../Dave/Generated/UCPROBE/probe_com.c ****     CPU_SIZE_T   sym_size;
1380:../Dave/Generated/UCPROBE/probe_com.c ****     CPU_SIZE_T   tx_len;
1381:../Dave/Generated/UCPROBE/probe_com.c ****     CPU_INT08U  *ptx_buf_start;
1382:../Dave/Generated/UCPROBE/probe_com.c **** 
1383:../Dave/Generated/UCPROBE/probe_com.c **** 
1384:../Dave/Generated/UCPROBE/probe_com.c ****                                                                 /* ------------------- CHK PKT SIZE
1385:../Dave/Generated/UCPROBE/probe_com.c ****                                                                 /* Expected size >= 2 (= Rx hdr siz
1386:../Dave/Generated/UCPROBE/probe_com.c ****                                                                 /*                + 5 (= 1 item des
1387:../Dave/Generated/UCPROBE/probe_com.c ****     if (rx_pkt_size  < 7u) {
 1726              	 .loc 1 1387 0
 1727 000e 7B68     	 ldr r3,[r7,#4]
 1728 0010 062B     	 cmp r3,#6
 1729 0012 08D8     	 bhi .L99
1388:../Dave/Generated/UCPROBE/probe_com.c ****         tx_len = ProbeCom_ReqErr(ptx_buf, PROBE_COM_STATUS_RX_PKT_WRONG_SIZE);
 1730              	 .loc 1 1388 0
 1731 0014 BB68     	 ldr r3,[r7,#8]
 1732 0016 181C     	 mov r0,r3
 1733 0018 FE21     	 mov r1,#254
 1734 001a FFF7FEFF 	 bl ProbeCom_ReqErr
 1735 001e 031C     	 mov r3,r0
 1736 0020 3B62     	 str r3,[r7,#32]
1389:../Dave/Generated/UCPROBE/probe_com.c ****         return (tx_len);
 1737              	 .loc 1 1389 0
 1738 0022 3B6A     	 ldr r3,[r7,#32]
 1739 0024 75E0     	 b .L100
 1740              	.L99:
1390:../Dave/Generated/UCPROBE/probe_com.c ****     }
1391:../Dave/Generated/UCPROBE/probe_com.c **** 
1392:../Dave/Generated/UCPROBE/probe_com.c ****                                                                 /* -------------------- HANDLE RD -
1393:../Dave/Generated/UCPROBE/probe_com.c ****     ptx_buf_start = ptx_buf;                                    /* Save ptr to tx buf in case pkt i
 1741              	 .loc 1 1393 0
 1742 0026 BB68     	 ldr r3,[r7,#8]
 1743 0028 FB61     	 str r3,[r7,#28]
1394:../Dave/Generated/UCPROBE/probe_com.c ****     tx_len        = PROBE_COM_SIZE_TX_HDR;                      /* Init tx pkt len = 4 = size of hd
 1744              	 .loc 1 1394 0
 1745 002a 0423     	 mov r3,#4
 1746 002c 3B62     	 str r3,[r7,#32]
1395:../Dave/Generated/UCPROBE/probe_com.c **** 
1396:../Dave/Generated/UCPROBE/probe_com.c ****                                                                 /* Store TX pkt hdr :              
1397:../Dave/Generated/UCPROBE/probe_com.c ****     ptx_buf[0]    = PROBE_COM_FMT_TX_RD_MULTI_LO;               /* (a) TX pkt fmt.                 
 1747              	 .loc 1 1397 0
 1748 002e BB68     	 ldr r3,[r7,#8]
 1749 0030 0722     	 mov r2,#7
 1750 0032 1A70     	 strb r2,[r3]
1398:../Dave/Generated/UCPROBE/probe_com.c ****     ptx_buf[1]    = PROBE_COM_FMT_TX_RD_MULTI_HI;
 1751              	 .loc 1 1398 0
 1752 0034 BB68     	 ldr r3,[r7,#8]
 1753 0036 0133     	 add r3,r3,#1
 1754 0038 8022     	 mov r2,#128
 1755 003a 1A70     	 strb r2,[r3]
1399:../Dave/Generated/UCPROBE/probe_com.c ****     ptx_buf[2]    = PROBE_COM_STATUS_OK;                        /* (b) Target status.              
 1756              	 .loc 1 1399 0
 1757 003c BB68     	 ldr r3,[r7,#8]
 1758 003e 0233     	 add r3,r3,#2
 1759 0040 0122     	 mov r2,#1
 1760 0042 1A70     	 strb r2,[r3]
1400:../Dave/Generated/UCPROBE/probe_com.c ****     ptx_buf[3]    = ProbeCom_PktModifier();                     /* (c) Modifier.                   
 1761              	 .loc 1 1400 0
 1762 0044 BB68     	 ldr r3,[r7,#8]
 1763 0046 DC1C     	 add r4,r3,#3
 1764 0048 FFF7FEFF 	 bl ProbeCom_PktModifier
 1765 004c 031C     	 mov r3,r0
 1766 004e 2370     	 strb r3,[r4]
1401:../Dave/Generated/UCPROBE/probe_com.c ****     ptx_buf      += PROBE_COM_SIZE_TX_HDR;
 1767              	 .loc 1 1401 0
 1768 0050 BB68     	 ldr r3,[r7,#8]
 1769 0052 0433     	 add r3,r3,#4
 1770 0054 BB60     	 str r3,[r7,#8]
1402:../Dave/Generated/UCPROBE/probe_com.c **** 
1403:../Dave/Generated/UCPROBE/probe_com.c ****     rx_pkt_ix     = 7u;                                         /* Tx pkt ix after 1st item = 2 (= 
 1771              	 .loc 1 1403 0
 1772 0056 0723     	 mov r3,#7
 1773 0058 FB62     	 str r3,[r7,#44]
1404:../Dave/Generated/UCPROBE/probe_com.c ****                                                                 /*                          + 5 (= 
1405:../Dave/Generated/UCPROBE/probe_com.c **** 
1406:../Dave/Generated/UCPROBE/probe_com.c **** #if (PROBE_COM_CFG_STAT_EN == DEF_ENABLED)
1407:../Dave/Generated/UCPROBE/probe_com.c ****     sym_ctr      = 0;
 1774              	 .loc 1 1407 0
 1775 005a 0023     	 mov r3,#0
 1776 005c 7B62     	 str r3,[r7,#36]
1408:../Dave/Generated/UCPROBE/probe_com.c ****     sym_byte_ctr = 0;
 1777              	 .loc 1 1408 0
 1778 005e 0023     	 mov r3,#0
 1779 0060 BB62     	 str r3,[r7,#40]
1409:../Dave/Generated/UCPROBE/probe_com.c **** #endif
1410:../Dave/Generated/UCPROBE/probe_com.c ****                                                                 /* Sto data for each item.         
1411:../Dave/Generated/UCPROBE/probe_com.c ****     while (rx_pkt_ix <= rx_pkt_size) {
 1780              	 .loc 1 1411 0
 1781 0062 45E0     	 b .L101
 1782              	.L103:
1412:../Dave/Generated/UCPROBE/probe_com.c ****         sym_size   =  prx_buf[0];                               /* (a) Get nbr of bytes to rd.     
 1783              	 .loc 1 1412 0
 1784 0064 FB68     	 ldr r3,[r7,#12]
 1785 0066 1B78     	 ldrb r3,[r3]
 1786 0068 BB61     	 str r3,[r7,#24]
1413:../Dave/Generated/UCPROBE/probe_com.c **** 
1414:../Dave/Generated/UCPROBE/probe_com.c ****                                                                 /* (b) Get rd addr.                
1415:../Dave/Generated/UCPROBE/probe_com.c **** #if ((!defined(CPU_CFG_ADDR_SIZE)) || \
1416:../Dave/Generated/UCPROBE/probe_com.c ****      ((defined(CPU_CFG_ADDR_SIZE)) && \
1417:../Dave/Generated/UCPROBE/probe_com.c ****               (CPU_CFG_ADDR_SIZE   != CPU_WORD_SIZE_16)))
1418:../Dave/Generated/UCPROBE/probe_com.c ****         sym_addr   = ((CPU_ADDR)prx_buf[4] << 8) + prx_buf[3];
 1787              	 .loc 1 1418 0
 1788 006a FB68     	 ldr r3,[r7,#12]
 1789 006c 0433     	 add r3,r3,#4
 1790 006e 1B78     	 ldrb r3,[r3]
 1791 0070 1B02     	 lsl r3,r3,#8
 1792 0072 FA68     	 ldr r2,[r7,#12]
 1793 0074 0332     	 add r2,r2,#3
 1794 0076 1278     	 ldrb r2,[r2]
 1795 0078 9B18     	 add r3,r3,r2
 1796 007a 7B61     	 str r3,[r7,#20]
1419:../Dave/Generated/UCPROBE/probe_com.c ****         sym_addr   = ((CPU_ADDR)sym_addr   << 8) + prx_buf[2];
 1797              	 .loc 1 1419 0
 1798 007c 7B69     	 ldr r3,[r7,#20]
 1799 007e 1B02     	 lsl r3,r3,#8
 1800 0080 FA68     	 ldr r2,[r7,#12]
 1801 0082 0232     	 add r2,r2,#2
 1802 0084 1278     	 ldrb r2,[r2]
 1803 0086 9B18     	 add r3,r3,r2
 1804 0088 7B61     	 str r3,[r7,#20]
1420:../Dave/Generated/UCPROBE/probe_com.c ****         sym_addr   = ((CPU_ADDR)sym_addr   << 8) + prx_buf[1];
 1805              	 .loc 1 1420 0
 1806 008a 7B69     	 ldr r3,[r7,#20]
 1807 008c 1B02     	 lsl r3,r3,#8
 1808 008e FA68     	 ldr r2,[r7,#12]
 1809 0090 0132     	 add r2,r2,#1
 1810 0092 1278     	 ldrb r2,[r2]
 1811 0094 9B18     	 add r3,r3,r2
 1812 0096 7B61     	 str r3,[r7,#20]
1421:../Dave/Generated/UCPROBE/probe_com.c **** #else
1422:../Dave/Generated/UCPROBE/probe_com.c ****         sym_addr   = ((CPU_ADDR)prx_buf[2] << 8) + prx_buf[1];
1423:../Dave/Generated/UCPROBE/probe_com.c **** #endif
1424:../Dave/Generated/UCPROBE/probe_com.c **** 
1425:../Dave/Generated/UCPROBE/probe_com.c ****         prx_buf   += 5u;
 1813              	 .loc 1 1425 0
 1814 0098 FB68     	 ldr r3,[r7,#12]
 1815 009a 0533     	 add r3,r3,#5
 1816 009c FB60     	 str r3,[r7,#12]
1426:../Dave/Generated/UCPROBE/probe_com.c ****         rx_pkt_ix += 5u;
 1817              	 .loc 1 1426 0
 1818 009e FB6A     	 ldr r3,[r7,#44]
 1819 00a0 0533     	 add r3,r3,#5
 1820 00a2 FB62     	 str r3,[r7,#44]
1427:../Dave/Generated/UCPROBE/probe_com.c **** 
1428:../Dave/Generated/UCPROBE/probe_com.c ****         tx_len    += sym_size;                                  /* (c) Add nbr of bytes to pkt len.
 1821              	 .loc 1 1428 0
 1822 00a4 3A6A     	 ldr r2,[r7,#32]
 1823 00a6 BB69     	 ldr r3,[r7,#24]
 1824 00a8 D318     	 add r3,r2,r3
 1825 00aa 3B62     	 str r3,[r7,#32]
1429:../Dave/Generated/UCPROBE/probe_com.c **** 
1430:../Dave/Generated/UCPROBE/probe_com.c ****         if (tx_len > tx_buf_size) {                             /* (d) Will pkt be too long for TX 
 1826              	 .loc 1 1430 0
 1827 00ac 3A6A     	 ldr r2,[r7,#32]
 1828 00ae 3B68     	 ldr r3,[r7]
 1829 00b0 9A42     	 cmp r2,r3
 1830 00b2 0AD9     	 bls .L102
1431:../Dave/Generated/UCPROBE/probe_com.c ****             ptx_buf = ptx_buf_start;                            /*     ... rtn err.                
 1831              	 .loc 1 1431 0
 1832 00b4 FB69     	 ldr r3,[r7,#28]
 1833 00b6 BB60     	 str r3,[r7,#8]
1432:../Dave/Generated/UCPROBE/probe_com.c ****             tx_len  = ProbeCom_ReqErr(ptx_buf, PROBE_COM_STATUS_TX_PKT_TOO_LARGE);
 1834              	 .loc 1 1432 0
 1835 00b8 BB68     	 ldr r3,[r7,#8]
 1836 00ba 181C     	 mov r0,r3
 1837 00bc FD21     	 mov r1,#253
 1838 00be FFF7FEFF 	 bl ProbeCom_ReqErr
 1839 00c2 031C     	 mov r3,r0
 1840 00c4 3B62     	 str r3,[r7,#32]
1433:../Dave/Generated/UCPROBE/probe_com.c ****             return (tx_len);
 1841              	 .loc 1 1433 0
 1842 00c6 3B6A     	 ldr r3,[r7,#32]
 1843 00c8 23E0     	 b .L100
 1844              	.L102:
1434:../Dave/Generated/UCPROBE/probe_com.c ****         }
1435:../Dave/Generated/UCPROBE/probe_com.c **** 
1436:../Dave/Generated/UCPROBE/probe_com.c **** #if (PROBE_COM_CFG_STAT_EN == DEF_ENABLED)
1437:../Dave/Generated/UCPROBE/probe_com.c ****         sym_ctr++;                                              /* (e) Inc local sym ctr.          
 1845              	 .loc 1 1437 0
 1846 00ca 7B6A     	 ldr r3,[r7,#36]
 1847 00cc 0133     	 add r3,r3,#1
 1848 00ce 7B62     	 str r3,[r7,#36]
1438:../Dave/Generated/UCPROBE/probe_com.c ****         sym_byte_ctr += sym_size;
 1849              	 .loc 1 1438 0
 1850 00d0 BA6A     	 ldr r2,[r7,#40]
 1851 00d2 BB69     	 ldr r3,[r7,#24]
 1852 00d4 D318     	 add r3,r2,r3
 1853 00d6 BB62     	 str r3,[r7,#40]
1439:../Dave/Generated/UCPROBE/probe_com.c **** #endif
1440:../Dave/Generated/UCPROBE/probe_com.c ****                                                                 /* (f) Otherwise, save TX data.    
1441:../Dave/Generated/UCPROBE/probe_com.c ****         Mem_Copy((void     *)ptx_buf,
 1854              	 .loc 1 1441 0
 1855 00d8 7A69     	 ldr r2,[r7,#20]
 1856 00da B968     	 ldr r1,[r7,#8]
 1857 00dc BB69     	 ldr r3,[r7,#24]
 1858 00de 081C     	 mov r0,r1
 1859 00e0 111C     	 mov r1,r2
 1860 00e2 1A1C     	 mov r2,r3
 1861 00e4 FFF7FEFF 	 bl Mem_Copy
1442:../Dave/Generated/UCPROBE/probe_com.c ****                  (void     *)sym_addr,
1443:../Dave/Generated/UCPROBE/probe_com.c ****                  (CPU_SIZE_T)sym_size);
1444:../Dave/Generated/UCPROBE/probe_com.c **** 
1445:../Dave/Generated/UCPROBE/probe_com.c ****         ptx_buf += sym_size;
 1862              	 .loc 1 1445 0
 1863 00e8 BA68     	 ldr r2,[r7,#8]
 1864 00ea BB69     	 ldr r3,[r7,#24]
 1865 00ec D318     	 add r3,r2,r3
 1866 00ee BB60     	 str r3,[r7,#8]
 1867              	.L101:
1411:../Dave/Generated/UCPROBE/probe_com.c ****         sym_size   =  prx_buf[0];                               /* (a) Get nbr of bytes to rd.     
 1868              	 .loc 1 1411 0
 1869 00f0 FA6A     	 ldr r2,[r7,#44]
 1870 00f2 7B68     	 ldr r3,[r7,#4]
 1871 00f4 9A42     	 cmp r2,r3
 1872 00f6 B5D9     	 bls .L103
1446:../Dave/Generated/UCPROBE/probe_com.c ****     }
1447:../Dave/Generated/UCPROBE/probe_com.c **** 
1448:../Dave/Generated/UCPROBE/probe_com.c **** #if (PROBE_COM_CFG_STAT_EN == DEF_ENABLED)
1449:../Dave/Generated/UCPROBE/probe_com.c ****     ProbeCom_TxSymCtr     += sym_ctr;                           /* Inc global sym ctr.             
 1873              	 .loc 1 1449 0
 1874 00f8 084B     	 ldr r3,.L104
 1875 00fa 1A68     	 ldr r2,[r3]
 1876 00fc 7B6A     	 ldr r3,[r7,#36]
 1877 00fe D218     	 add r2,r2,r3
 1878 0100 064B     	 ldr r3,.L104
 1879 0102 1A60     	 str r2,[r3]
1450:../Dave/Generated/UCPROBE/probe_com.c ****     ProbeCom_TxSymByteCtr += sym_byte_ctr;
 1880              	 .loc 1 1450 0
 1881 0104 064B     	 ldr r3,.L104+4
 1882 0106 1A68     	 ldr r2,[r3]
 1883 0108 BB6A     	 ldr r3,[r7,#40]
 1884 010a D218     	 add r2,r2,r3
 1885 010c 044B     	 ldr r3,.L104+4
 1886 010e 1A60     	 str r2,[r3]
1451:../Dave/Generated/UCPROBE/probe_com.c **** #endif
1452:../Dave/Generated/UCPROBE/probe_com.c **** 
1453:../Dave/Generated/UCPROBE/probe_com.c ****                                                                 /* ------------------ RTN TX PKT SI
1454:../Dave/Generated/UCPROBE/probe_com.c ****     return (tx_len);
 1887              	 .loc 1 1454 0
 1888 0110 3B6A     	 ldr r3,[r7,#32]
 1889              	.L100:
1455:../Dave/Generated/UCPROBE/probe_com.c **** }
 1890              	 .loc 1 1455 0
 1891 0112 181C     	 mov r0,r3
 1892 0114 BD46     	 mov sp,r7
 1893 0116 0DB0     	 add sp,sp,#52
 1894              	 
 1895 0118 90BD     	 pop {r4,r7,pc}
 1896              	.L105:
 1897 011a C046     	 .align 2
 1898              	.L104:
 1899 011c 00000000 	 .word ProbeCom_TxSymCtr
 1900 0120 00000000 	 .word ProbeCom_TxSymByteCtr
 1901              	 .cfi_endproc
 1902              	.LFE15:
 1904              	 .section .text.ProbeCom_ReqWr,"ax",%progbits
 1905              	 .align 2
 1906              	 .code 16
 1907              	 .thumb_func
 1909              	ProbeCom_ReqWr:
 1910              	.LFB16:
1456:../Dave/Generated/UCPROBE/probe_com.c **** 
1457:../Dave/Generated/UCPROBE/probe_com.c **** 
1458:../Dave/Generated/UCPROBE/probe_com.c **** /*
1459:../Dave/Generated/UCPROBE/probe_com.c **** ***************************************************************************************************
1460:../Dave/Generated/UCPROBE/probe_com.c **** *                                          ProbeCom_ReqWr()
1461:../Dave/Generated/UCPROBE/probe_com.c **** *
1462:../Dave/Generated/UCPROBE/probe_com.c **** * Description : Parse the FMT_WR request & formulate response.  This command causes the target to w
1463:../Dave/Generated/UCPROBE/probe_com.c **** *               into its memory data from a certain {memory address, data length, data} triplet whi
1464:../Dave/Generated/UCPROBE/probe_com.c **** *               given in the request.
1465:../Dave/Generated/UCPROBE/probe_com.c **** *
1466:../Dave/Generated/UCPROBE/probe_com.c **** * Argument(s) : prx_buf         Pointer to the receive  buffer
1467:../Dave/Generated/UCPROBE/probe_com.c **** *
1468:../Dave/Generated/UCPROBE/probe_com.c **** *               ptx_buf         Pointer to the transmit buffer
1469:../Dave/Generated/UCPROBE/probe_com.c **** *
1470:../Dave/Generated/UCPROBE/probe_com.c **** *               rx_pkt_size     Size of the receive  packet
1471:../Dave/Generated/UCPROBE/probe_com.c **** *
1472:../Dave/Generated/UCPROBE/probe_com.c **** *               tx_buf_size     Size of the transmit buffer
1473:../Dave/Generated/UCPROBE/probe_com.c **** *
1474:../Dave/Generated/UCPROBE/probe_com.c **** * Return(s)   : The number of bytes written to the tx buffer.
1475:../Dave/Generated/UCPROBE/probe_com.c **** *
1476:../Dave/Generated/UCPROBE/probe_com.c **** * Caller(s)   : ProbeCom_ParseRxPkt().
1477:../Dave/Generated/UCPROBE/probe_com.c **** *
1478:../Dave/Generated/UCPROBE/probe_com.c **** * Note(s)     : (1) The RX format:
1479:../Dave/Generated/UCPROBE/probe_com.c **** *
1480:../Dave/Generated/UCPROBE/probe_com.c **** *                   (A) A 2-byte format,  indicating the data segment format;
1481:../Dave/Generated/UCPROBE/probe_com.c **** *                   (B) A 2-byte length,  indicating the number of bytes to write;
1482:../Dave/Generated/UCPROBE/probe_com.c **** *                   (C) A 4-byte address, the starting address at which the data should be written;
1483:../Dave/Generated/UCPROBE/probe_com.c **** *                   (D) The memory data.
1484:../Dave/Generated/UCPROBE/probe_com.c **** *
1485:../Dave/Generated/UCPROBE/probe_com.c **** *                         +-------------------------+-------------------------+
1486:../Dave/Generated/UCPROBE/probe_com.c **** *                         |          Format         |      Number of bytes    |
1487:../Dave/Generated/UCPROBE/probe_com.c **** *                         +-------------------------+-------------------------+
1488:../Dave/Generated/UCPROBE/probe_com.c **** *                         |                      Address                      |
1489:../Dave/Generated/UCPROBE/probe_com.c **** *                         +---------------------------------------------------+
1490:../Dave/Generated/UCPROBE/probe_com.c **** *                         |                        Data                       |
1491:../Dave/Generated/UCPROBE/probe_com.c **** *                         |                         .                         |
1492:../Dave/Generated/UCPROBE/probe_com.c **** *                         |                         .                         |
1493:../Dave/Generated/UCPROBE/probe_com.c **** *                         |                         .                         |
1494:../Dave/Generated/UCPROBE/probe_com.c **** *                         +---------------------------------------------------+
1495:../Dave/Generated/UCPROBE/probe_com.c **** *
1496:../Dave/Generated/UCPROBE/probe_com.c **** *               (2) The TX format:
1497:../Dave/Generated/UCPROBE/probe_com.c **** *
1498:../Dave/Generated/UCPROBE/probe_com.c **** *                   (A) A 2-byte format, indicating the data segment format;
1499:../Dave/Generated/UCPROBE/probe_com.c **** *                   (B) A 1-byte status, indicating the status after the request;
1500:../Dave/Generated/UCPROBE/probe_com.c **** *                   (C) A 1-byte modifier.
1501:../Dave/Generated/UCPROBE/probe_com.c **** *
1502:../Dave/Generated/UCPROBE/probe_com.c **** *                         +-------------------------+------------+------------+
1503:../Dave/Generated/UCPROBE/probe_com.c **** *                         |          Format         |   Status   |  Modifier  |
1504:../Dave/Generated/UCPROBE/probe_com.c **** *                         +-------------------------+------------+------------+
1505:../Dave/Generated/UCPROBE/probe_com.c **** *
1506:../Dave/Generated/UCPROBE/probe_com.c **** ***************************************************************************************************
1507:../Dave/Generated/UCPROBE/probe_com.c **** */
1508:../Dave/Generated/UCPROBE/probe_com.c **** 
1509:../Dave/Generated/UCPROBE/probe_com.c **** #if (PROBE_COM_CFG_WR_REQ_EN == DEF_ENABLED)
1510:../Dave/Generated/UCPROBE/probe_com.c **** static  CPU_SIZE_T  ProbeCom_ReqWr (CPU_INT08U  *prx_buf,
1511:../Dave/Generated/UCPROBE/probe_com.c ****                                     CPU_INT08U  *ptx_buf,
1512:../Dave/Generated/UCPROBE/probe_com.c ****                                     CPU_SIZE_T   rx_pkt_size,
1513:../Dave/Generated/UCPROBE/probe_com.c ****                                     CPU_SIZE_T   tx_buf_size)
1514:../Dave/Generated/UCPROBE/probe_com.c **** {
 1911              	 .loc 1 1514 0
 1912              	 .cfi_startproc
 1913 0000 80B5     	 push {r7,lr}
 1914              	.LCFI48:
 1915              	 .cfi_def_cfa_offset 8
 1916              	 .cfi_offset 7,-8
 1917              	 .cfi_offset 14,-4
 1918 0002 88B0     	 sub sp,sp,#32
 1919              	.LCFI49:
 1920              	 .cfi_def_cfa_offset 40
 1921 0004 00AF     	 add r7,sp,#0
 1922              	.LCFI50:
 1923              	 .cfi_def_cfa_register 7
 1924 0006 F860     	 str r0,[r7,#12]
 1925 0008 B960     	 str r1,[r7,#8]
 1926 000a 7A60     	 str r2,[r7,#4]
 1927 000c 3B60     	 str r3,[r7]
1515:../Dave/Generated/UCPROBE/probe_com.c ****     CPU_SIZE_T  sym_size;
1516:../Dave/Generated/UCPROBE/probe_com.c ****     CPU_ADDR    sym_addr;
1517:../Dave/Generated/UCPROBE/probe_com.c ****     CPU_SIZE_T  tx_len;
1518:../Dave/Generated/UCPROBE/probe_com.c ****     CPU_SR_ALLOC();
 1928              	 .loc 1 1518 0
 1929 000e 0023     	 mov r3,#0
 1930 0010 FB61     	 str r3,[r7,#28]
1519:../Dave/Generated/UCPROBE/probe_com.c **** 
1520:../Dave/Generated/UCPROBE/probe_com.c **** 
1521:../Dave/Generated/UCPROBE/probe_com.c ****    (void)&tx_buf_size;                                          /* Prevent compiler warning.       
1522:../Dave/Generated/UCPROBE/probe_com.c **** 
1523:../Dave/Generated/UCPROBE/probe_com.c **** 
1524:../Dave/Generated/UCPROBE/probe_com.c ****                                                                 /* ------------------- CHK PKT SIZE
1525:../Dave/Generated/UCPROBE/probe_com.c ****                                                                 /* Expected size >= 2      (= Rx hd
1526:../Dave/Generated/UCPROBE/probe_com.c ****                                                                 /*                + 2      (= Sym s
1527:../Dave/Generated/UCPROBE/probe_com.c ****                                                                 /*                + 4      (= Sym a
1528:../Dave/Generated/UCPROBE/probe_com.c ****                                                                 /*                + nbytes (= Data 
1529:../Dave/Generated/UCPROBE/probe_com.c ****     if (rx_pkt_size < 8u) {
 1931              	 .loc 1 1529 0
 1932 0012 7B68     	 ldr r3,[r7,#4]
 1933 0014 072B     	 cmp r3,#7
 1934 0016 08D8     	 bhi .L107
1530:../Dave/Generated/UCPROBE/probe_com.c ****         tx_len = ProbeCom_ReqErr(ptx_buf, PROBE_COM_STATUS_RX_PKT_WRONG_SIZE);
 1935              	 .loc 1 1530 0
 1936 0018 BB68     	 ldr r3,[r7,#8]
 1937 001a 181C     	 mov r0,r3
 1938 001c FE21     	 mov r1,#254
 1939 001e FFF7FEFF 	 bl ProbeCom_ReqErr
 1940 0022 031C     	 mov r3,r0
 1941 0024 BB61     	 str r3,[r7,#24]
1531:../Dave/Generated/UCPROBE/probe_com.c ****         return (tx_len);
 1942              	 .loc 1 1531 0
 1943 0026 BB69     	 ldr r3,[r7,#24]
 1944 0028 51E0     	 b .L108
 1945              	.L107:
1532:../Dave/Generated/UCPROBE/probe_com.c ****     }
1533:../Dave/Generated/UCPROBE/probe_com.c **** 
1534:../Dave/Generated/UCPROBE/probe_com.c **** 
1535:../Dave/Generated/UCPROBE/probe_com.c **** 
1536:../Dave/Generated/UCPROBE/probe_com.c ****                                                                 /* -------------------- HANDLE WR -
1537:../Dave/Generated/UCPROBE/probe_com.c ****     sym_size = ProbeCom_GetINT16U(&prx_buf);                    /* Get nbr of bytes to wr.         
 1946              	 .loc 1 1537 0
 1947 002a 0C23     	 mov r3,#12
 1948 002c FB18     	 add r3,r7,r3
 1949 002e 181C     	 mov r0,r3
 1950 0030 FFF7FEFF 	 bl ProbeCom_GetINT16U
 1951 0034 031C     	 mov r3,r0
 1952 0036 7B61     	 str r3,[r7,#20]
1538:../Dave/Generated/UCPROBE/probe_com.c **** 
1539:../Dave/Generated/UCPROBE/probe_com.c ****                                                                 /* Get wr addr.                    
1540:../Dave/Generated/UCPROBE/probe_com.c **** #if ((!defined(CPU_CFG_ADDR_SIZE)) || \
1541:../Dave/Generated/UCPROBE/probe_com.c ****      ((defined(CPU_CFG_ADDR_SIZE)) && \
1542:../Dave/Generated/UCPROBE/probe_com.c ****               (CPU_CFG_ADDR_SIZE   != CPU_WORD_SIZE_16)))
1543:../Dave/Generated/UCPROBE/probe_com.c ****     sym_addr = (CPU_ADDR)ProbeCom_GetINT32U(&prx_buf);
 1953              	 .loc 1 1543 0
 1954 0038 0C23     	 mov r3,#12
 1955 003a FB18     	 add r3,r7,r3
 1956 003c 181C     	 mov r0,r3
 1957 003e FFF7FEFF 	 bl ProbeCom_GetINT32U
 1958 0042 031C     	 mov r3,r0
 1959 0044 3B61     	 str r3,[r7,#16]
1544:../Dave/Generated/UCPROBE/probe_com.c **** #else
1545:../Dave/Generated/UCPROBE/probe_com.c ****     sym_addr = (CPU_ADDR)ProbeCom_GetINT16U(&prx_buf);
1546:../Dave/Generated/UCPROBE/probe_com.c ****     prx_buf += 2;
1547:../Dave/Generated/UCPROBE/probe_com.c **** #endif
1548:../Dave/Generated/UCPROBE/probe_com.c **** 
1549:../Dave/Generated/UCPROBE/probe_com.c ****     if (rx_pkt_size != (8 + sym_size)) {                        /* If rx data segment is NOT expect
 1960              	 .loc 1 1549 0
 1961 0046 7B69     	 ldr r3,[r7,#20]
 1962 0048 0833     	 add r3,r3,#8
 1963 004a 1A1E     	 sub r2,r3,#0
 1964 004c 7B68     	 ldr r3,[r7,#4]
 1965 004e 9A42     	 cmp r2,r3
 1966 0050 08D0     	 beq .L109
1550:../Dave/Generated/UCPROBE/probe_com.c ****         tx_len = ProbeCom_ReqErr(ptx_buf, PROBE_COM_STATUS_RX_PKT_WRONG_SIZE);
 1967              	 .loc 1 1550 0
 1968 0052 BB68     	 ldr r3,[r7,#8]
 1969 0054 181C     	 mov r0,r3
 1970 0056 FE21     	 mov r1,#254
 1971 0058 FFF7FEFF 	 bl ProbeCom_ReqErr
 1972 005c 031C     	 mov r3,r0
 1973 005e BB61     	 str r3,[r7,#24]
1551:../Dave/Generated/UCPROBE/probe_com.c ****         return (tx_len);
 1974              	 .loc 1 1551 0
 1975 0060 BB69     	 ldr r3,[r7,#24]
 1976 0062 34E0     	 b .L108
 1977              	.L109:
1552:../Dave/Generated/UCPROBE/probe_com.c ****     }
1553:../Dave/Generated/UCPROBE/probe_com.c **** 
1554:../Dave/Generated/UCPROBE/probe_com.c ****                                                                 /* Copy data into mem.             
1555:../Dave/Generated/UCPROBE/probe_com.c ****     CPU_CRITICAL_ENTER();
 1978              	 .loc 1 1555 0
 1979 0064 FFF7FEFF 	 bl CPU_SR_Save
 1980 0068 031C     	 mov r3,r0
 1981 006a FB61     	 str r3,[r7,#28]
1556:../Dave/Generated/UCPROBE/probe_com.c ****     Mem_Copy((void     *)sym_addr,
 1982              	 .loc 1 1556 0
 1983 006c 3969     	 ldr r1,[r7,#16]
 1984 006e FA68     	 ldr r2,[r7,#12]
 1985 0070 7B69     	 ldr r3,[r7,#20]
 1986 0072 081C     	 mov r0,r1
 1987 0074 111C     	 mov r1,r2
 1988 0076 1A1C     	 mov r2,r3
 1989 0078 FFF7FEFF 	 bl Mem_Copy
1557:../Dave/Generated/UCPROBE/probe_com.c ****              (void     *)prx_buf,
1558:../Dave/Generated/UCPROBE/probe_com.c ****              (CPU_SIZE_T)sym_size);
1559:../Dave/Generated/UCPROBE/probe_com.c ****     CPU_CRITICAL_EXIT();
 1990              	 .loc 1 1559 0
 1991 007c FB69     	 ldr r3,[r7,#28]
 1992 007e 181C     	 mov r0,r3
 1993 0080 FFF7FEFF 	 bl CPU_SR_Restore
1560:../Dave/Generated/UCPROBE/probe_com.c **** 
1561:../Dave/Generated/UCPROBE/probe_com.c **** #if (PROBE_COM_CFG_STAT_EN == DEF_ENABLED)
1562:../Dave/Generated/UCPROBE/probe_com.c ****     ProbeCom_RxSymCtr++;                                        /* Inc global sym ctr.             
 1994              	 .loc 1 1562 0
 1995 0084 144B     	 ldr r3,.L110
 1996 0086 1B68     	 ldr r3,[r3]
 1997 0088 5A1C     	 add r2,r3,#1
 1998 008a 134B     	 ldr r3,.L110
 1999 008c 1A60     	 str r2,[r3]
1563:../Dave/Generated/UCPROBE/probe_com.c ****     ProbeCom_RxSymByteCtr += sym_size;
 2000              	 .loc 1 1563 0
 2001 008e 134B     	 ldr r3,.L110+4
 2002 0090 1A68     	 ldr r2,[r3]
 2003 0092 7B69     	 ldr r3,[r7,#20]
 2004 0094 D218     	 add r2,r2,r3
 2005 0096 114B     	 ldr r3,.L110+4
 2006 0098 1A60     	 str r2,[r3]
1564:../Dave/Generated/UCPROBE/probe_com.c **** #endif
1565:../Dave/Generated/UCPROBE/probe_com.c **** 
1566:../Dave/Generated/UCPROBE/probe_com.c ****                                                                 /* Store TX pkt hdr :              
1567:../Dave/Generated/UCPROBE/probe_com.c ****     ProbeCom_StoINT16U(&ptx_buf, PROBE_COM_FMT_TX_WR);          /* (a) TX pkt fmt.                 
 2007              	 .loc 1 1567 0
 2008 009a 0823     	 mov r3,#8
 2009 009c FB18     	 add r3,r7,r3
 2010 009e 104A     	 ldr r2,.L110+8
 2011 00a0 181C     	 mov r0,r3
 2012 00a2 111C     	 mov r1,r2
 2013 00a4 FFF7FEFF 	 bl ProbeCom_StoINT16U
1568:../Dave/Generated/UCPROBE/probe_com.c ****     ProbeCom_StoINT08U(&ptx_buf, PROBE_COM_STATUS_OK);          /* (b) Target status.              
 2014              	 .loc 1 1568 0
 2015 00a8 0823     	 mov r3,#8
 2016 00aa FB18     	 add r3,r7,r3
 2017 00ac 181C     	 mov r0,r3
 2018 00ae 0121     	 mov r1,#1
 2019 00b0 FFF7FEFF 	 bl ProbeCom_StoINT08U
1569:../Dave/Generated/UCPROBE/probe_com.c ****     ProbeCom_StoINT08U(&ptx_buf, ProbeCom_PktModifier());       /* (c) Modifier.                   
 2020              	 .loc 1 1569 0
 2021 00b4 FFF7FEFF 	 bl ProbeCom_PktModifier
 2022 00b8 031C     	 mov r3,r0
 2023 00ba 1A1C     	 mov r2,r3
 2024 00bc 0823     	 mov r3,#8
 2025 00be FB18     	 add r3,r7,r3
 2026 00c0 181C     	 mov r0,r3
 2027 00c2 111C     	 mov r1,r2
 2028 00c4 FFF7FEFF 	 bl ProbeCom_StoINT08U
1570:../Dave/Generated/UCPROBE/probe_com.c **** 
1571:../Dave/Generated/UCPROBE/probe_com.c **** 
1572:../Dave/Generated/UCPROBE/probe_com.c **** 
1573:../Dave/Generated/UCPROBE/probe_com.c ****                                                                 /* ------------------ RTN TX PKT SI
1574:../Dave/Generated/UCPROBE/probe_com.c ****     tx_len = (CPU_SIZE_T)PROBE_COM_SIZE_TX_HDR;                 /* Tx pkt size = 4 (= Tx hdr size).
 2029              	 .loc 1 1574 0
 2030 00c8 0423     	 mov r3,#4
 2031 00ca BB61     	 str r3,[r7,#24]
1575:../Dave/Generated/UCPROBE/probe_com.c ****     return (tx_len);
 2032              	 .loc 1 1575 0
 2033 00cc BB69     	 ldr r3,[r7,#24]
 2034              	.L108:
1576:../Dave/Generated/UCPROBE/probe_com.c **** }
 2035              	 .loc 1 1576 0
 2036 00ce 181C     	 mov r0,r3
 2037 00d0 BD46     	 mov sp,r7
 2038 00d2 08B0     	 add sp,sp,#32
 2039              	 
 2040 00d4 80BD     	 pop {r7,pc}
 2041              	.L111:
 2042 00d6 C046     	 .align 2
 2043              	.L110:
 2044 00d8 00000000 	 .word ProbeCom_RxSymCtr
 2045 00dc 00000000 	 .word ProbeCom_RxSymByteCtr
 2046 00e0 03800000 	 .word 32771
 2047              	 .cfi_endproc
 2048              	.LFE16:
 2050              	 .section .text.ProbeCom_ReqWrMulti,"ax",%progbits
 2051              	 .align 2
 2052              	 .code 16
 2053              	 .thumb_func
 2055              	ProbeCom_ReqWrMulti:
 2056              	.LFB17:
1577:../Dave/Generated/UCPROBE/probe_com.c **** #endif
1578:../Dave/Generated/UCPROBE/probe_com.c **** 
1579:../Dave/Generated/UCPROBE/probe_com.c **** 
1580:../Dave/Generated/UCPROBE/probe_com.c **** /*
1581:../Dave/Generated/UCPROBE/probe_com.c **** ***************************************************************************************************
1582:../Dave/Generated/UCPROBE/probe_com.c **** *                                        ProbeCom_ReqWrMulti()
1583:../Dave/Generated/UCPROBE/probe_com.c **** *
1584:../Dave/Generated/UCPROBE/probe_com.c **** * Description : Parse the FMT_WR_MULTI request & formulate response.  This command causes the targe
1585:../Dave/Generated/UCPROBE/probe_com.c **** *               write certain data into its memroy, for a certain number of {memory address, data l
1586:../Dave/Generated/UCPROBE/probe_com.c **** *               data} triplets (which are given in the request).
1587:../Dave/Generated/UCPROBE/probe_com.c **** *
1588:../Dave/Generated/UCPROBE/probe_com.c **** * Argument(s) : prx_buf         Pointer to the receive  buffer
1589:../Dave/Generated/UCPROBE/probe_com.c **** *
1590:../Dave/Generated/UCPROBE/probe_com.c **** *               ptx_buf         Pointer to the transmit buffer
1591:../Dave/Generated/UCPROBE/probe_com.c **** *
1592:../Dave/Generated/UCPROBE/probe_com.c **** *               rx_pkt_size     Size of the receive  packet
1593:../Dave/Generated/UCPROBE/probe_com.c **** *
1594:../Dave/Generated/UCPROBE/probe_com.c **** *               tx_buf_size     Size of the transmit buffer
1595:../Dave/Generated/UCPROBE/probe_com.c **** *
1596:../Dave/Generated/UCPROBE/probe_com.c **** * Return(s)   : The number of bytes written to the tx buffer.
1597:../Dave/Generated/UCPROBE/probe_com.c **** *
1598:../Dave/Generated/UCPROBE/probe_com.c **** * Caller(s)   : ProbeCom_ParseRxPkt().
1599:../Dave/Generated/UCPROBE/probe_com.c **** *
1600:../Dave/Generated/UCPROBE/probe_com.c **** * Note(s)     : (1) The RX format:
1601:../Dave/Generated/UCPROBE/probe_com.c **** *
1602:../Dave/Generated/UCPROBE/probe_com.c **** *                   (A) A 2-byte format,  indicating the data segment format;
1603:../Dave/Generated/UCPROBE/probe_com.c **** *                   (B) A n-byte item descriptor, for each item in the list, consiting of the follo
1604:../Dave/Generated/UCPROBE/probe_com.c **** *
1605:../Dave/Generated/UCPROBE/probe_com.c **** *                       (1) A 1-byte length,  indicating the number of bytes to write;
1606:../Dave/Generated/UCPROBE/probe_com.c **** *                       (2) A 4-byte address, the starting address at which the data should be writ
1607:../Dave/Generated/UCPROBE/probe_com.c **** *                       (3) The memory data.
1608:../Dave/Generated/UCPROBE/probe_com.c **** *
1609:../Dave/Generated/UCPROBE/probe_com.c **** *                         +-------------------------+------------+------------+
1610:../Dave/Generated/UCPROBE/probe_com.c **** *                         |          Format         | Num. bytes |         Addr       ---
1611:../Dave/Generated/UCPROBE/probe_com.c **** *                         +-------------------------+------------+------------+        |
1612:../Dave/Generated/UCPROBE/probe_com.c **** *                         ress                                   |            |        |
1613:../Dave/Generated/UCPROBE/probe_com.c **** *                         +--------------------------------------+            |        |    Item 1
1614:../Dave/Generated/UCPROBE/probe_com.c **** *                         |                       Data                        |        |
1615:../Dave/Generated/UCPROBE/probe_com.c **** *                         |                         .                         |        |
1616:../Dave/Generated/UCPROBE/probe_com.c **** *                         |                         .                         |        |
1617:../Dave/Generated/UCPROBE/probe_com.c **** *                         +------------+--------------------------------------+       ---
1618:../Dave/Generated/UCPROBE/probe_com.c **** *                         | Num. bytes |                                   Addr        |    Item 2
1619:../Dave/Generated/UCPROBE/probe_com.c **** *                         +------------+--------------------------------------+        .
1620:../Dave/Generated/UCPROBE/probe_com.c **** *                         |                         .                         |        .
1621:../Dave/Generated/UCPROBE/probe_com.c **** *                         |                         .                         |        .
1622:../Dave/Generated/UCPROBE/probe_com.c **** *                         |                         .            +------------+        .
1623:../Dave/Generated/UCPROBE/probe_com.c **** *                         |                         .            | Num. bytes |       ---
1624:../Dave/Generated/UCPROBE/probe_com.c **** *                         ---------------------------------------+------------+        |
1625:../Dave/Generated/UCPROBE/probe_com.c **** *                         |                      Address                      |        |
1626:../Dave/Generated/UCPROBE/probe_com.c **** *                         +---------------------------------------------------+        |    Item n
1627:../Dave/Generated/UCPROBE/probe_com.c **** *                         |                       Data                        |        |
1628:../Dave/Generated/UCPROBE/probe_com.c **** *                         |                         .                         |        |
1629:../Dave/Generated/UCPROBE/probe_com.c **** *                         |                         .                         |        |
1630:../Dave/Generated/UCPROBE/probe_com.c **** *                         +------------+--------------------------------------+       ---
1631:../Dave/Generated/UCPROBE/probe_com.c **** *
1632:../Dave/Generated/UCPROBE/probe_com.c **** *               (2) The TX format:
1633:../Dave/Generated/UCPROBE/probe_com.c **** *
1634:../Dave/Generated/UCPROBE/probe_com.c **** *                   (A) A 2-byte format, indicating the data segment format;
1635:../Dave/Generated/UCPROBE/probe_com.c **** *                   (B) A 1-byte status, indicating the status after the request;
1636:../Dave/Generated/UCPROBE/probe_com.c **** *                   (C) A 1-byte modifier.
1637:../Dave/Generated/UCPROBE/probe_com.c **** *
1638:../Dave/Generated/UCPROBE/probe_com.c **** *                         +-------------------------+------------+------------+
1639:../Dave/Generated/UCPROBE/probe_com.c **** *                         |          Format         |   Status   |  Modifier  |
1640:../Dave/Generated/UCPROBE/probe_com.c **** *                         +-------------------------+------------+------------+
1641:../Dave/Generated/UCPROBE/probe_com.c **** *
1642:../Dave/Generated/UCPROBE/probe_com.c **** ***************************************************************************************************
1643:../Dave/Generated/UCPROBE/probe_com.c **** */
1644:../Dave/Generated/UCPROBE/probe_com.c **** 
1645:../Dave/Generated/UCPROBE/probe_com.c **** #if (PROBE_COM_CFG_WR_REQ_EN == DEF_ENABLED)
1646:../Dave/Generated/UCPROBE/probe_com.c **** static  CPU_SIZE_T  ProbeCom_ReqWrMulti (CPU_INT08U  *prx_buf,
1647:../Dave/Generated/UCPROBE/probe_com.c ****                                          CPU_INT08U  *ptx_buf,
1648:../Dave/Generated/UCPROBE/probe_com.c ****                                          CPU_SIZE_T   rx_pkt_size,
1649:../Dave/Generated/UCPROBE/probe_com.c ****                                          CPU_SIZE_T   tx_buf_size)
1650:../Dave/Generated/UCPROBE/probe_com.c **** {
 2057              	 .loc 1 1650 0
 2058              	 .cfi_startproc
 2059 0000 80B5     	 push {r7,lr}
 2060              	.LCFI51:
 2061              	 .cfi_def_cfa_offset 8
 2062              	 .cfi_offset 7,-8
 2063              	 .cfi_offset 14,-4
 2064 0002 8CB0     	 sub sp,sp,#48
 2065              	.LCFI52:
 2066              	 .cfi_def_cfa_offset 56
 2067 0004 00AF     	 add r7,sp,#0
 2068              	.LCFI53:
 2069              	 .cfi_def_cfa_register 7
 2070 0006 F860     	 str r0,[r7,#12]
 2071 0008 B960     	 str r1,[r7,#8]
 2072 000a 7A60     	 str r2,[r7,#4]
 2073 000c 3B60     	 str r3,[r7]
1651:../Dave/Generated/UCPROBE/probe_com.c ****     CPU_SIZE_T  rx_pkt_ix;
1652:../Dave/Generated/UCPROBE/probe_com.c **** #if (PROBE_COM_CFG_STAT_EN == DEF_ENABLED)
1653:../Dave/Generated/UCPROBE/probe_com.c ****     CPU_INT32U  sym_ctr;
1654:../Dave/Generated/UCPROBE/probe_com.c ****     CPU_INT32U  sym_byte_ctr;
1655:../Dave/Generated/UCPROBE/probe_com.c **** #endif
1656:../Dave/Generated/UCPROBE/probe_com.c ****     CPU_ADDR    sym_addr;
1657:../Dave/Generated/UCPROBE/probe_com.c ****     CPU_SIZE_T  sym_size;
1658:../Dave/Generated/UCPROBE/probe_com.c ****     CPU_SIZE_T  tx_len;
1659:../Dave/Generated/UCPROBE/probe_com.c ****     CPU_SR_ALLOC();
 2074              	 .loc 1 1659 0
 2075 000e 0023     	 mov r3,#0
 2076 0010 3B62     	 str r3,[r7,#32]
1660:../Dave/Generated/UCPROBE/probe_com.c **** 
1661:../Dave/Generated/UCPROBE/probe_com.c **** 
1662:../Dave/Generated/UCPROBE/probe_com.c ****    (void)&tx_buf_size;                                          /* Prevent compiler warning.       
1663:../Dave/Generated/UCPROBE/probe_com.c **** 
1664:../Dave/Generated/UCPROBE/probe_com.c **** 
1665:../Dave/Generated/UCPROBE/probe_com.c ****                                                                 /* ------------------- CHK PKT SIZE
1666:../Dave/Generated/UCPROBE/probe_com.c ****                                                                 /* Expected size >= 2      (= Rx hd
1667:../Dave/Generated/UCPROBE/probe_com.c ****                                                                 /*                + 1      (= Nbr o
1668:../Dave/Generated/UCPROBE/probe_com.c ****                                                                 /*                + 4      (= Addr 
1669:../Dave/Generated/UCPROBE/probe_com.c ****                                                                 /*                + nbytes (= Data 
1670:../Dave/Generated/UCPROBE/probe_com.c ****     if (rx_pkt_size < 7) {
 2077              	 .loc 1 1670 0
 2078 0012 7B68     	 ldr r3,[r7,#4]
 2079 0014 062B     	 cmp r3,#6
 2080 0016 08D8     	 bhi .L113
1671:../Dave/Generated/UCPROBE/probe_com.c ****         tx_len = ProbeCom_ReqErr(ptx_buf, PROBE_COM_STATUS_RX_PKT_WRONG_SIZE);
 2081              	 .loc 1 1671 0
 2082 0018 BB68     	 ldr r3,[r7,#8]
 2083 001a 181C     	 mov r0,r3
 2084 001c FE21     	 mov r1,#254
 2085 001e FFF7FEFF 	 bl ProbeCom_ReqErr
 2086 0022 031C     	 mov r3,r0
 2087 0024 FB61     	 str r3,[r7,#28]
1672:../Dave/Generated/UCPROBE/probe_com.c ****         return (tx_len);
 2088              	 .loc 1 1672 0
 2089 0026 FB69     	 ldr r3,[r7,#28]
 2090 0028 7CE0     	 b .L114
 2091              	.L113:
1673:../Dave/Generated/UCPROBE/probe_com.c ****     }
1674:../Dave/Generated/UCPROBE/probe_com.c **** 
1675:../Dave/Generated/UCPROBE/probe_com.c ****                                                                 /* -------------------- HANDLE WR -
1676:../Dave/Generated/UCPROBE/probe_com.c ****     rx_pkt_ix  = 7;                                             /* Rx pkt ix after 1st item = 2 (= 
 2092              	 .loc 1 1676 0
 2093 002a 0723     	 mov r3,#7
 2094 002c FB62     	 str r3,[r7,#44]
1677:../Dave/Generated/UCPROBE/probe_com.c ****                                                                 /*                          + 5 (= 
1678:../Dave/Generated/UCPROBE/probe_com.c **** 
1679:../Dave/Generated/UCPROBE/probe_com.c **** #if (PROBE_COM_CFG_STAT_EN == DEF_ENABLED)
1680:../Dave/Generated/UCPROBE/probe_com.c ****     sym_ctr      = 0;
 2095              	 .loc 1 1680 0
 2096 002e 0023     	 mov r3,#0
 2097 0030 BB62     	 str r3,[r7,#40]
1681:../Dave/Generated/UCPROBE/probe_com.c ****     sym_byte_ctr = 0;
 2098              	 .loc 1 1681 0
 2099 0032 0023     	 mov r3,#0
 2100 0034 7B62     	 str r3,[r7,#36]
1682:../Dave/Generated/UCPROBE/probe_com.c **** #endif
1683:../Dave/Generated/UCPROBE/probe_com.c ****                                                                 /* Sto data for each item.         
1684:../Dave/Generated/UCPROBE/probe_com.c ****     while (rx_pkt_ix <= rx_pkt_size) {
 2101              	 .loc 1 1684 0
 2102 0036 4BE0     	 b .L115
 2103              	.L117:
1685:../Dave/Generated/UCPROBE/probe_com.c ****         sym_size = prx_buf[0];                                  /* (a) Get nbr of bytes to wr.     
 2104              	 .loc 1 1685 0
 2105 0038 FB68     	 ldr r3,[r7,#12]
 2106 003a 1B78     	 ldrb r3,[r3]
 2107 003c BB61     	 str r3,[r7,#24]
1686:../Dave/Generated/UCPROBE/probe_com.c **** 
1687:../Dave/Generated/UCPROBE/probe_com.c ****                                                                 /* (b) Get wr addr.                
1688:../Dave/Generated/UCPROBE/probe_com.c **** #if ((!defined(CPU_CFG_ADDR_SIZE)) || \
1689:../Dave/Generated/UCPROBE/probe_com.c ****      ((defined(CPU_CFG_ADDR_SIZE)) && \
1690:../Dave/Generated/UCPROBE/probe_com.c ****               (CPU_CFG_ADDR_SIZE   != CPU_WORD_SIZE_16)))
1691:../Dave/Generated/UCPROBE/probe_com.c ****         sym_addr = ((CPU_ADDR)prx_buf[4] << 8) + prx_buf[3];
 2108              	 .loc 1 1691 0
 2109 003e FB68     	 ldr r3,[r7,#12]
 2110 0040 0433     	 add r3,r3,#4
 2111 0042 1B78     	 ldrb r3,[r3]
 2112 0044 1B02     	 lsl r3,r3,#8
 2113 0046 FA68     	 ldr r2,[r7,#12]
 2114 0048 0332     	 add r2,r2,#3
 2115 004a 1278     	 ldrb r2,[r2]
 2116 004c 9B18     	 add r3,r3,r2
 2117 004e 7B61     	 str r3,[r7,#20]
1692:../Dave/Generated/UCPROBE/probe_com.c ****         sym_addr = ((CPU_ADDR)sym_addr   << 8) + prx_buf[2];
 2118              	 .loc 1 1692 0
 2119 0050 7B69     	 ldr r3,[r7,#20]
 2120 0052 1B02     	 lsl r3,r3,#8
 2121 0054 FA68     	 ldr r2,[r7,#12]
 2122 0056 0232     	 add r2,r2,#2
 2123 0058 1278     	 ldrb r2,[r2]
 2124 005a 9B18     	 add r3,r3,r2
 2125 005c 7B61     	 str r3,[r7,#20]
1693:../Dave/Generated/UCPROBE/probe_com.c ****         sym_addr = ((CPU_ADDR)sym_addr   << 8) + prx_buf[1];
 2126              	 .loc 1 1693 0
 2127 005e 7B69     	 ldr r3,[r7,#20]
 2128 0060 1B02     	 lsl r3,r3,#8
 2129 0062 FA68     	 ldr r2,[r7,#12]
 2130 0064 0132     	 add r2,r2,#1
 2131 0066 1278     	 ldrb r2,[r2]
 2132 0068 9B18     	 add r3,r3,r2
 2133 006a 7B61     	 str r3,[r7,#20]
1694:../Dave/Generated/UCPROBE/probe_com.c **** #else
1695:../Dave/Generated/UCPROBE/probe_com.c ****         sym_addr = ((CPU_ADDR)prx_buf[2] << 8) + prx_buf[1];
1696:../Dave/Generated/UCPROBE/probe_com.c **** #endif
1697:../Dave/Generated/UCPROBE/probe_com.c **** 
1698:../Dave/Generated/UCPROBE/probe_com.c ****         prx_buf += 5u;
 2134              	 .loc 1 1698 0
 2135 006c FB68     	 ldr r3,[r7,#12]
 2136 006e 0533     	 add r3,r3,#5
 2137 0070 FB60     	 str r3,[r7,#12]
1699:../Dave/Generated/UCPROBE/probe_com.c **** 
1700:../Dave/Generated/UCPROBE/probe_com.c ****         if (rx_pkt_ix + sym_size > rx_pkt_size) {
 2138              	 .loc 1 1700 0
 2139 0072 FA6A     	 ldr r2,[r7,#44]
 2140 0074 BB69     	 ldr r3,[r7,#24]
 2141 0076 D218     	 add r2,r2,r3
 2142 0078 7B68     	 ldr r3,[r7,#4]
 2143 007a 9A42     	 cmp r2,r3
 2144 007c 08D9     	 bls .L116
1701:../Dave/Generated/UCPROBE/probe_com.c ****             tx_len = ProbeCom_ReqErr(ptx_buf, PROBE_COM_STATUS_RX_PKT_WRONG_SIZE);
 2145              	 .loc 1 1701 0
 2146 007e BB68     	 ldr r3,[r7,#8]
 2147 0080 181C     	 mov r0,r3
 2148 0082 FE21     	 mov r1,#254
 2149 0084 FFF7FEFF 	 bl ProbeCom_ReqErr
 2150 0088 031C     	 mov r3,r0
 2151 008a FB61     	 str r3,[r7,#28]
1702:../Dave/Generated/UCPROBE/probe_com.c ****             return (tx_len);
 2152              	 .loc 1 1702 0
 2153 008c FB69     	 ldr r3,[r7,#28]
 2154 008e 49E0     	 b .L114
 2155              	.L116:
1703:../Dave/Generated/UCPROBE/probe_com.c ****         }
1704:../Dave/Generated/UCPROBE/probe_com.c **** 
1705:../Dave/Generated/UCPROBE/probe_com.c **** #if (PROBE_COM_CFG_STAT_EN == DEF_ENABLED)
1706:../Dave/Generated/UCPROBE/probe_com.c ****         sym_ctr++;                                              /* (c) Inc local sym ctr.          
 2156              	 .loc 1 1706 0
 2157 0090 BB6A     	 ldr r3,[r7,#40]
 2158 0092 0133     	 add r3,r3,#1
 2159 0094 BB62     	 str r3,[r7,#40]
1707:../Dave/Generated/UCPROBE/probe_com.c ****         sym_byte_ctr += sym_size;
 2160              	 .loc 1 1707 0
 2161 0096 7A6A     	 ldr r2,[r7,#36]
 2162 0098 BB69     	 ldr r3,[r7,#24]
 2163 009a D318     	 add r3,r2,r3
 2164 009c 7B62     	 str r3,[r7,#36]
1708:../Dave/Generated/UCPROBE/probe_com.c **** #endif
1709:../Dave/Generated/UCPROBE/probe_com.c ****                                                                 /* (d) Sto data into pkt.          
1710:../Dave/Generated/UCPROBE/probe_com.c ****         CPU_CRITICAL_ENTER();
 2165              	 .loc 1 1710 0
 2166 009e FFF7FEFF 	 bl CPU_SR_Save
 2167 00a2 031C     	 mov r3,r0
 2168 00a4 3B62     	 str r3,[r7,#32]
1711:../Dave/Generated/UCPROBE/probe_com.c ****         Mem_Copy((void     *)sym_addr,
 2169              	 .loc 1 1711 0
 2170 00a6 7969     	 ldr r1,[r7,#20]
 2171 00a8 FA68     	 ldr r2,[r7,#12]
 2172 00aa BB69     	 ldr r3,[r7,#24]
 2173 00ac 081C     	 mov r0,r1
 2174 00ae 111C     	 mov r1,r2
 2175 00b0 1A1C     	 mov r2,r3
 2176 00b2 FFF7FEFF 	 bl Mem_Copy
1712:../Dave/Generated/UCPROBE/probe_com.c ****                  (void     *)prx_buf,
1713:../Dave/Generated/UCPROBE/probe_com.c ****                  (CPU_SIZE_T)sym_size);
1714:../Dave/Generated/UCPROBE/probe_com.c ****         CPU_CRITICAL_EXIT();
 2177              	 .loc 1 1714 0
 2178 00b6 3B6A     	 ldr r3,[r7,#32]
 2179 00b8 181C     	 mov r0,r3
 2180 00ba FFF7FEFF 	 bl CPU_SR_Restore
1715:../Dave/Generated/UCPROBE/probe_com.c **** 
1716:../Dave/Generated/UCPROBE/probe_com.c ****         prx_buf   += sym_size;
 2181              	 .loc 1 1716 0
 2182 00be FA68     	 ldr r2,[r7,#12]
 2183 00c0 BB69     	 ldr r3,[r7,#24]
 2184 00c2 D318     	 add r3,r2,r3
 2185 00c4 FB60     	 str r3,[r7,#12]
1717:../Dave/Generated/UCPROBE/probe_com.c ****         rx_pkt_ix += 5u + sym_size;
 2186              	 .loc 1 1717 0
 2187 00c6 BA69     	 ldr r2,[r7,#24]
 2188 00c8 FB6A     	 ldr r3,[r7,#44]
 2189 00ca D318     	 add r3,r2,r3
 2190 00cc 0533     	 add r3,r3,#5
 2191 00ce FB62     	 str r3,[r7,#44]
 2192              	.L115:
1684:../Dave/Generated/UCPROBE/probe_com.c ****         sym_size = prx_buf[0];                                  /* (a) Get nbr of bytes to wr.     
 2193              	 .loc 1 1684 0
 2194 00d0 FA6A     	 ldr r2,[r7,#44]
 2195 00d2 7B68     	 ldr r3,[r7,#4]
 2196 00d4 9A42     	 cmp r2,r3
 2197 00d6 AFD9     	 bls .L117
1718:../Dave/Generated/UCPROBE/probe_com.c ****     }
1719:../Dave/Generated/UCPROBE/probe_com.c **** 
1720:../Dave/Generated/UCPROBE/probe_com.c **** #if (PROBE_COM_CFG_STAT_EN == DEF_ENABLED)
1721:../Dave/Generated/UCPROBE/probe_com.c ****     ProbeCom_RxSymCtr     += sym_ctr;                           /* Inc global sym ctr.             
 2198              	 .loc 1 1721 0
 2199 00d8 144B     	 ldr r3,.L118
 2200 00da 1A68     	 ldr r2,[r3]
 2201 00dc BB6A     	 ldr r3,[r7,#40]
 2202 00de D218     	 add r2,r2,r3
 2203 00e0 124B     	 ldr r3,.L118
 2204 00e2 1A60     	 str r2,[r3]
1722:../Dave/Generated/UCPROBE/probe_com.c ****     ProbeCom_RxSymByteCtr += sym_byte_ctr;
 2205              	 .loc 1 1722 0
 2206 00e4 124B     	 ldr r3,.L118+4
 2207 00e6 1A68     	 ldr r2,[r3]
 2208 00e8 7B6A     	 ldr r3,[r7,#36]
 2209 00ea D218     	 add r2,r2,r3
 2210 00ec 104B     	 ldr r3,.L118+4
 2211 00ee 1A60     	 str r2,[r3]
1723:../Dave/Generated/UCPROBE/probe_com.c **** #endif
1724:../Dave/Generated/UCPROBE/probe_com.c **** 
1725:../Dave/Generated/UCPROBE/probe_com.c ****                                                                 /* Sto tx pkt hdr :                
1726:../Dave/Generated/UCPROBE/probe_com.c ****     ProbeCom_StoINT16U(&ptx_buf, PROBE_COM_FMT_TX_WR_MULTI);    /* (a) tx pkt fmt.                 
 2212              	 .loc 1 1726 0
 2213 00f0 0823     	 mov r3,#8
 2214 00f2 FB18     	 add r3,r7,r3
 2215 00f4 0F4A     	 ldr r2,.L118+8
 2216 00f6 181C     	 mov r0,r3
 2217 00f8 111C     	 mov r1,r2
 2218 00fa FFF7FEFF 	 bl ProbeCom_StoINT16U
1727:../Dave/Generated/UCPROBE/probe_com.c ****     ProbeCom_StoINT08U(&ptx_buf, PROBE_COM_STATUS_OK);          /* (b) Target status.              
 2219              	 .loc 1 1727 0
 2220 00fe 0823     	 mov r3,#8
 2221 0100 FB18     	 add r3,r7,r3
 2222 0102 181C     	 mov r0,r3
 2223 0104 0121     	 mov r1,#1
 2224 0106 FFF7FEFF 	 bl ProbeCom_StoINT08U
1728:../Dave/Generated/UCPROBE/probe_com.c ****     ProbeCom_StoINT08U(&ptx_buf, ProbeCom_PktModifier());       /* (c) Modifier.                   
 2225              	 .loc 1 1728 0
 2226 010a FFF7FEFF 	 bl ProbeCom_PktModifier
 2227 010e 031C     	 mov r3,r0
 2228 0110 1A1C     	 mov r2,r3
 2229 0112 0823     	 mov r3,#8
 2230 0114 FB18     	 add r3,r7,r3
 2231 0116 181C     	 mov r0,r3
 2232 0118 111C     	 mov r1,r2
 2233 011a FFF7FEFF 	 bl ProbeCom_StoINT08U
1729:../Dave/Generated/UCPROBE/probe_com.c **** 
1730:../Dave/Generated/UCPROBE/probe_com.c ****                                                                 /* ------------------ RTN TX PKT SI
1731:../Dave/Generated/UCPROBE/probe_com.c ****     tx_len = (CPU_SIZE_T)PROBE_COM_SIZE_TX_HDR;                 /* Tx pkt size = 4 (= Tx hdr size).
 2234              	 .loc 1 1731 0
 2235 011e 0423     	 mov r3,#4
 2236 0120 FB61     	 str r3,[r7,#28]
1732:../Dave/Generated/UCPROBE/probe_com.c ****     return (tx_len);
 2237              	 .loc 1 1732 0
 2238 0122 FB69     	 ldr r3,[r7,#28]
 2239              	.L114:
1733:../Dave/Generated/UCPROBE/probe_com.c **** }
 2240              	 .loc 1 1733 0
 2241 0124 181C     	 mov r0,r3
 2242 0126 BD46     	 mov sp,r7
 2243 0128 0CB0     	 add sp,sp,#48
 2244              	 
 2245 012a 80BD     	 pop {r7,pc}
 2246              	.L119:
 2247              	 .align 2
 2248              	.L118:
 2249 012c 00000000 	 .word ProbeCom_RxSymCtr
 2250 0130 00000000 	 .word ProbeCom_RxSymByteCtr
 2251 0134 08800000 	 .word 32776
 2252              	 .cfi_endproc
 2253              	.LFE17:
 2255              	 .section .text.ProbeCom_ReqStrIn,"ax",%progbits
 2256              	 .align 2
 2257              	 .code 16
 2258              	 .thumb_func
 2260              	ProbeCom_ReqStrIn:
 2261              	.LFB18:
1734:../Dave/Generated/UCPROBE/probe_com.c **** #endif
1735:../Dave/Generated/UCPROBE/probe_com.c **** 
1736:../Dave/Generated/UCPROBE/probe_com.c **** 
1737:../Dave/Generated/UCPROBE/probe_com.c **** /*
1738:../Dave/Generated/UCPROBE/probe_com.c **** ***************************************************************************************************
1739:../Dave/Generated/UCPROBE/probe_com.c **** *                                         ProbeCom_ReqStrIn()
1740:../Dave/Generated/UCPROBE/probe_com.c **** *
1741:../Dave/Generated/UCPROBE/probe_com.c **** * Description : Parse the FMT_STR_IN command & formulate response.  This command sends a string to 
1742:../Dave/Generated/UCPROBE/probe_com.c **** *               target.
1743:../Dave/Generated/UCPROBE/probe_com.c **** *
1744:../Dave/Generated/UCPROBE/probe_com.c **** * Argument(s) : prx_buf         Pointer to the receive  buffer
1745:../Dave/Generated/UCPROBE/probe_com.c **** *
1746:../Dave/Generated/UCPROBE/probe_com.c **** *               ptx_buf         Pointer to the transmit buffer
1747:../Dave/Generated/UCPROBE/probe_com.c **** *
1748:../Dave/Generated/UCPROBE/probe_com.c **** *               rx_pkt_size     Size of the receive  packet
1749:../Dave/Generated/UCPROBE/probe_com.c **** *
1750:../Dave/Generated/UCPROBE/probe_com.c **** *               tx_buf_size     Size of the transmit buffer
1751:../Dave/Generated/UCPROBE/probe_com.c **** *
1752:../Dave/Generated/UCPROBE/probe_com.c **** * Return(s)   : The number of bytes written to the tx buffer.
1753:../Dave/Generated/UCPROBE/probe_com.c **** *
1754:../Dave/Generated/UCPROBE/probe_com.c **** * Caller(s)   : ProbeCom_ParseRxPkt().
1755:../Dave/Generated/UCPROBE/probe_com.c **** *
1756:../Dave/Generated/UCPROBE/probe_com.c **** * Note(s)     : (1) The RX format:
1757:../Dave/Generated/UCPROBE/probe_com.c **** *
1758:../Dave/Generated/UCPROBE/probe_com.c **** *                   (A) A 2-byte format, indicating the data segment format;
1759:../Dave/Generated/UCPROBE/probe_com.c **** *                   (B) A 2-byte padding;
1760:../Dave/Generated/UCPROBE/probe_com.c **** *                   (C) A n-byte string.
1761:../Dave/Generated/UCPROBE/probe_com.c **** *
1762:../Dave/Generated/UCPROBE/probe_com.c **** *                         +-------------------------+-------------------------+
1763:../Dave/Generated/UCPROBE/probe_com.c **** *                         |          Format         |         Padding         |
1764:../Dave/Generated/UCPROBE/probe_com.c **** *                         +-------------------------+-------------------------+
1765:../Dave/Generated/UCPROBE/probe_com.c **** *                         |                       String                      |
1766:../Dave/Generated/UCPROBE/probe_com.c **** *                         |                         .                         |
1767:../Dave/Generated/UCPROBE/probe_com.c **** *                         |                         .                         |
1768:../Dave/Generated/UCPROBE/probe_com.c **** *                         |                         .                         |
1769:../Dave/Generated/UCPROBE/probe_com.c **** *                         +---------------------------------------------------+
1770:../Dave/Generated/UCPROBE/probe_com.c **** *
1771:../Dave/Generated/UCPROBE/probe_com.c **** *               (2) The TX format:
1772:../Dave/Generated/UCPROBE/probe_com.c **** *
1773:../Dave/Generated/UCPROBE/probe_com.c **** *                   (A) A 2-byte format, indicating the data segment format;
1774:../Dave/Generated/UCPROBE/probe_com.c **** *                   (B) A 1-byte status, indicating the status after the request;
1775:../Dave/Generated/UCPROBE/probe_com.c **** *                   (C) A 1-byte modifier.
1776:../Dave/Generated/UCPROBE/probe_com.c **** *
1777:../Dave/Generated/UCPROBE/probe_com.c **** *                         +-------------------------+------------+------------+
1778:../Dave/Generated/UCPROBE/probe_com.c **** *                         |          Format         |   Status   |  Modifier  |
1779:../Dave/Generated/UCPROBE/probe_com.c **** *                         +-------------------------+------------+------------+
1780:../Dave/Generated/UCPROBE/probe_com.c **** *
1781:../Dave/Generated/UCPROBE/probe_com.c **** ***************************************************************************************************
1782:../Dave/Generated/UCPROBE/probe_com.c **** */
1783:../Dave/Generated/UCPROBE/probe_com.c **** 
1784:../Dave/Generated/UCPROBE/probe_com.c **** #if (PROBE_COM_CFG_STR_REQ_EN == DEF_ENABLED)
1785:../Dave/Generated/UCPROBE/probe_com.c **** static  CPU_SIZE_T  ProbeCom_ReqStrIn (CPU_INT08U  *prx_buf,
1786:../Dave/Generated/UCPROBE/probe_com.c ****                                        CPU_INT08U  *ptx_buf,
1787:../Dave/Generated/UCPROBE/probe_com.c ****                                        CPU_SIZE_T   rx_pkt_size,
1788:../Dave/Generated/UCPROBE/probe_com.c ****                                        CPU_SIZE_T   tx_buf_size)
1789:../Dave/Generated/UCPROBE/probe_com.c **** {
 2262              	 .loc 1 1789 0
 2263              	 .cfi_startproc
 2264 0000 80B5     	 push {r7,lr}
 2265              	.LCFI54:
 2266              	 .cfi_def_cfa_offset 8
 2267              	 .cfi_offset 7,-8
 2268              	 .cfi_offset 14,-4
 2269 0002 88B0     	 sub sp,sp,#32
 2270              	.LCFI55:
 2271              	 .cfi_def_cfa_offset 40
 2272 0004 00AF     	 add r7,sp,#0
 2273              	.LCFI56:
 2274              	 .cfi_def_cfa_register 7
 2275 0006 F860     	 str r0,[r7,#12]
 2276 0008 B960     	 str r1,[r7,#8]
 2277 000a 7A60     	 str r2,[r7,#4]
 2278 000c 3B60     	 str r3,[r7]
1790:../Dave/Generated/UCPROBE/probe_com.c ****     CPU_SIZE_T   len;
1791:../Dave/Generated/UCPROBE/probe_com.c ****     CPU_SIZE_T   len_wr;
1792:../Dave/Generated/UCPROBE/probe_com.c ****     CPU_SIZE_T   tx_len;
1793:../Dave/Generated/UCPROBE/probe_com.c ****     CPU_INT08U  *pstr;
1794:../Dave/Generated/UCPROBE/probe_com.c **** 
1795:../Dave/Generated/UCPROBE/probe_com.c **** 
1796:../Dave/Generated/UCPROBE/probe_com.c ****    (void)&tx_buf_size;                                          /* Prevent compiler warning.       
1797:../Dave/Generated/UCPROBE/probe_com.c **** 
1798:../Dave/Generated/UCPROBE/probe_com.c **** 
1799:../Dave/Generated/UCPROBE/probe_com.c ****                                                                 /* ------------------- CHK PKT SIZE
1800:../Dave/Generated/UCPROBE/probe_com.c ****                                                                 /* Expected size = 2 (= Rx hdr size
1801:../Dave/Generated/UCPROBE/probe_com.c ****                                                                 /*               + 2 (= Padding    
1802:../Dave/Generated/UCPROBE/probe_com.c ****     if (rx_pkt_size <= 4u) {
 2279              	 .loc 1 1802 0
 2280 000e 7B68     	 ldr r3,[r7,#4]
 2281 0010 042B     	 cmp r3,#4
 2282 0012 08D8     	 bhi .L121
1803:../Dave/Generated/UCPROBE/probe_com.c ****         tx_len = ProbeCom_ReqErr(ptx_buf, PROBE_COM_STATUS_RX_PKT_WRONG_SIZE);
 2283              	 .loc 1 1803 0
 2284 0014 BB68     	 ldr r3,[r7,#8]
 2285 0016 181C     	 mov r0,r3
 2286 0018 FE21     	 mov r1,#254
 2287 001a FFF7FEFF 	 bl ProbeCom_ReqErr
 2288 001e 031C     	 mov r3,r0
 2289 0020 FB61     	 str r3,[r7,#28]
1804:../Dave/Generated/UCPROBE/probe_com.c ****         return (tx_len);
 2290              	 .loc 1 1804 0
 2291 0022 FB69     	 ldr r3,[r7,#28]
 2292 0024 38E0     	 b .L122
 2293              	.L121:
1805:../Dave/Generated/UCPROBE/probe_com.c ****     }
1806:../Dave/Generated/UCPROBE/probe_com.c **** 
1807:../Dave/Generated/UCPROBE/probe_com.c **** 
1808:../Dave/Generated/UCPROBE/probe_com.c **** 
1809:../Dave/Generated/UCPROBE/probe_com.c ****                                                                 /* ------------------- HANDLE STR -
1810:../Dave/Generated/UCPROBE/probe_com.c ****     pstr   = prx_buf     + 2u;                                   /* Ignore padding.                
 2294              	 .loc 1 1810 0
 2295 0026 FB68     	 ldr r3,[r7,#12]
 2296 0028 0233     	 add r3,r3,#2
 2297 002a BB61     	 str r3,[r7,#24]
1811:../Dave/Generated/UCPROBE/probe_com.c ****     len    = rx_pkt_size - 4u;
 2298              	 .loc 1 1811 0
 2299 002c 7B68     	 ldr r3,[r7,#4]
 2300 002e 043B     	 sub r3,r3,#4
 2301 0030 7B61     	 str r3,[r7,#20]
1812:../Dave/Generated/UCPROBE/probe_com.c **** 
1813:../Dave/Generated/UCPROBE/probe_com.c ****     len_wr = ProbeCom_BufWr(&ProbeCom_StrInBuf,                 /* Rd str from buf.                
 2302              	 .loc 1 1813 0
 2303 0032 1B49     	 ldr r1,.L124
 2304 0034 BA69     	 ldr r2,[r7,#24]
 2305 0036 7B69     	 ldr r3,[r7,#20]
 2306 0038 081C     	 mov r0,r1
 2307 003a 111C     	 mov r1,r2
 2308 003c 1A1C     	 mov r2,r3
 2309 003e FFF7FEFF 	 bl ProbeCom_BufWr
 2310 0042 031C     	 mov r3,r0
 2311 0044 3B61     	 str r3,[r7,#16]
1814:../Dave/Generated/UCPROBE/probe_com.c ****                              pstr,
1815:../Dave/Generated/UCPROBE/probe_com.c ****                              len);
1816:../Dave/Generated/UCPROBE/probe_com.c **** 
1817:../Dave/Generated/UCPROBE/probe_com.c **** #if (PROBE_COM_CFG_STAT_EN == DEF_ENABLED)
1818:../Dave/Generated/UCPROBE/probe_com.c ****     if (len_wr < len) {
 2312              	 .loc 1 1818 0
 2313 0046 3A69     	 ldr r2,[r7,#16]
 2314 0048 7B69     	 ldr r3,[r7,#20]
 2315 004a 9A42     	 cmp r2,r3
 2316 004c 04D2     	 bcs .L123
1819:../Dave/Generated/UCPROBE/probe_com.c ****         ProbeCom_StrRxOvfErrCtr++;
 2317              	 .loc 1 1819 0
 2318 004e 154B     	 ldr r3,.L124+4
 2319 0050 1B68     	 ldr r3,[r3]
 2320 0052 5A1C     	 add r2,r3,#1
 2321 0054 134B     	 ldr r3,.L124+4
 2322 0056 1A60     	 str r2,[r3]
 2323              	.L123:
1820:../Dave/Generated/UCPROBE/probe_com.c ****     }
1821:../Dave/Generated/UCPROBE/probe_com.c **** 
1822:../Dave/Generated/UCPROBE/probe_com.c ****     ProbeCom_StrRxCtr += len_wr;
 2324              	 .loc 1 1822 0
 2325 0058 134B     	 ldr r3,.L124+8
 2326 005a 1A68     	 ldr r2,[r3]
 2327 005c 3B69     	 ldr r3,[r7,#16]
 2328 005e D218     	 add r2,r2,r3
 2329 0060 114B     	 ldr r3,.L124+8
 2330 0062 1A60     	 str r2,[r3]
1823:../Dave/Generated/UCPROBE/probe_com.c **** #endif
1824:../Dave/Generated/UCPROBE/probe_com.c **** 
1825:../Dave/Generated/UCPROBE/probe_com.c **** 
1826:../Dave/Generated/UCPROBE/probe_com.c ****                                                                 /* ------------------ STORE RESPONS
1827:../Dave/Generated/UCPROBE/probe_com.c ****                                                                 /* Sto tx pkt hdr :                
1828:../Dave/Generated/UCPROBE/probe_com.c ****     ProbeCom_StoINT16U(&ptx_buf, PROBE_COM_FMT_TX_STR_IN);      /* (a) Tx pkt fmt.                 
 2331              	 .loc 1 1828 0
 2332 0064 0823     	 mov r3,#8
 2333 0066 FB18     	 add r3,r7,r3
 2334 0068 104A     	 ldr r2,.L124+12
 2335 006a 181C     	 mov r0,r3
 2336 006c 111C     	 mov r1,r2
 2337 006e FFF7FEFF 	 bl ProbeCom_StoINT16U
1829:../Dave/Generated/UCPROBE/probe_com.c ****     ProbeCom_StoINT08U(&ptx_buf, PROBE_COM_STATUS_OK);          /* (b) Target status.              
 2338              	 .loc 1 1829 0
 2339 0072 0823     	 mov r3,#8
 2340 0074 FB18     	 add r3,r7,r3
 2341 0076 181C     	 mov r0,r3
 2342 0078 0121     	 mov r1,#1
 2343 007a FFF7FEFF 	 bl ProbeCom_StoINT08U
1830:../Dave/Generated/UCPROBE/probe_com.c ****     ProbeCom_StoINT08U(&ptx_buf, ProbeCom_PktModifier());       /* (c) Modifier.                   
 2344              	 .loc 1 1830 0
 2345 007e FFF7FEFF 	 bl ProbeCom_PktModifier
 2346 0082 031C     	 mov r3,r0
 2347 0084 1A1C     	 mov r2,r3
 2348 0086 0823     	 mov r3,#8
 2349 0088 FB18     	 add r3,r7,r3
 2350 008a 181C     	 mov r0,r3
 2351 008c 111C     	 mov r1,r2
 2352 008e FFF7FEFF 	 bl ProbeCom_StoINT08U
1831:../Dave/Generated/UCPROBE/probe_com.c **** 
1832:../Dave/Generated/UCPROBE/probe_com.c **** 
1833:../Dave/Generated/UCPROBE/probe_com.c **** 
1834:../Dave/Generated/UCPROBE/probe_com.c ****                                                                 /* ------------------ RTN TX PKT SI
1835:../Dave/Generated/UCPROBE/probe_com.c ****     tx_len = (CPU_SIZE_T)PROBE_COM_SIZE_TX_HDR;                 /* Tx pkt size = 4 (= Tx hdr size).
 2353              	 .loc 1 1835 0
 2354 0092 0423     	 mov r3,#4
 2355 0094 FB61     	 str r3,[r7,#28]
1836:../Dave/Generated/UCPROBE/probe_com.c ****     return (tx_len);
 2356              	 .loc 1 1836 0
 2357 0096 FB69     	 ldr r3,[r7,#28]
 2358              	.L122:
1837:../Dave/Generated/UCPROBE/probe_com.c **** }
 2359              	 .loc 1 1837 0
 2360 0098 181C     	 mov r0,r3
 2361 009a BD46     	 mov sp,r7
 2362 009c 08B0     	 add sp,sp,#32
 2363              	 
 2364 009e 80BD     	 pop {r7,pc}
 2365              	.L125:
 2366              	 .align 2
 2367              	.L124:
 2368 00a0 00000000 	 .word ProbeCom_StrInBuf
 2369 00a4 00000000 	 .word ProbeCom_StrRxOvfErrCtr
 2370 00a8 00000000 	 .word ProbeCom_StrRxCtr
 2371 00ac 0A800000 	 .word 32778
 2372              	 .cfi_endproc
 2373              	.LFE18:
 2375              	 .section .text.ProbeCom_ReqStrOut,"ax",%progbits
 2376              	 .align 2
 2377              	 .code 16
 2378              	 .thumb_func
 2380              	ProbeCom_ReqStrOut:
 2381              	.LFB19:
1838:../Dave/Generated/UCPROBE/probe_com.c **** #endif
1839:../Dave/Generated/UCPROBE/probe_com.c **** 
1840:../Dave/Generated/UCPROBE/probe_com.c **** 
1841:../Dave/Generated/UCPROBE/probe_com.c **** /*
1842:../Dave/Generated/UCPROBE/probe_com.c **** ***************************************************************************************************
1843:../Dave/Generated/UCPROBE/probe_com.c **** *                                        ProbeCom_ReqStrOut()
1844:../Dave/Generated/UCPROBE/probe_com.c **** *
1845:../Dave/Generated/UCPROBE/probe_com.c **** * Description : Parse the FMT_STR_OUT command & formulate response.  This command asks the target t
1846:../Dave/Generated/UCPROBE/probe_com.c **** *               a string that it is currently storing.
1847:../Dave/Generated/UCPROBE/probe_com.c **** *
1848:../Dave/Generated/UCPROBE/probe_com.c **** * Argument(s) : prx_buf         Pointer to the receive  buffer
1849:../Dave/Generated/UCPROBE/probe_com.c **** *
1850:../Dave/Generated/UCPROBE/probe_com.c **** *               ptx_buf         Pointer to the transmit buffer
1851:../Dave/Generated/UCPROBE/probe_com.c **** *
1852:../Dave/Generated/UCPROBE/probe_com.c **** *               rx_pkt_size     Size of the receive  packet
1853:../Dave/Generated/UCPROBE/probe_com.c **** *
1854:../Dave/Generated/UCPROBE/probe_com.c **** *               tx_buf_size     Size of the transmit buffer
1855:../Dave/Generated/UCPROBE/probe_com.c **** *
1856:../Dave/Generated/UCPROBE/probe_com.c **** * Return(s)   : The number of bytes written to the tx buffer.
1857:../Dave/Generated/UCPROBE/probe_com.c **** *
1858:../Dave/Generated/UCPROBE/probe_com.c **** * Caller(s)   : ProbeCom_ParseRxPkt().
1859:../Dave/Generated/UCPROBE/probe_com.c **** *
1860:../Dave/Generated/UCPROBE/probe_com.c **** * Note(s)     : (1) The RX format:
1861:../Dave/Generated/UCPROBE/probe_com.c **** *
1862:../Dave/Generated/UCPROBE/probe_com.c **** *                   (A) A 2-byte format, indicating the data segment format;
1863:../Dave/Generated/UCPROBE/probe_com.c **** *                   (B) A 2-byte padding.
1864:../Dave/Generated/UCPROBE/probe_com.c **** *
1865:../Dave/Generated/UCPROBE/probe_com.c **** *                         +-------------------------+-------------------------+
1866:../Dave/Generated/UCPROBE/probe_com.c **** *                         |          Format         |         Padding         |
1867:../Dave/Generated/UCPROBE/probe_com.c **** *                         +-------------------------+-------------------------+
1868:../Dave/Generated/UCPROBE/probe_com.c **** *
1869:../Dave/Generated/UCPROBE/probe_com.c **** *               (2) The TX format:
1870:../Dave/Generated/UCPROBE/probe_com.c **** *
1871:../Dave/Generated/UCPROBE/probe_com.c **** *                   (A) A 2-byte format, indicating the data segment format;
1872:../Dave/Generated/UCPROBE/probe_com.c **** *                   (B) A 1-byte status, indicating the status after the request;
1873:../Dave/Generated/UCPROBE/probe_com.c **** *                   (C) A 1-byte modifier;
1874:../Dave/Generated/UCPROBE/probe_com.c **** *                   (D) A n-byte string, the string which is stored in the target's buffer.
1875:../Dave/Generated/UCPROBE/probe_com.c **** *
1876:../Dave/Generated/UCPROBE/probe_com.c **** *                         +-------------------------+------------+------------+
1877:../Dave/Generated/UCPROBE/probe_com.c **** *                         |          Format         |   Status   |  Modifier  |
1878:../Dave/Generated/UCPROBE/probe_com.c **** *                         +-------------------------+------------+------------+
1879:../Dave/Generated/UCPROBE/probe_com.c **** *                         |                       String                      |
1880:../Dave/Generated/UCPROBE/probe_com.c **** *                         |                         .                         |
1881:../Dave/Generated/UCPROBE/probe_com.c **** *                         |                         .                         |
1882:../Dave/Generated/UCPROBE/probe_com.c **** *                         |                         .                         |
1883:../Dave/Generated/UCPROBE/probe_com.c **** *                         +---------------------------------------------------+
1884:../Dave/Generated/UCPROBE/probe_com.c **** *
1885:../Dave/Generated/UCPROBE/probe_com.c **** *               (3) See Notes for 'ProbeCom_StrWr()'.
1886:../Dave/Generated/UCPROBE/probe_com.c **** *
1887:../Dave/Generated/UCPROBE/probe_com.c **** *               (4) Probe requires that a NULL byte ends the string.  Consequently, if the data
1888:../Dave/Generated/UCPROBE/probe_com.c **** *                   section of the TX packet is n bytes long, then only (n - 1) bytes have been rea
1889:../Dave/Generated/UCPROBE/probe_com.c **** *                   the string buffer.
1890:../Dave/Generated/UCPROBE/probe_com.c **** ***************************************************************************************************
1891:../Dave/Generated/UCPROBE/probe_com.c **** */
1892:../Dave/Generated/UCPROBE/probe_com.c **** 
1893:../Dave/Generated/UCPROBE/probe_com.c **** #if (PROBE_COM_CFG_STR_REQ_EN == DEF_TRUE)
1894:../Dave/Generated/UCPROBE/probe_com.c **** static  CPU_SIZE_T  ProbeCom_ReqStrOut (CPU_INT08U  *prx_buf,
1895:../Dave/Generated/UCPROBE/probe_com.c ****                                         CPU_INT08U  *ptx_buf,
1896:../Dave/Generated/UCPROBE/probe_com.c ****                                         CPU_SIZE_T   rx_pkt_size,
1897:../Dave/Generated/UCPROBE/probe_com.c ****                                         CPU_SIZE_T   tx_buf_size)
1898:../Dave/Generated/UCPROBE/probe_com.c **** {
 2382              	 .loc 1 1898 0
 2383              	 .cfi_startproc
 2384 0000 80B5     	 push {r7,lr}
 2385              	.LCFI57:
 2386              	 .cfi_def_cfa_offset 8
 2387              	 .cfi_offset 7,-8
 2388              	 .cfi_offset 14,-4
 2389 0002 88B0     	 sub sp,sp,#32
 2390              	.LCFI58:
 2391              	 .cfi_def_cfa_offset 40
 2392 0004 00AF     	 add r7,sp,#0
 2393              	.LCFI59:
 2394              	 .cfi_def_cfa_register 7
 2395 0006 F860     	 str r0,[r7,#12]
 2396 0008 B960     	 str r1,[r7,#8]
 2397 000a 7A60     	 str r2,[r7,#4]
 2398 000c 3B60     	 str r3,[r7]
1899:../Dave/Generated/UCPROBE/probe_com.c ****     CPU_SIZE_T  len_rd;
1900:../Dave/Generated/UCPROBE/probe_com.c ****     CPU_SIZE_T  tx_len;
1901:../Dave/Generated/UCPROBE/probe_com.c ****     CPU_SIZE_T  tx_max;
1902:../Dave/Generated/UCPROBE/probe_com.c **** 
1903:../Dave/Generated/UCPROBE/probe_com.c **** 
1904:../Dave/Generated/UCPROBE/probe_com.c ****    (void)&prx_buf;                                              /* Prevent compiler warning.       
1905:../Dave/Generated/UCPROBE/probe_com.c **** 
1906:../Dave/Generated/UCPROBE/probe_com.c **** 
1907:../Dave/Generated/UCPROBE/probe_com.c ****                                                                 /* ------------------- CHK PKT SIZE
1908:../Dave/Generated/UCPROBE/probe_com.c ****                                                                 /* Expected size = 2 (= Rx hdr size
1909:../Dave/Generated/UCPROBE/probe_com.c ****                                                                 /*               + 2 (= Padding    
1910:../Dave/Generated/UCPROBE/probe_com.c ****     if (rx_pkt_size != 4u) {
 2399              	 .loc 1 1910 0
 2400 000e 7B68     	 ldr r3,[r7,#4]
 2401 0010 042B     	 cmp r3,#4
 2402 0012 08D0     	 beq .L127
1911:../Dave/Generated/UCPROBE/probe_com.c ****         tx_len = ProbeCom_ReqErr(ptx_buf, PROBE_COM_STATUS_RX_PKT_WRONG_SIZE);
 2403              	 .loc 1 1911 0
 2404 0014 BB68     	 ldr r3,[r7,#8]
 2405 0016 181C     	 mov r0,r3
 2406 0018 FE21     	 mov r1,#254
 2407 001a FFF7FEFF 	 bl ProbeCom_ReqErr
 2408 001e 031C     	 mov r3,r0
 2409 0020 FB61     	 str r3,[r7,#28]
1912:../Dave/Generated/UCPROBE/probe_com.c ****         return (tx_len);
 2410              	 .loc 1 1912 0
 2411 0022 FB69     	 ldr r3,[r7,#28]
 2412 0024 3EE0     	 b .L128
 2413              	.L127:
1913:../Dave/Generated/UCPROBE/probe_com.c ****     }
1914:../Dave/Generated/UCPROBE/probe_com.c **** 
1915:../Dave/Generated/UCPROBE/probe_com.c ****                                                                 /* --------------------- STORE STR 
1916:../Dave/Generated/UCPROBE/probe_com.c ****                                                                 /* Sto TX pkt hdr :                
1917:../Dave/Generated/UCPROBE/probe_com.c ****     ProbeCom_StoINT16U(&ptx_buf, PROBE_COM_FMT_TX_STR_OUT);     /* (a) TX pkt fmt.                 
 2414              	 .loc 1 1917 0
 2415 0026 0823     	 mov r3,#8
 2416 0028 FB18     	 add r3,r7,r3
 2417 002a 204A     	 ldr r2,.L130
 2418 002c 181C     	 mov r0,r3
 2419 002e 111C     	 mov r1,r2
 2420 0030 FFF7FEFF 	 bl ProbeCom_StoINT16U
1918:../Dave/Generated/UCPROBE/probe_com.c ****     ProbeCom_StoINT08U(&ptx_buf, PROBE_COM_STATUS_OK);          /* (b) Target status.              
 2421              	 .loc 1 1918 0
 2422 0034 0823     	 mov r3,#8
 2423 0036 FB18     	 add r3,r7,r3
 2424 0038 181C     	 mov r0,r3
 2425 003a 0121     	 mov r1,#1
 2426 003c FFF7FEFF 	 bl ProbeCom_StoINT08U
1919:../Dave/Generated/UCPROBE/probe_com.c ****     ProbeCom_StoINT08U(&ptx_buf, ProbeCom_PktModifier());       /* (c) Modifier.                   
 2427              	 .loc 1 1919 0
 2428 0040 FFF7FEFF 	 bl ProbeCom_PktModifier
 2429 0044 031C     	 mov r3,r0
 2430 0046 1A1C     	 mov r2,r3
 2431 0048 0823     	 mov r3,#8
 2432 004a FB18     	 add r3,r7,r3
 2433 004c 181C     	 mov r0,r3
 2434 004e 111C     	 mov r1,r2
 2435 0050 FFF7FEFF 	 bl ProbeCom_StoINT08U
1920:../Dave/Generated/UCPROBE/probe_com.c **** 
1921:../Dave/Generated/UCPROBE/probe_com.c ****     tx_max = (tx_buf_size - PROBE_COM_SIZE_TX_HDR) - 1;         /* Calc size of largest tx str.    
 2436              	 .loc 1 1921 0
 2437 0054 3B68     	 ldr r3,[r7]
 2438 0056 053B     	 sub r3,r3,#5
 2439 0058 BB61     	 str r3,[r7,#24]
1922:../Dave/Generated/UCPROBE/probe_com.c **** 
1923:../Dave/Generated/UCPROBE/probe_com.c ****     len_rd = ProbeCom_BufRd(&ProbeCom_StrOutBuf,                /* Rd str from buf.                
 2440              	 .loc 1 1923 0
 2441 005a BA68     	 ldr r2,[r7,#8]
 2442 005c 1449     	 ldr r1,.L130+4
 2443 005e BB69     	 ldr r3,[r7,#24]
 2444 0060 081C     	 mov r0,r1
 2445 0062 111C     	 mov r1,r2
 2446 0064 1A1C     	 mov r2,r3
 2447 0066 FFF7FEFF 	 bl ProbeCom_BufRd
 2448 006a 031C     	 mov r3,r0
 2449 006c 7B61     	 str r3,[r7,#20]
1924:../Dave/Generated/UCPROBE/probe_com.c ****                              ptx_buf,
1925:../Dave/Generated/UCPROBE/probe_com.c ****                              tx_max);
1926:../Dave/Generated/UCPROBE/probe_com.c **** 
1927:../Dave/Generated/UCPROBE/probe_com.c ****     if (len_rd == 0u) {                                         /* If there is NO str ... rtn err. 
 2450              	 .loc 1 1927 0
 2451 006e 7B69     	 ldr r3,[r7,#20]
 2452 0070 002B     	 cmp r3,#0
 2453 0072 08D1     	 bne .L129
1928:../Dave/Generated/UCPROBE/probe_com.c ****         tx_len = ProbeCom_ReqErr(ptx_buf, PROBE_COM_STATUS_STR_OUT_NONE);
 2454              	 .loc 1 1928 0
 2455 0074 BB68     	 ldr r3,[r7,#8]
 2456 0076 181C     	 mov r0,r3
 2457 0078 F821     	 mov r1,#248
 2458 007a FFF7FEFF 	 bl ProbeCom_ReqErr
 2459 007e 031C     	 mov r3,r0
 2460 0080 FB61     	 str r3,[r7,#28]
1929:../Dave/Generated/UCPROBE/probe_com.c ****         return (tx_len);
 2461              	 .loc 1 1929 0
 2462 0082 FB69     	 ldr r3,[r7,#28]
 2463 0084 0EE0     	 b .L128
 2464              	.L129:
1930:../Dave/Generated/UCPROBE/probe_com.c ****     }
1931:../Dave/Generated/UCPROBE/probe_com.c **** 
1932:../Dave/Generated/UCPROBE/probe_com.c ****    *(ptx_buf + len_rd) = (CPU_INT08U)0;                         /* Wr NULL byte.                   
 2465              	 .loc 1 1932 0
 2466 0086 BA68     	 ldr r2,[r7,#8]
 2467 0088 7B69     	 ldr r3,[r7,#20]
 2468 008a D318     	 add r3,r2,r3
 2469 008c 0022     	 mov r2,#0
 2470 008e 1A70     	 strb r2,[r3]
1933:../Dave/Generated/UCPROBE/probe_com.c **** 
1934:../Dave/Generated/UCPROBE/probe_com.c **** #if (PROBE_COM_CFG_STAT_EN == DEF_ENABLED)
1935:../Dave/Generated/UCPROBE/probe_com.c ****     ProbeCom_StrTxCtr += len_rd;
 2471              	 .loc 1 1935 0
 2472 0090 084B     	 ldr r3,.L130+8
 2473 0092 1A68     	 ldr r2,[r3]
 2474 0094 7B69     	 ldr r3,[r7,#20]
 2475 0096 D218     	 add r2,r2,r3
 2476 0098 064B     	 ldr r3,.L130+8
 2477 009a 1A60     	 str r2,[r3]
1936:../Dave/Generated/UCPROBE/probe_com.c **** #endif
1937:../Dave/Generated/UCPROBE/probe_com.c **** 
1938:../Dave/Generated/UCPROBE/probe_com.c **** 
1939:../Dave/Generated/UCPROBE/probe_com.c ****                                                                 /* ------------------ RTN TX PKT SI
1940:../Dave/Generated/UCPROBE/probe_com.c ****     tx_len = PROBE_COM_SIZE_TX_HDR + len_rd + 1u;
 2478              	 .loc 1 1940 0
 2479 009c 7B69     	 ldr r3,[r7,#20]
 2480 009e 0533     	 add r3,r3,#5
 2481 00a0 FB61     	 str r3,[r7,#28]
1941:../Dave/Generated/UCPROBE/probe_com.c ****     return (tx_len);                                            /* Tx pkt size = 4      (= Tx hdr s
 2482              	 .loc 1 1941 0
 2483 00a2 FB69     	 ldr r3,[r7,#28]
 2484              	.L128:
1942:../Dave/Generated/UCPROBE/probe_com.c ****                                                                 /*             + nbytes (= Str    s
1943:../Dave/Generated/UCPROBE/probe_com.c ****                                                                 /*             + 1      (= NULL byt
1944:../Dave/Generated/UCPROBE/probe_com.c **** }
 2485              	 .loc 1 1944 0
 2486 00a4 181C     	 mov r0,r3
 2487 00a6 BD46     	 mov sp,r7
 2488 00a8 08B0     	 add sp,sp,#32
 2489              	 
 2490 00aa 80BD     	 pop {r7,pc}
 2491              	.L131:
 2492              	 .align 2
 2493              	.L130:
 2494 00ac 09800000 	 .word 32777
 2495 00b0 00000000 	 .word ProbeCom_StrOutBuf
 2496 00b4 00000000 	 .word ProbeCom_StrTxCtr
 2497              	 .cfi_endproc
 2498              	.LFE19:
 2500              	 .section .text.ProbeCom_ReqTerminalExec,"ax",%progbits
 2501              	 .align 2
 2502              	 .code 16
 2503              	 .thumb_func
 2505              	ProbeCom_ReqTerminalExec:
 2506              	.LFB20:
1945:../Dave/Generated/UCPROBE/probe_com.c **** #endif
1946:../Dave/Generated/UCPROBE/probe_com.c **** 
1947:../Dave/Generated/UCPROBE/probe_com.c **** 
1948:../Dave/Generated/UCPROBE/probe_com.c **** /*
1949:../Dave/Generated/UCPROBE/probe_com.c **** ***************************************************************************************************
1950:../Dave/Generated/UCPROBE/probe_com.c **** *                                     ProbeCom_ReqTerminalExec()
1951:../Dave/Generated/UCPROBE/probe_com.c **** *
1952:../Dave/Generated/UCPROBE/probe_com.c **** * Description : Parse the FMT_TERMINAL_EXEC command & formulate response.  This command sends a ter
1953:../Dave/Generated/UCPROBE/probe_com.c **** *               command to the target for execution.
1954:../Dave/Generated/UCPROBE/probe_com.c **** *
1955:../Dave/Generated/UCPROBE/probe_com.c **** * Argument(s) : prx_buf         Pointer to the receive  buffer
1956:../Dave/Generated/UCPROBE/probe_com.c **** *
1957:../Dave/Generated/UCPROBE/probe_com.c **** *               ptx_buf         Pointer to the transmit buffer
1958:../Dave/Generated/UCPROBE/probe_com.c **** *
1959:../Dave/Generated/UCPROBE/probe_com.c **** *               rx_pkt_size     Size of the receive  packet
1960:../Dave/Generated/UCPROBE/probe_com.c **** *
1961:../Dave/Generated/UCPROBE/probe_com.c **** *               tx_buf_size     Size of the transmit buffer
1962:../Dave/Generated/UCPROBE/probe_com.c **** *
1963:../Dave/Generated/UCPROBE/probe_com.c **** * Return(s)   : The number of bytes written to the tx buffer.
1964:../Dave/Generated/UCPROBE/probe_com.c **** *
1965:../Dave/Generated/UCPROBE/probe_com.c **** * Caller(s)   : ProbeCom_ParseRxPkt().
1966:../Dave/Generated/UCPROBE/probe_com.c **** *
1967:../Dave/Generated/UCPROBE/probe_com.c **** * Note(s)     : (1) The RX format:
1968:../Dave/Generated/UCPROBE/probe_com.c **** *
1969:../Dave/Generated/UCPROBE/probe_com.c **** *                   (A) A 2-byte format, indicating the data segment format;
1970:../Dave/Generated/UCPROBE/probe_com.c **** *                   (B) A 2-byte padding;
1971:../Dave/Generated/UCPROBE/probe_com.c **** *                   (C) A n-byte string.
1972:../Dave/Generated/UCPROBE/probe_com.c **** *
1973:../Dave/Generated/UCPROBE/probe_com.c **** *                         +-------------------------+-------------------------+
1974:../Dave/Generated/UCPROBE/probe_com.c **** *                         |          Format         |         Padding         |
1975:../Dave/Generated/UCPROBE/probe_com.c **** *                         +-------------------------+-------------------------+
1976:../Dave/Generated/UCPROBE/probe_com.c **** *                         |                  Terminal Command                 |
1977:../Dave/Generated/UCPROBE/probe_com.c **** *                         |                         .                         |
1978:../Dave/Generated/UCPROBE/probe_com.c **** *                         |                         .                         |
1979:../Dave/Generated/UCPROBE/probe_com.c **** *                         |                         .                         |
1980:../Dave/Generated/UCPROBE/probe_com.c **** *                         +---------------------------------------------------+
1981:../Dave/Generated/UCPROBE/probe_com.c **** *
1982:../Dave/Generated/UCPROBE/probe_com.c **** *               (2) The TX format:
1983:../Dave/Generated/UCPROBE/probe_com.c **** *
1984:../Dave/Generated/UCPROBE/probe_com.c **** *                   (A) A 2-byte format, indicating the data segment format;
1985:../Dave/Generated/UCPROBE/probe_com.c **** *                   (B) A 1-byte status, indicating the status after the request;
1986:../Dave/Generated/UCPROBE/probe_com.c **** *                   (C) A 1-byte modifier.
1987:../Dave/Generated/UCPROBE/probe_com.c **** *
1988:../Dave/Generated/UCPROBE/probe_com.c **** *                         +-------------------------+------------+------------+
1989:../Dave/Generated/UCPROBE/probe_com.c **** *                         |          Format         |   Status   |  Modifier  |
1990:../Dave/Generated/UCPROBE/probe_com.c **** *                         +-------------------------+------------+------------+
1991:../Dave/Generated/UCPROBE/probe_com.c **** *
1992:../Dave/Generated/UCPROBE/probe_com.c **** ***************************************************************************************************
1993:../Dave/Generated/UCPROBE/probe_com.c **** */
1994:../Dave/Generated/UCPROBE/probe_com.c **** 
1995:../Dave/Generated/UCPROBE/probe_com.c **** #if (PROBE_COM_CFG_TERMINAL_REQ_EN == DEF_ENABLED)
1996:../Dave/Generated/UCPROBE/probe_com.c **** static  CPU_SIZE_T  ProbeCom_ReqTerminalExec (CPU_INT08U  *prx_buf,
1997:../Dave/Generated/UCPROBE/probe_com.c ****                                               CPU_INT08U  *ptx_buf,
1998:../Dave/Generated/UCPROBE/probe_com.c ****                                               CPU_SIZE_T   rx_pkt_size,
1999:../Dave/Generated/UCPROBE/probe_com.c ****                                               CPU_SIZE_T   tx_buf_size)
2000:../Dave/Generated/UCPROBE/probe_com.c **** {
 2507              	 .loc 1 2000 0
 2508              	 .cfi_startproc
 2509 0000 80B5     	 push {r7,lr}
 2510              	.LCFI60:
 2511              	 .cfi_def_cfa_offset 8
 2512              	 .cfi_offset 7,-8
 2513              	 .cfi_offset 14,-4
 2514 0002 8AB0     	 sub sp,sp,#40
 2515              	.LCFI61:
 2516              	 .cfi_def_cfa_offset 48
 2517 0004 00AF     	 add r7,sp,#0
 2518              	.LCFI62:
 2519              	 .cfi_def_cfa_register 7
 2520 0006 F860     	 str r0,[r7,#12]
 2521 0008 B960     	 str r1,[r7,#8]
 2522 000a 7A60     	 str r2,[r7,#4]
 2523 000c 3B60     	 str r3,[r7]
2001:../Dave/Generated/UCPROBE/probe_com.c ****     PROBE_COM_TERMINAL_EXEC_FNCT   handler;
2002:../Dave/Generated/UCPROBE/probe_com.c ****     CPU_SIZE_T                     len;
2003:../Dave/Generated/UCPROBE/probe_com.c ****     CPU_SIZE_T                     tx_len;
2004:../Dave/Generated/UCPROBE/probe_com.c ****     CPU_INT08U                    *pstr;
2005:../Dave/Generated/UCPROBE/probe_com.c ****     CPU_SR_ALLOC();
 2524              	 .loc 1 2005 0
 2525 000e 0023     	 mov r3,#0
 2526 0010 7B62     	 str r3,[r7,#36]
2006:../Dave/Generated/UCPROBE/probe_com.c **** 
2007:../Dave/Generated/UCPROBE/probe_com.c **** 
2008:../Dave/Generated/UCPROBE/probe_com.c ****    (void)&tx_buf_size;                                          /* Prevent compiler warning.       
2009:../Dave/Generated/UCPROBE/probe_com.c **** 
2010:../Dave/Generated/UCPROBE/probe_com.c **** 
2011:../Dave/Generated/UCPROBE/probe_com.c ****                                                                 /* ------------------- CHK PKT SIZE
2012:../Dave/Generated/UCPROBE/probe_com.c ****                                                                 /* Expected size = 2 (= Rx hdr size
2013:../Dave/Generated/UCPROBE/probe_com.c ****                                                                 /*               + 2 (= Padding    
2014:../Dave/Generated/UCPROBE/probe_com.c ****     if (rx_pkt_size <= 4u) {
 2527              	 .loc 1 2014 0
 2528 0012 7B68     	 ldr r3,[r7,#4]
 2529 0014 042B     	 cmp r3,#4
 2530 0016 08D8     	 bhi .L133
2015:../Dave/Generated/UCPROBE/probe_com.c ****         tx_len = ProbeCom_ReqErr(ptx_buf, PROBE_COM_STATUS_RX_PKT_WRONG_SIZE);
 2531              	 .loc 1 2015 0
 2532 0018 BB68     	 ldr r3,[r7,#8]
 2533 001a 181C     	 mov r0,r3
 2534 001c FE21     	 mov r1,#254
 2535 001e FFF7FEFF 	 bl ProbeCom_ReqErr
 2536 0022 031C     	 mov r3,r0
 2537 0024 3B62     	 str r3,[r7,#32]
2016:../Dave/Generated/UCPROBE/probe_com.c ****         return (tx_len);
 2538              	 .loc 1 2016 0
 2539 0026 3B6A     	 ldr r3,[r7,#32]
 2540 0028 36E0     	 b .L134
 2541              	.L133:
2017:../Dave/Generated/UCPROBE/probe_com.c ****     }
2018:../Dave/Generated/UCPROBE/probe_com.c **** 
2019:../Dave/Generated/UCPROBE/probe_com.c **** 
2020:../Dave/Generated/UCPROBE/probe_com.c **** 
2021:../Dave/Generated/UCPROBE/probe_com.c ****                                                                 /* -------------------- HANDLE STR 
2022:../Dave/Generated/UCPROBE/probe_com.c ****     CPU_CRITICAL_ENTER();
 2542              	 .loc 1 2022 0
 2543 002a FFF7FEFF 	 bl CPU_SR_Save
 2544 002e 031C     	 mov r3,r0
 2545 0030 7B62     	 str r3,[r7,#36]
2023:../Dave/Generated/UCPROBE/probe_com.c ****     handler = ProbeCom_TerminalExecHandler;
 2546              	 .loc 1 2023 0
 2547 0032 1B4B     	 ldr r3,.L136
 2548 0034 1B68     	 ldr r3,[r3]
 2549 0036 FB61     	 str r3,[r7,#28]
2024:../Dave/Generated/UCPROBE/probe_com.c ****     CPU_CRITICAL_EXIT();
 2550              	 .loc 1 2024 0
 2551 0038 7B6A     	 ldr r3,[r7,#36]
 2552 003a 181C     	 mov r0,r3
 2553 003c FFF7FEFF 	 bl CPU_SR_Restore
2025:../Dave/Generated/UCPROBE/probe_com.c **** 
2026:../Dave/Generated/UCPROBE/probe_com.c ****     if (handler != (PROBE_COM_TERMINAL_EXEC_FNCT)0) {           /* If handler assigned ...         
 2554              	 .loc 1 2026 0
 2555 0040 FB69     	 ldr r3,[r7,#28]
 2556 0042 002B     	 cmp r3,#0
 2557 0044 0ED0     	 beq .L135
2027:../Dave/Generated/UCPROBE/probe_com.c ****         pstr = prx_buf     + 2u;                                /* ... ignore padding  ...         
 2558              	 .loc 1 2027 0
 2559 0046 FB68     	 ldr r3,[r7,#12]
 2560 0048 0233     	 add r3,r3,#2
 2561 004a BB61     	 str r3,[r7,#24]
2028:../Dave/Generated/UCPROBE/probe_com.c ****         len  = rx_pkt_size - 2u;
 2562              	 .loc 1 2028 0
 2563 004c 7B68     	 ldr r3,[r7,#4]
 2564 004e 023B     	 sub r3,r3,#2
 2565 0050 7B61     	 str r3,[r7,#20]
2029:../Dave/Generated/UCPROBE/probe_com.c **** 
2030:../Dave/Generated/UCPROBE/probe_com.c ****         ProbeCom_TerminalExecuting = DEF_YES;
 2566              	 .loc 1 2030 0
 2567 0052 144B     	 ldr r3,.L136+4
 2568 0054 0122     	 mov r2,#1
 2569 0056 1A70     	 strb r2,[r3]
2031:../Dave/Generated/UCPROBE/probe_com.c **** 
2032:../Dave/Generated/UCPROBE/probe_com.c ****         handler((CPU_CHAR *)pstr,                               /* ... exec handler.               
 2570              	 .loc 1 2032 0
 2571 0058 B969     	 ldr r1,[r7,#24]
 2572 005a 7A69     	 ldr r2,[r7,#20]
 2573 005c FB69     	 ldr r3,[r7,#28]
 2574 005e 081C     	 mov r0,r1
 2575 0060 111C     	 mov r1,r2
 2576 0062 9847     	 blx r3
 2577              	.L135:
2033:../Dave/Generated/UCPROBE/probe_com.c ****                 (CPU_SIZE_T)len);
2034:../Dave/Generated/UCPROBE/probe_com.c ****     }
2035:../Dave/Generated/UCPROBE/probe_com.c **** 
2036:../Dave/Generated/UCPROBE/probe_com.c **** 
2037:../Dave/Generated/UCPROBE/probe_com.c **** 
2038:../Dave/Generated/UCPROBE/probe_com.c ****                                                                 /* ------------------ STORE RESPONS
2039:../Dave/Generated/UCPROBE/probe_com.c ****                                                                 /* Sto tx pkt hdr :                
2040:../Dave/Generated/UCPROBE/probe_com.c ****                                                                 /* (a) Tx pkt fmt.                 
2041:../Dave/Generated/UCPROBE/probe_com.c ****     ProbeCom_StoINT16U(&ptx_buf, PROBE_COM_FMT_TX_TERMINAL_EXEC);
 2578              	 .loc 1 2041 0
 2579 0064 0823     	 mov r3,#8
 2580 0066 FB18     	 add r3,r7,r3
 2581 0068 0F4A     	 ldr r2,.L136+8
 2582 006a 181C     	 mov r0,r3
 2583 006c 111C     	 mov r1,r2
 2584 006e FFF7FEFF 	 bl ProbeCom_StoINT16U
2042:../Dave/Generated/UCPROBE/probe_com.c ****     ProbeCom_StoINT08U(&ptx_buf, PROBE_COM_STATUS_OK);          /* (b) Target status.              
 2585              	 .loc 1 2042 0
 2586 0072 0823     	 mov r3,#8
 2587 0074 FB18     	 add r3,r7,r3
 2588 0076 181C     	 mov r0,r3
 2589 0078 0121     	 mov r1,#1
 2590 007a FFF7FEFF 	 bl ProbeCom_StoINT08U
2043:../Dave/Generated/UCPROBE/probe_com.c ****     ProbeCom_StoINT08U(&ptx_buf, ProbeCom_PktModifier());       /* (c) Modifier.                   
 2591              	 .loc 1 2043 0
 2592 007e FFF7FEFF 	 bl ProbeCom_PktModifier
 2593 0082 031C     	 mov r3,r0
 2594 0084 1A1C     	 mov r2,r3
 2595 0086 0823     	 mov r3,#8
 2596 0088 FB18     	 add r3,r7,r3
 2597 008a 181C     	 mov r0,r3
 2598 008c 111C     	 mov r1,r2
 2599 008e FFF7FEFF 	 bl ProbeCom_StoINT08U
2044:../Dave/Generated/UCPROBE/probe_com.c **** 
2045:../Dave/Generated/UCPROBE/probe_com.c **** 
2046:../Dave/Generated/UCPROBE/probe_com.c **** 
2047:../Dave/Generated/UCPROBE/probe_com.c ****                                                                 /* ------------------ RTN TX PKT SI
2048:../Dave/Generated/UCPROBE/probe_com.c ****     tx_len = (CPU_SIZE_T)PROBE_COM_SIZE_TX_HDR;                 /* Tx pkt size = 4 (= Tx hdr size).
 2600              	 .loc 1 2048 0
 2601 0092 0423     	 mov r3,#4
 2602 0094 3B62     	 str r3,[r7,#32]
2049:../Dave/Generated/UCPROBE/probe_com.c ****     return (tx_len);
 2603              	 .loc 1 2049 0
 2604 0096 3B6A     	 ldr r3,[r7,#32]
 2605              	.L134:
2050:../Dave/Generated/UCPROBE/probe_com.c **** }
 2606              	 .loc 1 2050 0
 2607 0098 181C     	 mov r0,r3
 2608 009a BD46     	 mov sp,r7
 2609 009c 0AB0     	 add sp,sp,#40
 2610              	 
 2611 009e 80BD     	 pop {r7,pc}
 2612              	.L137:
 2613              	 .align 2
 2614              	.L136:
 2615 00a0 00000000 	 .word ProbeCom_TerminalExecHandler
 2616 00a4 00000000 	 .word ProbeCom_TerminalExecuting
 2617 00a8 0B800000 	 .word 32779
 2618              	 .cfi_endproc
 2619              	.LFE20:
 2621              	 .section .text.ProbeCom_ReqTerminalIn,"ax",%progbits
 2622              	 .align 2
 2623              	 .code 16
 2624              	 .thumb_func
 2626              	ProbeCom_ReqTerminalIn:
 2627              	.LFB21:
2051:../Dave/Generated/UCPROBE/probe_com.c **** #endif
2052:../Dave/Generated/UCPROBE/probe_com.c **** 
2053:../Dave/Generated/UCPROBE/probe_com.c **** 
2054:../Dave/Generated/UCPROBE/probe_com.c **** /*
2055:../Dave/Generated/UCPROBE/probe_com.c **** ***************************************************************************************************
2056:../Dave/Generated/UCPROBE/probe_com.c **** *                                      ProbeCom_ReqTerminalIn()
2057:../Dave/Generated/UCPROBE/probe_com.c **** *
2058:../Dave/Generated/UCPROBE/probe_com.c **** * Description : Parse the FMT_TERMINAL_IN command & formulate response.  This command sends a termi
2059:../Dave/Generated/UCPROBE/probe_com.c **** *               input to the target.
2060:../Dave/Generated/UCPROBE/probe_com.c **** *
2061:../Dave/Generated/UCPROBE/probe_com.c **** * Argument(s) : prx_buf         Pointer to the receive  buffer
2062:../Dave/Generated/UCPROBE/probe_com.c **** *
2063:../Dave/Generated/UCPROBE/probe_com.c **** *               ptx_buf         Pointer to the transmit buffer
2064:../Dave/Generated/UCPROBE/probe_com.c **** *
2065:../Dave/Generated/UCPROBE/probe_com.c **** *               rx_pkt_size     Size of the receive  packet
2066:../Dave/Generated/UCPROBE/probe_com.c **** *
2067:../Dave/Generated/UCPROBE/probe_com.c **** *               tx_buf_size     Size of the transmit buffer
2068:../Dave/Generated/UCPROBE/probe_com.c **** *
2069:../Dave/Generated/UCPROBE/probe_com.c **** * Return(s)   : The number of bytes written to the tx buffer.
2070:../Dave/Generated/UCPROBE/probe_com.c **** *
2071:../Dave/Generated/UCPROBE/probe_com.c **** * Caller(s)   : ProbeCom_ParseRxPkt().
2072:../Dave/Generated/UCPROBE/probe_com.c **** *
2073:../Dave/Generated/UCPROBE/probe_com.c **** * Note(s)     : (1) The RX format:
2074:../Dave/Generated/UCPROBE/probe_com.c **** *
2075:../Dave/Generated/UCPROBE/probe_com.c **** *                   (A) A 2-byte format, indicating the data segment format;
2076:../Dave/Generated/UCPROBE/probe_com.c **** *                   (B) A 2-byte padding;
2077:../Dave/Generated/UCPROBE/probe_com.c **** *                   (C) A n-byte string.
2078:../Dave/Generated/UCPROBE/probe_com.c **** *
2079:../Dave/Generated/UCPROBE/probe_com.c **** *                         +-------------------------+-------------------------+
2080:../Dave/Generated/UCPROBE/probe_com.c **** *                         |          Format         |         Padding         |
2081:../Dave/Generated/UCPROBE/probe_com.c **** *                         +-------------------------+-------------------------+
2082:../Dave/Generated/UCPROBE/probe_com.c **** *                         |                   Terminal Input                  |
2083:../Dave/Generated/UCPROBE/probe_com.c **** *                         |                         .                         |
2084:../Dave/Generated/UCPROBE/probe_com.c **** *                         |                         .                         |
2085:../Dave/Generated/UCPROBE/probe_com.c **** *                         |                         .                         |
2086:../Dave/Generated/UCPROBE/probe_com.c **** *                         +---------------------------------------------------+
2087:../Dave/Generated/UCPROBE/probe_com.c **** *
2088:../Dave/Generated/UCPROBE/probe_com.c **** *               (2) The TX format:
2089:../Dave/Generated/UCPROBE/probe_com.c **** *
2090:../Dave/Generated/UCPROBE/probe_com.c **** *                   (A) A 2-byte format, indicating the data segment format;
2091:../Dave/Generated/UCPROBE/probe_com.c **** *                   (B) A 1-byte status, indicating the status after the request;
2092:../Dave/Generated/UCPROBE/probe_com.c **** *                   (C) A 1-byte modifier.
2093:../Dave/Generated/UCPROBE/probe_com.c **** *
2094:../Dave/Generated/UCPROBE/probe_com.c **** *                         +-------------------------+------------+------------+
2095:../Dave/Generated/UCPROBE/probe_com.c **** *                         |          Format         |   Status   |  Modifier  |
2096:../Dave/Generated/UCPROBE/probe_com.c **** *                         +-------------------------+------------+------------+
2097:../Dave/Generated/UCPROBE/probe_com.c **** *
2098:../Dave/Generated/UCPROBE/probe_com.c **** ***************************************************************************************************
2099:../Dave/Generated/UCPROBE/probe_com.c **** */
2100:../Dave/Generated/UCPROBE/probe_com.c **** 
2101:../Dave/Generated/UCPROBE/probe_com.c **** #if (PROBE_COM_CFG_TERMINAL_REQ_EN == DEF_ENABLED)
2102:../Dave/Generated/UCPROBE/probe_com.c **** static  CPU_SIZE_T  ProbeCom_ReqTerminalIn (CPU_INT08U  *prx_buf,
2103:../Dave/Generated/UCPROBE/probe_com.c ****                                             CPU_INT08U  *ptx_buf,
2104:../Dave/Generated/UCPROBE/probe_com.c ****                                             CPU_SIZE_T   rx_pkt_size,
2105:../Dave/Generated/UCPROBE/probe_com.c ****                                             CPU_SIZE_T   tx_buf_size)
2106:../Dave/Generated/UCPROBE/probe_com.c **** {
 2628              	 .loc 1 2106 0
 2629              	 .cfi_startproc
 2630 0000 80B5     	 push {r7,lr}
 2631              	.LCFI63:
 2632              	 .cfi_def_cfa_offset 8
 2633              	 .cfi_offset 7,-8
 2634              	 .cfi_offset 14,-4
 2635 0002 8AB0     	 sub sp,sp,#40
 2636              	.LCFI64:
 2637              	 .cfi_def_cfa_offset 48
 2638 0004 00AF     	 add r7,sp,#0
 2639              	.LCFI65:
 2640              	 .cfi_def_cfa_register 7
 2641 0006 F860     	 str r0,[r7,#12]
 2642 0008 B960     	 str r1,[r7,#8]
 2643 000a 7A60     	 str r2,[r7,#4]
 2644 000c 3B60     	 str r3,[r7]
2107:../Dave/Generated/UCPROBE/probe_com.c ****     PROBE_COM_TERMINAL_IN_FNCT   handler;
2108:../Dave/Generated/UCPROBE/probe_com.c ****     CPU_SIZE_T                   len;
2109:../Dave/Generated/UCPROBE/probe_com.c ****     CPU_SIZE_T                   tx_len;
2110:../Dave/Generated/UCPROBE/probe_com.c ****     CPU_INT08U                  *pstr;
2111:../Dave/Generated/UCPROBE/probe_com.c ****     CPU_SR_ALLOC();
 2645              	 .loc 1 2111 0
 2646 000e 0023     	 mov r3,#0
 2647 0010 7B62     	 str r3,[r7,#36]
2112:../Dave/Generated/UCPROBE/probe_com.c **** 
2113:../Dave/Generated/UCPROBE/probe_com.c **** 
2114:../Dave/Generated/UCPROBE/probe_com.c ****    (void)&tx_buf_size;                                          /* Prevent compiler warning.       
2115:../Dave/Generated/UCPROBE/probe_com.c **** 
2116:../Dave/Generated/UCPROBE/probe_com.c **** 
2117:../Dave/Generated/UCPROBE/probe_com.c ****                                                                 /* ------------------- CHK PKT SIZE
2118:../Dave/Generated/UCPROBE/probe_com.c ****                                                                 /* Expected size = 2 (= Rx hdr size
2119:../Dave/Generated/UCPROBE/probe_com.c ****                                                                 /*               + 2 (= Padding    
2120:../Dave/Generated/UCPROBE/probe_com.c ****     if (rx_pkt_size <= 4u) {
 2648              	 .loc 1 2120 0
 2649 0012 7B68     	 ldr r3,[r7,#4]
 2650 0014 042B     	 cmp r3,#4
 2651 0016 08D8     	 bhi .L139
2121:../Dave/Generated/UCPROBE/probe_com.c ****         tx_len = ProbeCom_ReqErr(ptx_buf, PROBE_COM_STATUS_RX_PKT_WRONG_SIZE);
 2652              	 .loc 1 2121 0
 2653 0018 BB68     	 ldr r3,[r7,#8]
 2654 001a 181C     	 mov r0,r3
 2655 001c FE21     	 mov r1,#254
 2656 001e FFF7FEFF 	 bl ProbeCom_ReqErr
 2657 0022 031C     	 mov r3,r0
 2658 0024 3B62     	 str r3,[r7,#32]
2122:../Dave/Generated/UCPROBE/probe_com.c ****         return (tx_len);
 2659              	 .loc 1 2122 0
 2660 0026 3B6A     	 ldr r3,[r7,#32]
 2661 0028 33E0     	 b .L140
 2662              	.L139:
2123:../Dave/Generated/UCPROBE/probe_com.c ****     }
2124:../Dave/Generated/UCPROBE/probe_com.c **** 
2125:../Dave/Generated/UCPROBE/probe_com.c **** 
2126:../Dave/Generated/UCPROBE/probe_com.c **** 
2127:../Dave/Generated/UCPROBE/probe_com.c ****                                                                 /* -------------------- HANDLE STR 
2128:../Dave/Generated/UCPROBE/probe_com.c ****     CPU_CRITICAL_ENTER();
 2663              	 .loc 1 2128 0
 2664 002a FFF7FEFF 	 bl CPU_SR_Save
 2665 002e 031C     	 mov r3,r0
 2666 0030 7B62     	 str r3,[r7,#36]
2129:../Dave/Generated/UCPROBE/probe_com.c ****     handler = ProbeCom_TerminalInHandler;
 2667              	 .loc 1 2129 0
 2668 0032 1A4B     	 ldr r3,.L142
 2669 0034 1B68     	 ldr r3,[r3]
 2670 0036 FB61     	 str r3,[r7,#28]
2130:../Dave/Generated/UCPROBE/probe_com.c ****     CPU_CRITICAL_EXIT();
 2671              	 .loc 1 2130 0
 2672 0038 7B6A     	 ldr r3,[r7,#36]
 2673 003a 181C     	 mov r0,r3
 2674 003c FFF7FEFF 	 bl CPU_SR_Restore
2131:../Dave/Generated/UCPROBE/probe_com.c **** 
2132:../Dave/Generated/UCPROBE/probe_com.c ****     if (handler != (PROBE_COM_TERMINAL_IN_FNCT)0) {             /* If handler assigned.            
 2675              	 .loc 1 2132 0
 2676 0040 FB69     	 ldr r3,[r7,#28]
 2677 0042 002B     	 cmp r3,#0
 2678 0044 0BD0     	 beq .L141
2133:../Dave/Generated/UCPROBE/probe_com.c ****         pstr = prx_buf     + 4u;
 2679              	 .loc 1 2133 0
 2680 0046 FB68     	 ldr r3,[r7,#12]
 2681 0048 0433     	 add r3,r3,#4
 2682 004a BB61     	 str r3,[r7,#24]
2134:../Dave/Generated/UCPROBE/probe_com.c ****         len  = rx_pkt_size - 4u;
 2683              	 .loc 1 2134 0
 2684 004c 7B68     	 ldr r3,[r7,#4]
 2685 004e 043B     	 sub r3,r3,#4
 2686 0050 7B61     	 str r3,[r7,#20]
2135:../Dave/Generated/UCPROBE/probe_com.c **** 
2136:../Dave/Generated/UCPROBE/probe_com.c ****         handler((CPU_CHAR *)pstr,
 2687              	 .loc 1 2136 0
 2688 0052 B969     	 ldr r1,[r7,#24]
 2689 0054 7A69     	 ldr r2,[r7,#20]
 2690 0056 FB69     	 ldr r3,[r7,#28]
 2691 0058 081C     	 mov r0,r1
 2692 005a 111C     	 mov r1,r2
 2693 005c 9847     	 blx r3
 2694              	.L141:
2137:../Dave/Generated/UCPROBE/probe_com.c ****                 (CPU_SIZE_T)len);
2138:../Dave/Generated/UCPROBE/probe_com.c ****     }
2139:../Dave/Generated/UCPROBE/probe_com.c **** 
2140:../Dave/Generated/UCPROBE/probe_com.c **** 
2141:../Dave/Generated/UCPROBE/probe_com.c **** 
2142:../Dave/Generated/UCPROBE/probe_com.c ****                                                                 /* ------------------ STORE RESPONS
2143:../Dave/Generated/UCPROBE/probe_com.c ****                                                                 /* Sto tx pkt hdr :                
2144:../Dave/Generated/UCPROBE/probe_com.c ****     ProbeCom_StoINT16U(&ptx_buf, PROBE_COM_FMT_TX_TERMINAL_IN); /* (a) Tx pkt fmt.                 
 2695              	 .loc 1 2144 0
 2696 005e 0823     	 mov r3,#8
 2697 0060 FB18     	 add r3,r7,r3
 2698 0062 0F4A     	 ldr r2,.L142+4
 2699 0064 181C     	 mov r0,r3
 2700 0066 111C     	 mov r1,r2
 2701 0068 FFF7FEFF 	 bl ProbeCom_StoINT16U
2145:../Dave/Generated/UCPROBE/probe_com.c ****     ProbeCom_StoINT08U(&ptx_buf, PROBE_COM_STATUS_OK);          /* (b) Target status.              
 2702              	 .loc 1 2145 0
 2703 006c 0823     	 mov r3,#8
 2704 006e FB18     	 add r3,r7,r3
 2705 0070 181C     	 mov r0,r3
 2706 0072 0121     	 mov r1,#1
 2707 0074 FFF7FEFF 	 bl ProbeCom_StoINT08U
2146:../Dave/Generated/UCPROBE/probe_com.c ****     ProbeCom_StoINT08U(&ptx_buf, ProbeCom_PktModifier());       /* (c) Modifier.                   
 2708              	 .loc 1 2146 0
 2709 0078 FFF7FEFF 	 bl ProbeCom_PktModifier
 2710 007c 031C     	 mov r3,r0
 2711 007e 1A1C     	 mov r2,r3
 2712 0080 0823     	 mov r3,#8
 2713 0082 FB18     	 add r3,r7,r3
 2714 0084 181C     	 mov r0,r3
 2715 0086 111C     	 mov r1,r2
 2716 0088 FFF7FEFF 	 bl ProbeCom_StoINT08U
2147:../Dave/Generated/UCPROBE/probe_com.c **** 
2148:../Dave/Generated/UCPROBE/probe_com.c **** 
2149:../Dave/Generated/UCPROBE/probe_com.c **** 
2150:../Dave/Generated/UCPROBE/probe_com.c ****                                                                 /* ------------------ RTN TX PKT SI
2151:../Dave/Generated/UCPROBE/probe_com.c ****     tx_len = (CPU_SIZE_T)PROBE_COM_SIZE_TX_HDR;                 /* Tx pkt size = 4 (= Tx hdr size).
 2717              	 .loc 1 2151 0
 2718 008c 0423     	 mov r3,#4
 2719 008e 3B62     	 str r3,[r7,#32]
2152:../Dave/Generated/UCPROBE/probe_com.c ****     return (tx_len);
 2720              	 .loc 1 2152 0
 2721 0090 3B6A     	 ldr r3,[r7,#32]
 2722              	.L140:
2153:../Dave/Generated/UCPROBE/probe_com.c **** }
 2723              	 .loc 1 2153 0
 2724 0092 181C     	 mov r0,r3
 2725 0094 BD46     	 mov sp,r7
 2726 0096 0AB0     	 add sp,sp,#40
 2727              	 
 2728 0098 80BD     	 pop {r7,pc}
 2729              	.L143:
 2730 009a C046     	 .align 2
 2731              	.L142:
 2732 009c 00000000 	 .word ProbeCom_TerminalInHandler
 2733 00a0 0D800000 	 .word 32781
 2734              	 .cfi_endproc
 2735              	.LFE21:
 2737              	 .section .text.ProbeCom_ReqTerminalOut,"ax",%progbits
 2738              	 .align 2
 2739              	 .code 16
 2740              	 .thumb_func
 2742              	ProbeCom_ReqTerminalOut:
 2743              	.LFB22:
2154:../Dave/Generated/UCPROBE/probe_com.c **** #endif
2155:../Dave/Generated/UCPROBE/probe_com.c **** 
2156:../Dave/Generated/UCPROBE/probe_com.c **** 
2157:../Dave/Generated/UCPROBE/probe_com.c **** /*
2158:../Dave/Generated/UCPROBE/probe_com.c **** ***************************************************************************************************
2159:../Dave/Generated/UCPROBE/probe_com.c **** *                                      ProbeCom_ReqTerminalOut()
2160:../Dave/Generated/UCPROBE/probe_com.c **** *
2161:../Dave/Generated/UCPROBE/probe_com.c **** * Description : Parse the FMT_TERMINAL_OUT command & formulate response.  This command asks the tar
2162:../Dave/Generated/UCPROBE/probe_com.c **** *               send terminal output that it is currently storing.
2163:../Dave/Generated/UCPROBE/probe_com.c **** *
2164:../Dave/Generated/UCPROBE/probe_com.c **** * Argument(s) : prx_buf         Pointer to the receive  buffer
2165:../Dave/Generated/UCPROBE/probe_com.c **** *
2166:../Dave/Generated/UCPROBE/probe_com.c **** *               ptx_buf         Pointer to the transmit buffer
2167:../Dave/Generated/UCPROBE/probe_com.c **** *
2168:../Dave/Generated/UCPROBE/probe_com.c **** *               rx_pkt_size     Size of the receive  packet
2169:../Dave/Generated/UCPROBE/probe_com.c **** *
2170:../Dave/Generated/UCPROBE/probe_com.c **** *               tx_buf_size     Size of the transmit buffer
2171:../Dave/Generated/UCPROBE/probe_com.c **** *
2172:../Dave/Generated/UCPROBE/probe_com.c **** * Return(s)   : The number of bytes written to the tx buffer.
2173:../Dave/Generated/UCPROBE/probe_com.c **** *
2174:../Dave/Generated/UCPROBE/probe_com.c **** * Caller(s)   : ProbeCom_ParseRxPkt().
2175:../Dave/Generated/UCPROBE/probe_com.c **** *
2176:../Dave/Generated/UCPROBE/probe_com.c **** * Note(s)     : (1) The RX format:
2177:../Dave/Generated/UCPROBE/probe_com.c **** *
2178:../Dave/Generated/UCPROBE/probe_com.c **** *                   (A) A 2-byte format, indicating the data segment format;
2179:../Dave/Generated/UCPROBE/probe_com.c **** *                   (B) A 2-byte padding.
2180:../Dave/Generated/UCPROBE/probe_com.c **** *
2181:../Dave/Generated/UCPROBE/probe_com.c **** *                         +-------------------------+-------------------------+
2182:../Dave/Generated/UCPROBE/probe_com.c **** *                         |          Format         |         Padding         |
2183:../Dave/Generated/UCPROBE/probe_com.c **** *                         +-------------------------+-------------------------+
2184:../Dave/Generated/UCPROBE/probe_com.c **** *
2185:../Dave/Generated/UCPROBE/probe_com.c **** *               (2) The TX format:
2186:../Dave/Generated/UCPROBE/probe_com.c **** *
2187:../Dave/Generated/UCPROBE/probe_com.c **** *                   (A) A 2-byte format, indicating the data segment format;
2188:../Dave/Generated/UCPROBE/probe_com.c **** *                   (B) A 1-byte status, indicating the status after the request;
2189:../Dave/Generated/UCPROBE/probe_com.c **** *                   (C) A 1-byte modifier;
2190:../Dave/Generated/UCPROBE/probe_com.c **** *                   (D) A n-byte string, the string which is stored in the target's buffer.
2191:../Dave/Generated/UCPROBE/probe_com.c **** *
2192:../Dave/Generated/UCPROBE/probe_com.c **** *                         +-------------------------+------------+------------+
2193:../Dave/Generated/UCPROBE/probe_com.c **** *                         |          Format         |   Status   |  Modifier  |
2194:../Dave/Generated/UCPROBE/probe_com.c **** *                         +-------------------------+------------+------------+
2195:../Dave/Generated/UCPROBE/probe_com.c **** *                         |                  Terminal Output                  |
2196:../Dave/Generated/UCPROBE/probe_com.c **** *                         |                         .                         |
2197:../Dave/Generated/UCPROBE/probe_com.c **** *                         |                         .                         |
2198:../Dave/Generated/UCPROBE/probe_com.c **** *                         |                         .                         |
2199:../Dave/Generated/UCPROBE/probe_com.c **** *                         +---------------------------------------------------+
2200:../Dave/Generated/UCPROBE/probe_com.c **** *
2201:../Dave/Generated/UCPROBE/probe_com.c **** *               (3) See Notes for 'ProbeCom_StrWr()'.
2202:../Dave/Generated/UCPROBE/probe_com.c **** *
2203:../Dave/Generated/UCPROBE/probe_com.c **** *               (4) Probe requires that a NULL byte ends the string.  Consequently, if the data
2204:../Dave/Generated/UCPROBE/probe_com.c **** *                   section of the TX packet is n bytes long, then only (n - 1) bytes have been rea
2205:../Dave/Generated/UCPROBE/probe_com.c **** *                   the string buffer.
2206:../Dave/Generated/UCPROBE/probe_com.c **** *
2207:../Dave/Generated/UCPROBE/probe_com.c **** *               (5) A NULL modifier is returned so that string transmission will not monopolize the
2208:../Dave/Generated/UCPROBE/probe_com.c **** *                   transmission channel.  If more string is queued in the string buffer, additiona
2209:../Dave/Generated/UCPROBE/probe_com.c **** *                   string bytes will be sent following the response to the next received packet.
2210:../Dave/Generated/UCPROBE/probe_com.c **** ***************************************************************************************************
2211:../Dave/Generated/UCPROBE/probe_com.c **** */
2212:../Dave/Generated/UCPROBE/probe_com.c **** 
2213:../Dave/Generated/UCPROBE/probe_com.c **** #if (PROBE_COM_CFG_TERMINAL_REQ_EN == DEF_TRUE)
2214:../Dave/Generated/UCPROBE/probe_com.c **** static  CPU_SIZE_T  ProbeCom_ReqTerminalOut (CPU_INT08U  *prx_buf,
2215:../Dave/Generated/UCPROBE/probe_com.c ****                                              CPU_INT08U  *ptx_buf,
2216:../Dave/Generated/UCPROBE/probe_com.c ****                                              CPU_SIZE_T   rx_pkt_size,
2217:../Dave/Generated/UCPROBE/probe_com.c ****                                              CPU_SIZE_T   tx_buf_size)
2218:../Dave/Generated/UCPROBE/probe_com.c **** {
 2744              	 .loc 1 2218 0
 2745              	 .cfi_startproc
 2746 0000 80B5     	 push {r7,lr}
 2747              	.LCFI66:
 2748              	 .cfi_def_cfa_offset 8
 2749              	 .cfi_offset 7,-8
 2750              	 .cfi_offset 14,-4
 2751 0002 8AB0     	 sub sp,sp,#40
 2752              	.LCFI67:
 2753              	 .cfi_def_cfa_offset 48
 2754 0004 00AF     	 add r7,sp,#0
 2755              	.LCFI68:
 2756              	 .cfi_def_cfa_register 7
 2757 0006 F860     	 str r0,[r7,#12]
 2758 0008 B960     	 str r1,[r7,#8]
 2759 000a 7A60     	 str r2,[r7,#4]
 2760 000c 3B60     	 str r3,[r7]
2219:../Dave/Generated/UCPROBE/probe_com.c ****     CPU_SIZE_T   buf_ix;
2220:../Dave/Generated/UCPROBE/probe_com.c ****     CPU_SIZE_T   buf_len;
2221:../Dave/Generated/UCPROBE/probe_com.c ****     CPU_SIZE_T   tx_len;
2222:../Dave/Generated/UCPROBE/probe_com.c ****     CPU_SIZE_T   tx_max;
2223:../Dave/Generated/UCPROBE/probe_com.c ****     CPU_INT08U  *pbuf;
2224:../Dave/Generated/UCPROBE/probe_com.c ****     CPU_SR_ALLOC();
 2761              	 .loc 1 2224 0
 2762 000e 0023     	 mov r3,#0
 2763 0010 3B62     	 str r3,[r7,#32]
2225:../Dave/Generated/UCPROBE/probe_com.c **** 
2226:../Dave/Generated/UCPROBE/probe_com.c **** 
2227:../Dave/Generated/UCPROBE/probe_com.c ****    (void)&prx_buf;                                              /* Prevent compiler warning.       
2228:../Dave/Generated/UCPROBE/probe_com.c **** 
2229:../Dave/Generated/UCPROBE/probe_com.c **** 
2230:../Dave/Generated/UCPROBE/probe_com.c ****                                                                 /* ------------------- CHK PKT SIZE
2231:../Dave/Generated/UCPROBE/probe_com.c ****                                                                 /* Expected size = 2 (= Rx hdr size
2232:../Dave/Generated/UCPROBE/probe_com.c ****                                                                 /*               + 2 (= Padding    
2233:../Dave/Generated/UCPROBE/probe_com.c ****     if (rx_pkt_size != 4u) {
 2764              	 .loc 1 2233 0
 2765 0012 7B68     	 ldr r3,[r7,#4]
 2766 0014 042B     	 cmp r3,#4
 2767 0016 08D0     	 beq .L145
2234:../Dave/Generated/UCPROBE/probe_com.c ****         tx_len = ProbeCom_ReqErr(ptx_buf, PROBE_COM_STATUS_RX_PKT_WRONG_SIZE);
 2768              	 .loc 1 2234 0
 2769 0018 BB68     	 ldr r3,[r7,#8]
 2770 001a 181C     	 mov r0,r3
 2771 001c FE21     	 mov r1,#254
 2772 001e FFF7FEFF 	 bl ProbeCom_ReqErr
 2773 0022 031C     	 mov r3,r0
 2774 0024 FB61     	 str r3,[r7,#28]
2235:../Dave/Generated/UCPROBE/probe_com.c ****         return (tx_len);
 2775              	 .loc 1 2235 0
 2776 0026 FB69     	 ldr r3,[r7,#28]
 2777 0028 70E0     	 b .L146
 2778              	.L145:
2236:../Dave/Generated/UCPROBE/probe_com.c ****     }
2237:../Dave/Generated/UCPROBE/probe_com.c **** 
2238:../Dave/Generated/UCPROBE/probe_com.c ****     CPU_CRITICAL_ENTER();
 2779              	 .loc 1 2238 0
 2780 002a FFF7FEFF 	 bl CPU_SR_Save
 2781 002e 031C     	 mov r3,r0
 2782 0030 3B62     	 str r3,[r7,#32]
2239:../Dave/Generated/UCPROBE/probe_com.c ****     pbuf    = ProbeCom_TerminalOutBufPtr;
 2783              	 .loc 1 2239 0
 2784 0032 384B     	 ldr r3,.L151
 2785 0034 1B68     	 ldr r3,[r3]
 2786 0036 BB61     	 str r3,[r7,#24]
2240:../Dave/Generated/UCPROBE/probe_com.c ****     buf_ix  = ProbeCom_TerminalOutBufIx;
 2787              	 .loc 1 2240 0
 2788 0038 374B     	 ldr r3,.L151+4
 2789 003a 1B68     	 ldr r3,[r3]
 2790 003c 7B61     	 str r3,[r7,#20]
2241:../Dave/Generated/UCPROBE/probe_com.c ****     buf_len = ProbeCom_TerminalOutBufLen;
 2791              	 .loc 1 2241 0
 2792 003e 374B     	 ldr r3,.L151+8
 2793 0040 1B68     	 ldr r3,[r3]
 2794 0042 3B61     	 str r3,[r7,#16]
2242:../Dave/Generated/UCPROBE/probe_com.c ****     CPU_CRITICAL_EXIT();
 2795              	 .loc 1 2242 0
 2796 0044 3B6A     	 ldr r3,[r7,#32]
 2797 0046 181C     	 mov r0,r3
 2798 0048 FFF7FEFF 	 bl CPU_SR_Restore
2243:../Dave/Generated/UCPROBE/probe_com.c **** 
2244:../Dave/Generated/UCPROBE/probe_com.c ****     if (pbuf == (CPU_INT08U *)0) {
 2799              	 .loc 1 2244 0
 2800 004c BB69     	 ldr r3,[r7,#24]
 2801 004e 002B     	 cmp r3,#0
 2802 0050 08D1     	 bne .L147
2245:../Dave/Generated/UCPROBE/probe_com.c ****         tx_len = ProbeCom_ReqErr(ptx_buf, PROBE_COM_STATUS_TERMINAL_OUT_NONE);
 2803              	 .loc 1 2245 0
 2804 0052 BB68     	 ldr r3,[r7,#8]
 2805 0054 181C     	 mov r0,r3
 2806 0056 F621     	 mov r1,#246
 2807 0058 FFF7FEFF 	 bl ProbeCom_ReqErr
 2808 005c 031C     	 mov r3,r0
 2809 005e FB61     	 str r3,[r7,#28]
2246:../Dave/Generated/UCPROBE/probe_com.c ****         return (tx_len);
 2810              	 .loc 1 2246 0
 2811 0060 FB69     	 ldr r3,[r7,#28]
 2812 0062 53E0     	 b .L146
 2813              	.L147:
2247:../Dave/Generated/UCPROBE/probe_com.c ****     }
2248:../Dave/Generated/UCPROBE/probe_com.c **** 
2249:../Dave/Generated/UCPROBE/probe_com.c ****     if (buf_ix == buf_len) {
 2814              	 .loc 1 2249 0
 2815 0064 7A69     	 ldr r2,[r7,#20]
 2816 0066 3B69     	 ldr r3,[r7,#16]
 2817 0068 9A42     	 cmp r2,r3
 2818 006a 08D1     	 bne .L148
2250:../Dave/Generated/UCPROBE/probe_com.c ****         tx_len = ProbeCom_ReqErr(ptx_buf, PROBE_COM_STATUS_TERMINAL_OUT_NONE);
 2819              	 .loc 1 2250 0
 2820 006c BB68     	 ldr r3,[r7,#8]
 2821 006e 181C     	 mov r0,r3
 2822 0070 F621     	 mov r1,#246
 2823 0072 FFF7FEFF 	 bl ProbeCom_ReqErr
 2824 0076 031C     	 mov r3,r0
 2825 0078 FB61     	 str r3,[r7,#28]
2251:../Dave/Generated/UCPROBE/probe_com.c ****         return (tx_len);
 2826              	 .loc 1 2251 0
 2827 007a FB69     	 ldr r3,[r7,#28]
 2828 007c 46E0     	 b .L146
 2829              	.L148:
2252:../Dave/Generated/UCPROBE/probe_com.c ****     }
2253:../Dave/Generated/UCPROBE/probe_com.c **** 
2254:../Dave/Generated/UCPROBE/probe_com.c ****     tx_max = buf_len - buf_ix;
 2830              	 .loc 1 2254 0
 2831 007e 3A69     	 ldr r2,[r7,#16]
 2832 0080 7B69     	 ldr r3,[r7,#20]
 2833 0082 D31A     	 sub r3,r2,r3
 2834 0084 7B62     	 str r3,[r7,#36]
2255:../Dave/Generated/UCPROBE/probe_com.c ****     if (tx_max > (tx_buf_size - PROBE_COM_SIZE_TX_HDR) - 1) {
 2835              	 .loc 1 2255 0
 2836 0086 3B68     	 ldr r3,[r7]
 2837 0088 5A1F     	 sub r2,r3,#5
 2838 008a 7B6A     	 ldr r3,[r7,#36]
 2839 008c 9A42     	 cmp r2,r3
 2840 008e 02D2     	 bcs .L149
2256:../Dave/Generated/UCPROBE/probe_com.c ****         tx_max = (tx_buf_size - PROBE_COM_SIZE_TX_HDR) - 1;
 2841              	 .loc 1 2256 0
 2842 0090 3B68     	 ldr r3,[r7]
 2843 0092 053B     	 sub r3,r3,#5
 2844 0094 7B62     	 str r3,[r7,#36]
 2845              	.L149:
2257:../Dave/Generated/UCPROBE/probe_com.c ****     }
2258:../Dave/Generated/UCPROBE/probe_com.c **** 
2259:../Dave/Generated/UCPROBE/probe_com.c **** 
2260:../Dave/Generated/UCPROBE/probe_com.c ****                                                                 /* --------------------- STORE OUT 
2261:../Dave/Generated/UCPROBE/probe_com.c ****                                                                 /* Sto TX pkt hdr :                
2262:../Dave/Generated/UCPROBE/probe_com.c ****     ProbeCom_StoINT16U(&ptx_buf, PROBE_COM_FMT_TX_TERMINAL_OUT);/* (a) TX pkt fmt.                 
 2846              	 .loc 1 2262 0
 2847 0096 0823     	 mov r3,#8
 2848 0098 FB18     	 add r3,r7,r3
 2849 009a 214A     	 ldr r2,.L151+12
 2850 009c 181C     	 mov r0,r3
 2851 009e 111C     	 mov r1,r2
 2852 00a0 FFF7FEFF 	 bl ProbeCom_StoINT16U
2263:../Dave/Generated/UCPROBE/probe_com.c ****     ProbeCom_StoINT08U(&ptx_buf, PROBE_COM_STATUS_OK);          /* (b) Target status.              
 2853              	 .loc 1 2263 0
 2854 00a4 0823     	 mov r3,#8
 2855 00a6 FB18     	 add r3,r7,r3
 2856 00a8 181C     	 mov r0,r3
 2857 00aa 0121     	 mov r1,#1
 2858 00ac FFF7FEFF 	 bl ProbeCom_StoINT08U
2264:../Dave/Generated/UCPROBE/probe_com.c ****     ProbeCom_StoINT08U(&ptx_buf, 0);                            /* (c) Modifier (see Notes #5).    
 2859              	 .loc 1 2264 0
 2860 00b0 0823     	 mov r3,#8
 2861 00b2 FB18     	 add r3,r7,r3
 2862 00b4 181C     	 mov r0,r3
 2863 00b6 0021     	 mov r1,#0
 2864 00b8 FFF7FEFF 	 bl ProbeCom_StoINT08U
2265:../Dave/Generated/UCPROBE/probe_com.c **** 
2266:../Dave/Generated/UCPROBE/probe_com.c ****     Mem_Copy((void       *) ptx_buf,                            /* Copy str from buf.              
 2865              	 .loc 1 2266 0
 2866 00bc B968     	 ldr r1,[r7,#8]
 2867 00be BA69     	 ldr r2,[r7,#24]
 2868 00c0 7B69     	 ldr r3,[r7,#20]
 2869 00c2 D218     	 add r2,r2,r3
 2870 00c4 7B6A     	 ldr r3,[r7,#36]
 2871 00c6 081C     	 mov r0,r1
 2872 00c8 111C     	 mov r1,r2
 2873 00ca 1A1C     	 mov r2,r3
 2874 00cc FFF7FEFF 	 bl Mem_Copy
2267:../Dave/Generated/UCPROBE/probe_com.c ****              (void       *)&pbuf[buf_ix],
2268:../Dave/Generated/UCPROBE/probe_com.c ****              (CPU_SIZE_T  ) tx_max);
2269:../Dave/Generated/UCPROBE/probe_com.c **** 
2270:../Dave/Generated/UCPROBE/probe_com.c ****    *(ptx_buf + tx_max)        = (CPU_INT08U)0;                  /* Wr NULL byte.                   
 2875              	 .loc 1 2270 0
 2876 00d0 BA68     	 ldr r2,[r7,#8]
 2877 00d2 7B6A     	 ldr r3,[r7,#36]
 2878 00d4 D318     	 add r3,r2,r3
 2879 00d6 0022     	 mov r2,#0
 2880 00d8 1A70     	 strb r2,[r3]
2271:../Dave/Generated/UCPROBE/probe_com.c **** 
2272:../Dave/Generated/UCPROBE/probe_com.c ****     CPU_CRITICAL_ENTER();
 2881              	 .loc 1 2272 0
 2882 00da FFF7FEFF 	 bl CPU_SR_Save
 2883 00de 031C     	 mov r3,r0
 2884 00e0 3B62     	 str r3,[r7,#32]
2273:../Dave/Generated/UCPROBE/probe_com.c ****     ProbeCom_TerminalOutBufIx = buf_ix + tx_max;                /* Update buf ix.                  
 2885              	 .loc 1 2273 0
 2886 00e2 7A69     	 ldr r2,[r7,#20]
 2887 00e4 7B6A     	 ldr r3,[r7,#36]
 2888 00e6 D218     	 add r2,r2,r3
 2889 00e8 0B4B     	 ldr r3,.L151+4
 2890 00ea 1A60     	 str r2,[r3]
2274:../Dave/Generated/UCPROBE/probe_com.c ****     CPU_CRITICAL_EXIT();
 2891              	 .loc 1 2274 0
 2892 00ec 3B6A     	 ldr r3,[r7,#32]
 2893 00ee 181C     	 mov r0,r3
 2894 00f0 FFF7FEFF 	 bl CPU_SR_Restore
2275:../Dave/Generated/UCPROBE/probe_com.c **** 
2276:../Dave/Generated/UCPROBE/probe_com.c ****     if (buf_ix + tx_max >= buf_len) {
 2895              	 .loc 1 2276 0
 2896 00f4 7A69     	 ldr r2,[r7,#20]
 2897 00f6 7B6A     	 ldr r3,[r7,#36]
 2898 00f8 D218     	 add r2,r2,r3
 2899 00fa 3B69     	 ldr r3,[r7,#16]
 2900 00fc 9A42     	 cmp r2,r3
 2901 00fe 01D3     	 bcc .L150
2277:../Dave/Generated/UCPROBE/probe_com.c ****         ProbeCom_OS_TerminalOutSignal();
 2902              	 .loc 1 2277 0
 2903 0100 FFF7FEFF 	 bl ProbeCom_OS_TerminalOutSignal
 2904              	.L150:
2278:../Dave/Generated/UCPROBE/probe_com.c ****     }
2279:../Dave/Generated/UCPROBE/probe_com.c **** 
2280:../Dave/Generated/UCPROBE/probe_com.c **** 
2281:../Dave/Generated/UCPROBE/probe_com.c ****                                                                 /* ------------------ RTN TX PKT SI
2282:../Dave/Generated/UCPROBE/probe_com.c ****     tx_len = PROBE_COM_SIZE_TX_HDR + tx_max + 1u;
 2905              	 .loc 1 2282 0
 2906 0104 7B6A     	 ldr r3,[r7,#36]
 2907 0106 0533     	 add r3,r3,#5
 2908 0108 FB61     	 str r3,[r7,#28]
2283:../Dave/Generated/UCPROBE/probe_com.c ****     return (tx_len);                                            /* Tx pkt size = 4      (= Tx hdr s
 2909              	 .loc 1 2283 0
 2910 010a FB69     	 ldr r3,[r7,#28]
 2911              	.L146:
2284:../Dave/Generated/UCPROBE/probe_com.c ****                                                                 /*             + nbytes (= Str    s
2285:../Dave/Generated/UCPROBE/probe_com.c ****                                                                 /*             + 1      (= NULL byt
2286:../Dave/Generated/UCPROBE/probe_com.c **** }
 2912              	 .loc 1 2286 0
 2913 010c 181C     	 mov r0,r3
 2914 010e BD46     	 mov sp,r7
 2915 0110 0AB0     	 add sp,sp,#40
 2916              	 
 2917 0112 80BD     	 pop {r7,pc}
 2918              	.L152:
 2919              	 .align 2
 2920              	.L151:
 2921 0114 00000000 	 .word ProbeCom_TerminalOutBufPtr
 2922 0118 00000000 	 .word ProbeCom_TerminalOutBufIx
 2923 011c 00000000 	 .word ProbeCom_TerminalOutBufLen
 2924 0120 0C800000 	 .word 32780
 2925              	 .cfi_endproc
 2926              	.LFE22:
 2928              	 .section .text.ProbeCom_BufInit,"ax",%progbits
 2929              	 .align 2
 2930              	 .code 16
 2931              	 .thumb_func
 2933              	ProbeCom_BufInit:
 2934              	.LFB23:
2287:../Dave/Generated/UCPROBE/probe_com.c **** #endif
2288:../Dave/Generated/UCPROBE/probe_com.c **** 
2289:../Dave/Generated/UCPROBE/probe_com.c **** 
2290:../Dave/Generated/UCPROBE/probe_com.c **** /*
2291:../Dave/Generated/UCPROBE/probe_com.c **** ***************************************************************************************************
2292:../Dave/Generated/UCPROBE/probe_com.c **** *                                         ProbeCom_BufInit()
2293:../Dave/Generated/UCPROBE/probe_com.c **** *
2294:../Dave/Generated/UCPROBE/probe_com.c **** * Description : Initialize buffer.
2295:../Dave/Generated/UCPROBE/probe_com.c **** *
2296:../Dave/Generated/UCPROBE/probe_com.c **** * Argument(s) : pbuf            Pointer to buffer.
2297:../Dave/Generated/UCPROBE/probe_com.c **** *
2298:../Dave/Generated/UCPROBE/probe_com.c **** *               pdata           Pointer to buffer data.
2299:../Dave/Generated/UCPROBE/probe_com.c **** *
2300:../Dave/Generated/UCPROBE/probe_com.c **** *               len             Buffer length.
2301:../Dave/Generated/UCPROBE/probe_com.c **** *
2302:../Dave/Generated/UCPROBE/probe_com.c **** * Return(s)   : none.
2303:../Dave/Generated/UCPROBE/probe_com.c **** *
2304:../Dave/Generated/UCPROBE/probe_com.c **** * Caller(s)   : Application.
2305:../Dave/Generated/UCPROBE/probe_com.c **** *
2306:../Dave/Generated/UCPROBE/probe_com.c **** * Note(s)     : (1) The string buffer is implemented as a circular buffer.  This function is one of
2307:../Dave/Generated/UCPROBE/probe_com.c **** *                   points of access for this buffer, the other being in the task or ISR which form
2308:../Dave/Generated/UCPROBE/probe_com.c **** *                   tx packets.  Only this function should modify the global current write index
2309:../Dave/Generated/UCPROBE/probe_com.c **** *                   (pbuf->IxWr); only the task or ISR which forms the packets should modify the gl
2310:../Dave/Generated/UCPROBE/probe_com.c **** *                   current read index (pbuf->IxRd).
2311:../Dave/Generated/UCPROBE/probe_com.c **** *
2312:../Dave/Generated/UCPROBE/probe_com.c **** *               (2) The global current write index (pbuf->IxWr) is the index of the next location i
2313:../Dave/Generated/UCPROBE/probe_com.c **** *                   buffer to write.  The global current read index (pbuf->IxRd) is the index of th
2314:../Dave/Generated/UCPROBE/probe_com.c **** *                   location in the buffer to read.
2315:../Dave/Generated/UCPROBE/probe_com.c **** *
2316:../Dave/Generated/UCPROBE/probe_com.c **** *               (3) The string buffer, an array of pbuf->Len bytes, can only hold (pbuf->Len - 1) b
2317:../Dave/Generated/UCPROBE/probe_com.c **** *                   so that the condition
2318:../Dave/Generated/UCPROBE/probe_com.c **** *
2319:../Dave/Generated/UCPROBE/probe_com.c **** *                                        pbuf->IxWr == pbuf->IxRd
2320:../Dave/Generated/UCPROBE/probe_com.c **** *
2321:../Dave/Generated/UCPROBE/probe_com.c **** *                   will be true if and only if the buffer is empty.  Consequently, this function
2322:../Dave/Generated/UCPROBE/probe_com.c **** *                   always leaves an empty space in the buffer.
2323:../Dave/Generated/UCPROBE/probe_com.c **** ***************************************************************************************************
2324:../Dave/Generated/UCPROBE/probe_com.c **** */
2325:../Dave/Generated/UCPROBE/probe_com.c **** 
2326:../Dave/Generated/UCPROBE/probe_com.c **** #if (PROBE_COM_CFG_STR_REQ_EN == DEF_TRUE)
2327:../Dave/Generated/UCPROBE/probe_com.c **** static  void  ProbeCom_BufInit (PROBE_COM_BUF  *pbuf,
2328:../Dave/Generated/UCPROBE/probe_com.c ****                                 CPU_INT08U     *pdata,
2329:../Dave/Generated/UCPROBE/probe_com.c ****                                 CPU_SIZE_T      len)
2330:../Dave/Generated/UCPROBE/probe_com.c **** {
 2935              	 .loc 1 2330 0
 2936              	 .cfi_startproc
 2937 0000 80B5     	 push {r7,lr}
 2938              	.LCFI69:
 2939              	 .cfi_def_cfa_offset 8
 2940              	 .cfi_offset 7,-8
 2941              	 .cfi_offset 14,-4
 2942 0002 84B0     	 sub sp,sp,#16
 2943              	.LCFI70:
 2944              	 .cfi_def_cfa_offset 24
 2945 0004 00AF     	 add r7,sp,#0
 2946              	.LCFI71:
 2947              	 .cfi_def_cfa_register 7
 2948 0006 F860     	 str r0,[r7,#12]
 2949 0008 B960     	 str r1,[r7,#8]
 2950 000a 7A60     	 str r2,[r7,#4]
2331:../Dave/Generated/UCPROBE/probe_com.c ****     pbuf->Len      = len;
 2951              	 .loc 1 2331 0
 2952 000c FB68     	 ldr r3,[r7,#12]
 2953 000e 7A68     	 ldr r2,[r7,#4]
 2954 0010 1A60     	 str r2,[r3]
2332:../Dave/Generated/UCPROBE/probe_com.c ****     pbuf->IxRd     = 0;
 2955              	 .loc 1 2332 0
 2956 0012 FB68     	 ldr r3,[r7,#12]
 2957 0014 0022     	 mov r2,#0
 2958 0016 5A60     	 str r2,[r3,#4]
2333:../Dave/Generated/UCPROBE/probe_com.c ****     pbuf->IxWr     = 0;
 2959              	 .loc 1 2333 0
 2960 0018 FB68     	 ldr r3,[r7,#12]
 2961 001a 0022     	 mov r2,#0
 2962 001c 9A60     	 str r2,[r3,#8]
2334:../Dave/Generated/UCPROBE/probe_com.c ****     pbuf->DataPtr  = pdata;
 2963              	 .loc 1 2334 0
 2964 001e FB68     	 ldr r3,[r7,#12]
 2965 0020 BA68     	 ldr r2,[r7,#8]
 2966 0022 DA60     	 str r2,[r3,#12]
2335:../Dave/Generated/UCPROBE/probe_com.c **** }
 2967              	 .loc 1 2335 0
 2968 0024 BD46     	 mov sp,r7
 2969 0026 04B0     	 add sp,sp,#16
 2970              	 
 2971 0028 80BD     	 pop {r7,pc}
 2972              	 .cfi_endproc
 2973              	.LFE23:
 2975 002a C046     	 .section .text.ProbeCom_BufRd,"ax",%progbits
 2976              	 .align 2
 2977              	 .code 16
 2978              	 .thumb_func
 2980              	ProbeCom_BufRd:
 2981              	.LFB24:
2336:../Dave/Generated/UCPROBE/probe_com.c **** #endif
2337:../Dave/Generated/UCPROBE/probe_com.c **** 
2338:../Dave/Generated/UCPROBE/probe_com.c **** 
2339:../Dave/Generated/UCPROBE/probe_com.c **** /*
2340:../Dave/Generated/UCPROBE/probe_com.c **** ***************************************************************************************************
2341:../Dave/Generated/UCPROBE/probe_com.c **** *                                          ProbeCom_BufRd()
2342:../Dave/Generated/UCPROBE/probe_com.c **** *
2343:../Dave/Generated/UCPROBE/probe_com.c **** * Description : Read from buffer.
2344:../Dave/Generated/UCPROBE/probe_com.c **** *
2345:../Dave/Generated/UCPROBE/probe_com.c **** * Argument(s) : pbuf            Pointer to buffer.
2346:../Dave/Generated/UCPROBE/probe_com.c **** *
2347:../Dave/Generated/UCPROBE/probe_com.c **** *               pdest           Pointer to destination buffer.
2348:../Dave/Generated/UCPROBE/probe_com.c **** *
2349:../Dave/Generated/UCPROBE/probe_com.c **** *               len             Number of octets to read.
2350:../Dave/Generated/UCPROBE/probe_com.c **** *
2351:../Dave/Generated/UCPROBE/probe_com.c **** * Return(s)   : The number of octets read from buffer.
2352:../Dave/Generated/UCPROBE/probe_com.c **** *
2353:../Dave/Generated/UCPROBE/probe_com.c **** * Caller(s)   : Application.
2354:../Dave/Generated/UCPROBE/probe_com.c **** *
2355:../Dave/Generated/UCPROBE/probe_com.c **** * Note(s)     : none.
2356:../Dave/Generated/UCPROBE/probe_com.c **** ***************************************************************************************************
2357:../Dave/Generated/UCPROBE/probe_com.c **** */
2358:../Dave/Generated/UCPROBE/probe_com.c **** 
2359:../Dave/Generated/UCPROBE/probe_com.c **** #if (PROBE_COM_CFG_STR_REQ_EN == DEF_TRUE)
2360:../Dave/Generated/UCPROBE/probe_com.c **** static  CPU_SIZE_T  ProbeCom_BufRd (PROBE_COM_BUF  *pbuf,
2361:../Dave/Generated/UCPROBE/probe_com.c ****                                     CPU_INT08U     *pdest,
2362:../Dave/Generated/UCPROBE/probe_com.c ****                                     CPU_SIZE_T      len)
2363:../Dave/Generated/UCPROBE/probe_com.c **** {
 2982              	 .loc 1 2363 0
 2983              	 .cfi_startproc
 2984 0000 80B5     	 push {r7,lr}
 2985              	.LCFI72:
 2986              	 .cfi_def_cfa_offset 8
 2987              	 .cfi_offset 7,-8
 2988              	 .cfi_offset 14,-4
 2989 0002 8CB0     	 sub sp,sp,#48
 2990              	.LCFI73:
 2991              	 .cfi_def_cfa_offset 56
 2992 0004 00AF     	 add r7,sp,#0
 2993              	.LCFI74:
 2994              	 .cfi_def_cfa_register 7
 2995 0006 F860     	 str r0,[r7,#12]
 2996 0008 B960     	 str r1,[r7,#8]
 2997 000a 7A60     	 str r2,[r7,#4]
2364:../Dave/Generated/UCPROBE/probe_com.c ****     CPU_SIZE_T  cnt_copy;
2365:../Dave/Generated/UCPROBE/probe_com.c ****     CPU_SIZE_T  cnt_full;
2366:../Dave/Generated/UCPROBE/probe_com.c ****     CPU_SIZE_T  cnt_rem;
2367:../Dave/Generated/UCPROBE/probe_com.c ****     CPU_SIZE_T  ix_rd;
2368:../Dave/Generated/UCPROBE/probe_com.c ****     CPU_SIZE_T  ix_wr;
2369:../Dave/Generated/UCPROBE/probe_com.c ****     CPU_SIZE_T  len_buf;
2370:../Dave/Generated/UCPROBE/probe_com.c ****     CPU_SR_ALLOC();
 2998              	 .loc 1 2370 0
 2999 000c 0023     	 mov r3,#0
 3000 000e BB62     	 str r3,[r7,#40]
2371:../Dave/Generated/UCPROBE/probe_com.c **** 
2372:../Dave/Generated/UCPROBE/probe_com.c **** 
2373:../Dave/Generated/UCPROBE/probe_com.c ****     CPU_CRITICAL_ENTER();
 3001              	 .loc 1 2373 0
 3002 0010 FFF7FEFF 	 bl CPU_SR_Save
 3003 0014 031C     	 mov r3,r0
 3004 0016 BB62     	 str r3,[r7,#40]
2374:../Dave/Generated/UCPROBE/probe_com.c ****     ix_rd   = pbuf->IxRd;
 3005              	 .loc 1 2374 0
 3006 0018 FB68     	 ldr r3,[r7,#12]
 3007 001a 5B68     	 ldr r3,[r3,#4]
 3008 001c 7B62     	 str r3,[r7,#36]
2375:../Dave/Generated/UCPROBE/probe_com.c ****     ix_wr   = pbuf->IxWr;
 3009              	 .loc 1 2375 0
 3010 001e FB68     	 ldr r3,[r7,#12]
 3011 0020 9B68     	 ldr r3,[r3,#8]
 3012 0022 3B62     	 str r3,[r7,#32]
2376:../Dave/Generated/UCPROBE/probe_com.c ****     len_buf = pbuf->Len;
 3013              	 .loc 1 2376 0
 3014 0024 FB68     	 ldr r3,[r7,#12]
 3015 0026 1B68     	 ldr r3,[r3]
 3016 0028 FB61     	 str r3,[r7,#28]
2377:../Dave/Generated/UCPROBE/probe_com.c **** 
2378:../Dave/Generated/UCPROBE/probe_com.c ****     if (ix_wr == ix_rd) {                                       /* Buf is empty.                   
 3017              	 .loc 1 2378 0
 3018 002a 3A6A     	 ldr r2,[r7,#32]
 3019 002c 7B6A     	 ldr r3,[r7,#36]
 3020 002e 9A42     	 cmp r2,r3
 3021 0030 05D1     	 bne .L155
2379:../Dave/Generated/UCPROBE/probe_com.c ****         CPU_CRITICAL_EXIT();
 3022              	 .loc 1 2379 0
 3023 0032 BB6A     	 ldr r3,[r7,#40]
 3024 0034 181C     	 mov r0,r3
 3025 0036 FFF7FEFF 	 bl CPU_SR_Restore
2380:../Dave/Generated/UCPROBE/probe_com.c ****         return ((CPU_SIZE_T)0);
 3026              	 .loc 1 2380 0
 3027 003a 0023     	 mov r3,#0
 3028 003c 6FE0     	 b .L156
 3029              	.L155:
2381:../Dave/Generated/UCPROBE/probe_com.c ****     }
2382:../Dave/Generated/UCPROBE/probe_com.c **** 
2383:../Dave/Generated/UCPROBE/probe_com.c **** 
2384:../Dave/Generated/UCPROBE/probe_com.c **** 
2385:../Dave/Generated/UCPROBE/probe_com.c ****                                                                 /* -------------- COPY DATA FROM BU
2386:../Dave/Generated/UCPROBE/probe_com.c ****     if (ix_wr > ix_rd) {                                        /* Get str at buf interval [rd_ix, 
 3030              	 .loc 1 2386 0
 3031 003e 3A6A     	 ldr r2,[r7,#32]
 3032 0040 7B6A     	 ldr r3,[r7,#36]
 3033 0042 9A42     	 cmp r2,r3
 3034 0044 04D9     	 bls .L157
2387:../Dave/Generated/UCPROBE/probe_com.c ****         cnt_full = ix_wr - ix_rd;
 3035              	 .loc 1 2387 0
 3036 0046 3A6A     	 ldr r2,[r7,#32]
 3037 0048 7B6A     	 ldr r3,[r7,#36]
 3038 004a D31A     	 sub r3,r2,r3
 3039 004c FB62     	 str r3,[r7,#44]
 3040 004e 03E0     	 b .L158
 3041              	.L157:
2388:../Dave/Generated/UCPROBE/probe_com.c ****     } else {                                                    /* Get str at buf interval [rd_ix, 
2389:../Dave/Generated/UCPROBE/probe_com.c ****         cnt_full = len_buf - ix_rd;
 3042              	 .loc 1 2389 0
 3043 0050 FA69     	 ldr r2,[r7,#28]
 3044 0052 7B6A     	 ldr r3,[r7,#36]
 3045 0054 D31A     	 sub r3,r2,r3
 3046 0056 FB62     	 str r3,[r7,#44]
 3047              	.L158:
2390:../Dave/Generated/UCPROBE/probe_com.c ****     }
2391:../Dave/Generated/UCPROBE/probe_com.c **** 
2392:../Dave/Generated/UCPROBE/probe_com.c ****     cnt_copy  = DEF_MIN(cnt_full, len);                         /* Copy data.                      
 3048              	 .loc 1 2392 0
 3049 0058 FA6A     	 ldr r2,[r7,#44]
 3050 005a 7B68     	 ldr r3,[r7,#4]
 3051 005c 9342     	 cmp r3,r2
 3052 005e 00D9     	 bls .L159
 3053 0060 131C     	 mov r3,r2
 3054              	.L159:
 3055 0062 BB61     	 str r3,[r7,#24]
2393:../Dave/Generated/UCPROBE/probe_com.c ****     Mem_Copy((void *)pdest, (void *)&pbuf->DataPtr[ix_rd], cnt_copy);
 3056              	 .loc 1 2393 0
 3057 0064 FB68     	 ldr r3,[r7,#12]
 3058 0066 DA68     	 ldr r2,[r3,#12]
 3059 0068 7B6A     	 ldr r3,[r7,#36]
 3060 006a D218     	 add r2,r2,r3
 3061 006c B968     	 ldr r1,[r7,#8]
 3062 006e BB69     	 ldr r3,[r7,#24]
 3063 0070 081C     	 mov r0,r1
 3064 0072 111C     	 mov r1,r2
 3065 0074 1A1C     	 mov r2,r3
 3066 0076 FFF7FEFF 	 bl Mem_Copy
2394:../Dave/Generated/UCPROBE/probe_com.c **** 
2395:../Dave/Generated/UCPROBE/probe_com.c **** 
2396:../Dave/Generated/UCPROBE/probe_com.c ****     if ((ix_wr > ix_rd) || (ix_wr == 0u)) {
 3067              	 .loc 1 2396 0
 3068 007a 3A6A     	 ldr r2,[r7,#32]
 3069 007c 7B6A     	 ldr r3,[r7,#36]
 3070 007e 9A42     	 cmp r2,r3
 3071 0080 02D8     	 bhi .L160
 3072              	 .loc 1 2396 0 is_stmt 0 discriminator 1
 3073 0082 3B6A     	 ldr r3,[r7,#32]
 3074 0084 002B     	 cmp r3,#0
 3075 0086 14D1     	 bne .L161
 3076              	.L160:
2397:../Dave/Generated/UCPROBE/probe_com.c ****         ix_rd += cnt_copy;
 3077              	 .loc 1 2397 0 is_stmt 1
 3078 0088 7A6A     	 ldr r2,[r7,#36]
 3079 008a BB69     	 ldr r3,[r7,#24]
 3080 008c D318     	 add r3,r2,r3
 3081 008e 7B62     	 str r3,[r7,#36]
2398:../Dave/Generated/UCPROBE/probe_com.c ****         if (ix_rd == len_buf) {
 3082              	 .loc 1 2398 0
 3083 0090 7A6A     	 ldr r2,[r7,#36]
 3084 0092 FB69     	 ldr r3,[r7,#28]
 3085 0094 9A42     	 cmp r2,r3
 3086 0096 03D1     	 bne .L162
2399:../Dave/Generated/UCPROBE/probe_com.c ****             pbuf->IxRd = 0u;
 3087              	 .loc 1 2399 0
 3088 0098 FB68     	 ldr r3,[r7,#12]
 3089 009a 0022     	 mov r2,#0
 3090 009c 5A60     	 str r2,[r3,#4]
 3091 009e 02E0     	 b .L163
 3092              	.L162:
2400:../Dave/Generated/UCPROBE/probe_com.c ****         } else {
2401:../Dave/Generated/UCPROBE/probe_com.c ****             pbuf->IxRd = ix_rd;
 3093              	 .loc 1 2401 0
 3094 00a0 FB68     	 ldr r3,[r7,#12]
 3095 00a2 7A6A     	 ldr r2,[r7,#36]
 3096 00a4 5A60     	 str r2,[r3,#4]
 3097              	.L163:
2402:../Dave/Generated/UCPROBE/probe_com.c ****         }
2403:../Dave/Generated/UCPROBE/probe_com.c ****         CPU_CRITICAL_EXIT();
 3098              	 .loc 1 2403 0
 3099 00a6 BB6A     	 ldr r3,[r7,#40]
 3100 00a8 181C     	 mov r0,r3
 3101 00aa FFF7FEFF 	 bl CPU_SR_Restore
2404:../Dave/Generated/UCPROBE/probe_com.c **** 
2405:../Dave/Generated/UCPROBE/probe_com.c ****         return (cnt_copy);
 3102              	 .loc 1 2405 0
 3103 00ae BB69     	 ldr r3,[r7,#24]
 3104 00b0 35E0     	 b .L156
 3105              	.L161:
2406:../Dave/Generated/UCPROBE/probe_com.c ****     }
2407:../Dave/Generated/UCPROBE/probe_com.c **** 
2408:../Dave/Generated/UCPROBE/probe_com.c **** 
2409:../Dave/Generated/UCPROBE/probe_com.c **** 
2410:../Dave/Generated/UCPROBE/probe_com.c ****                                                                 /* -------------- COPY DATA AT BUF 
2411:../Dave/Generated/UCPROBE/probe_com.c ****     ix_rd    += cnt_copy;
 3106              	 .loc 1 2411 0
 3107 00b2 7A6A     	 ldr r2,[r7,#36]
 3108 00b4 BB69     	 ldr r3,[r7,#24]
 3109 00b6 D318     	 add r3,r2,r3
 3110 00b8 7B62     	 str r3,[r7,#36]
2412:../Dave/Generated/UCPROBE/probe_com.c ****     pdest    += cnt_copy;                                       /* Adj buf ptr.                    
 3111              	 .loc 1 2412 0
 3112 00ba BA68     	 ldr r2,[r7,#8]
 3113 00bc BB69     	 ldr r3,[r7,#24]
 3114 00be D318     	 add r3,r2,r3
 3115 00c0 BB60     	 str r3,[r7,#8]
2413:../Dave/Generated/UCPROBE/probe_com.c ****     cnt_rem   = len - cnt_copy;                                 /* Calc nbr data octets to copy fro
 3116              	 .loc 1 2413 0
 3117 00c2 7A68     	 ldr r2,[r7,#4]
 3118 00c4 BB69     	 ldr r3,[r7,#24]
 3119 00c6 D31A     	 sub r3,r2,r3
 3120 00c8 7B61     	 str r3,[r7,#20]
2414:../Dave/Generated/UCPROBE/probe_com.c ****     cnt_copy  = DEF_MIN(ix_wr, cnt_rem);
 3121              	 .loc 1 2414 0
 3122 00ca 3A6A     	 ldr r2,[r7,#32]
 3123 00cc 7B69     	 ldr r3,[r7,#20]
 3124 00ce 9342     	 cmp r3,r2
 3125 00d0 00D9     	 bls .L164
 3126 00d2 131C     	 mov r3,r2
 3127              	.L164:
 3128 00d4 BB61     	 str r3,[r7,#24]
2415:../Dave/Generated/UCPROBE/probe_com.c **** 
2416:../Dave/Generated/UCPROBE/probe_com.c ****     if (cnt_copy > 0u) {
 3129              	 .loc 1 2416 0
 3130 00d6 BB69     	 ldr r3,[r7,#24]
 3131 00d8 002B     	 cmp r3,#0
 3132 00da 0CD0     	 beq .L165
2417:../Dave/Generated/UCPROBE/probe_com.c ****                                                                 /* Copy data.                      
2418:../Dave/Generated/UCPROBE/probe_com.c ****         Mem_Copy((void *)pdest, (void *)&pbuf->DataPtr[0], cnt_copy);
 3133              	 .loc 1 2418 0
 3134 00dc FB68     	 ldr r3,[r7,#12]
 3135 00de DA68     	 ldr r2,[r3,#12]
 3136 00e0 B968     	 ldr r1,[r7,#8]
 3137 00e2 BB69     	 ldr r3,[r7,#24]
 3138 00e4 081C     	 mov r0,r1
 3139 00e6 111C     	 mov r1,r2
 3140 00e8 1A1C     	 mov r2,r3
 3141 00ea FFF7FEFF 	 bl Mem_Copy
2419:../Dave/Generated/UCPROBE/probe_com.c ****         pbuf->IxRd = cnt_copy;
 3142              	 .loc 1 2419 0
 3143 00ee FB68     	 ldr r3,[r7,#12]
 3144 00f0 BA69     	 ldr r2,[r7,#24]
 3145 00f2 5A60     	 str r2,[r3,#4]
 3146 00f4 0AE0     	 b .L166
 3147              	.L165:
2420:../Dave/Generated/UCPROBE/probe_com.c ****     } else {
2421:../Dave/Generated/UCPROBE/probe_com.c ****         if (ix_rd == len_buf) {
 3148              	 .loc 1 2421 0
 3149 00f6 7A6A     	 ldr r2,[r7,#36]
 3150 00f8 FB69     	 ldr r3,[r7,#28]
 3151 00fa 9A42     	 cmp r2,r3
 3152 00fc 03D1     	 bne .L167
2422:../Dave/Generated/UCPROBE/probe_com.c ****             pbuf->IxRd = 0u;
 3153              	 .loc 1 2422 0
 3154 00fe FB68     	 ldr r3,[r7,#12]
 3155 0100 0022     	 mov r2,#0
 3156 0102 5A60     	 str r2,[r3,#4]
 3157 0104 02E0     	 b .L166
 3158              	.L167:
2423:../Dave/Generated/UCPROBE/probe_com.c ****         } else {
2424:../Dave/Generated/UCPROBE/probe_com.c ****             pbuf->IxRd = ix_rd;
 3159              	 .loc 1 2424 0
 3160 0106 FB68     	 ldr r3,[r7,#12]
 3161 0108 7A6A     	 ldr r2,[r7,#36]
 3162 010a 5A60     	 str r2,[r3,#4]
 3163              	.L166:
2425:../Dave/Generated/UCPROBE/probe_com.c ****         }
2426:../Dave/Generated/UCPROBE/probe_com.c ****     }
2427:../Dave/Generated/UCPROBE/probe_com.c ****     CPU_CRITICAL_EXIT();
 3164              	 .loc 1 2427 0
 3165 010c BB6A     	 ldr r3,[r7,#40]
 3166 010e 181C     	 mov r0,r3
 3167 0110 FFF7FEFF 	 bl CPU_SR_Restore
2428:../Dave/Generated/UCPROBE/probe_com.c **** 
2429:../Dave/Generated/UCPROBE/probe_com.c ****     return ((len - cnt_rem) + cnt_copy);
 3168              	 .loc 1 2429 0
 3169 0114 7A68     	 ldr r2,[r7,#4]
 3170 0116 7B69     	 ldr r3,[r7,#20]
 3171 0118 D21A     	 sub r2,r2,r3
 3172 011a BB69     	 ldr r3,[r7,#24]
 3173 011c D318     	 add r3,r2,r3
 3174              	.L156:
2430:../Dave/Generated/UCPROBE/probe_com.c **** }
 3175              	 .loc 1 2430 0
 3176 011e 181C     	 mov r0,r3
 3177 0120 BD46     	 mov sp,r7
 3178 0122 0CB0     	 add sp,sp,#48
 3179              	 
 3180 0124 80BD     	 pop {r7,pc}
 3181              	 .cfi_endproc
 3182              	.LFE24:
 3184 0126 C046     	 .section .text.ProbeCom_BufWr,"ax",%progbits
 3185              	 .align 2
 3186              	 .code 16
 3187              	 .thumb_func
 3189              	ProbeCom_BufWr:
 3190              	.LFB25:
2431:../Dave/Generated/UCPROBE/probe_com.c **** #endif
2432:../Dave/Generated/UCPROBE/probe_com.c **** 
2433:../Dave/Generated/UCPROBE/probe_com.c **** 
2434:../Dave/Generated/UCPROBE/probe_com.c **** /*
2435:../Dave/Generated/UCPROBE/probe_com.c **** ***************************************************************************************************
2436:../Dave/Generated/UCPROBE/probe_com.c **** *                                          ProbeCom_BufWr()
2437:../Dave/Generated/UCPROBE/probe_com.c **** *
2438:../Dave/Generated/UCPROBE/probe_com.c **** * Description : Write to buffer.
2439:../Dave/Generated/UCPROBE/probe_com.c **** *
2440:../Dave/Generated/UCPROBE/probe_com.c **** * Argument(s) : pbuf            Pointer to buffer.
2441:../Dave/Generated/UCPROBE/probe_com.c **** *
2442:../Dave/Generated/UCPROBE/probe_com.c **** *               psrc            Pointer to source buffer.
2443:../Dave/Generated/UCPROBE/probe_com.c **** *
2444:../Dave/Generated/UCPROBE/probe_com.c **** *               len             Number of octets to write.
2445:../Dave/Generated/UCPROBE/probe_com.c **** *
2446:../Dave/Generated/UCPROBE/probe_com.c **** *
2447:../Dave/Generated/UCPROBE/probe_com.c **** * Return(s)   : Number of octets stored in buffer.
2448:../Dave/Generated/UCPROBE/probe_com.c **** *
2449:../Dave/Generated/UCPROBE/probe_com.c **** * Caller(s)   : Hardware Port's ISR.
2450:../Dave/Generated/UCPROBE/probe_com.c **** *
2451:../Dave/Generated/UCPROBE/probe_com.c **** * Note(s)     : none.
2452:../Dave/Generated/UCPROBE/probe_com.c **** ***************************************************************************************************
2453:../Dave/Generated/UCPROBE/probe_com.c **** */
2454:../Dave/Generated/UCPROBE/probe_com.c **** 
2455:../Dave/Generated/UCPROBE/probe_com.c **** #if (PROBE_COM_CFG_STR_REQ_EN == DEF_TRUE)
2456:../Dave/Generated/UCPROBE/probe_com.c **** static  CPU_SIZE_T  ProbeCom_BufWr (PROBE_COM_BUF  *pbuf,
2457:../Dave/Generated/UCPROBE/probe_com.c ****                                     CPU_INT08U     *psrc,
2458:../Dave/Generated/UCPROBE/probe_com.c ****                                     CPU_SIZE_T      len)
2459:../Dave/Generated/UCPROBE/probe_com.c **** {
 3191              	 .loc 1 2459 0
 3192              	 .cfi_startproc
 3193 0000 80B5     	 push {r7,lr}
 3194              	.LCFI75:
 3195              	 .cfi_def_cfa_offset 8
 3196              	 .cfi_offset 7,-8
 3197              	 .cfi_offset 14,-4
 3198 0002 8CB0     	 sub sp,sp,#48
 3199              	.LCFI76:
 3200              	 .cfi_def_cfa_offset 56
 3201 0004 00AF     	 add r7,sp,#0
 3202              	.LCFI77:
 3203              	 .cfi_def_cfa_register 7
 3204 0006 F860     	 str r0,[r7,#12]
 3205 0008 B960     	 str r1,[r7,#8]
 3206 000a 7A60     	 str r2,[r7,#4]
2460:../Dave/Generated/UCPROBE/probe_com.c ****     CPU_SIZE_T  cnt_copy;
2461:../Dave/Generated/UCPROBE/probe_com.c ****     CPU_SIZE_T  cnt_empty;
2462:../Dave/Generated/UCPROBE/probe_com.c ****     CPU_SIZE_T  cnt_rem;
2463:../Dave/Generated/UCPROBE/probe_com.c ****     CPU_SIZE_T  ix_rd;
2464:../Dave/Generated/UCPROBE/probe_com.c ****     CPU_SIZE_T  ix_wr;
2465:../Dave/Generated/UCPROBE/probe_com.c ****     CPU_SIZE_T  len_buf;
2466:../Dave/Generated/UCPROBE/probe_com.c ****     CPU_SR_ALLOC();
 3207              	 .loc 1 2466 0
 3208 000c 0023     	 mov r3,#0
 3209 000e BB62     	 str r3,[r7,#40]
2467:../Dave/Generated/UCPROBE/probe_com.c **** 
2468:../Dave/Generated/UCPROBE/probe_com.c **** 
2469:../Dave/Generated/UCPROBE/probe_com.c ****     CPU_CRITICAL_ENTER();
 3210              	 .loc 1 2469 0
 3211 0010 FFF7FEFF 	 bl CPU_SR_Save
 3212 0014 031C     	 mov r3,r0
 3213 0016 BB62     	 str r3,[r7,#40]
2470:../Dave/Generated/UCPROBE/probe_com.c ****     ix_rd   = pbuf->IxRd;
 3214              	 .loc 1 2470 0
 3215 0018 FB68     	 ldr r3,[r7,#12]
 3216 001a 5B68     	 ldr r3,[r3,#4]
 3217 001c 7B62     	 str r3,[r7,#36]
2471:../Dave/Generated/UCPROBE/probe_com.c ****     ix_wr   = pbuf->IxWr;
 3218              	 .loc 1 2471 0
 3219 001e FB68     	 ldr r3,[r7,#12]
 3220 0020 9B68     	 ldr r3,[r3,#8]
 3221 0022 3B62     	 str r3,[r7,#32]
2472:../Dave/Generated/UCPROBE/probe_com.c ****     len_buf = pbuf->Len;
 3222              	 .loc 1 2472 0
 3223 0024 FB68     	 ldr r3,[r7,#12]
 3224 0026 1B68     	 ldr r3,[r3]
 3225 0028 FB61     	 str r3,[r7,#28]
2473:../Dave/Generated/UCPROBE/probe_com.c **** 
2474:../Dave/Generated/UCPROBE/probe_com.c ****                                                                 /* --------------- COPY DATA AT BUF
2475:../Dave/Generated/UCPROBE/probe_com.c ****     if (ix_rd > ix_wr) {                                        /* Sto str at buf interval [wr_ix, 
 3226              	 .loc 1 2475 0
 3227 002a 7A6A     	 ldr r2,[r7,#36]
 3228 002c 3B6A     	 ldr r3,[r7,#32]
 3229 002e 9A42     	 cmp r2,r3
 3230 0030 05D9     	 bls .L169
2476:../Dave/Generated/UCPROBE/probe_com.c ****         cnt_empty = (ix_rd   - ix_wr) - 1u;
 3231              	 .loc 1 2476 0
 3232 0032 7A6A     	 ldr r2,[r7,#36]
 3233 0034 3B6A     	 ldr r3,[r7,#32]
 3234 0036 D31A     	 sub r3,r2,r3
 3235 0038 013B     	 sub r3,r3,#1
 3236 003a FB62     	 str r3,[r7,#44]
 3237 003c 0CE0     	 b .L170
 3238              	.L169:
2477:../Dave/Generated/UCPROBE/probe_com.c ****     } else if (ix_rd == 0u) {                                   /* Sto str at buf interval [wr_ix, 
 3239              	 .loc 1 2477 0
 3240 003e 7B6A     	 ldr r3,[r7,#36]
 3241 0040 002B     	 cmp r3,#0
 3242 0042 05D1     	 bne .L171
2478:../Dave/Generated/UCPROBE/probe_com.c ****         cnt_empty = (len_buf - ix_wr) - 1u;
 3243              	 .loc 1 2478 0
 3244 0044 FA69     	 ldr r2,[r7,#28]
 3245 0046 3B6A     	 ldr r3,[r7,#32]
 3246 0048 D31A     	 sub r3,r2,r3
 3247 004a 013B     	 sub r3,r3,#1
 3248 004c FB62     	 str r3,[r7,#44]
 3249 004e 03E0     	 b .L170
 3250              	.L171:
2479:../Dave/Generated/UCPROBE/probe_com.c ****     } else {                                                    /* Sto str at buf interval [wr_ix, 
2480:../Dave/Generated/UCPROBE/probe_com.c ****         cnt_empty =  len_buf - ix_wr;
 3251              	 .loc 1 2480 0
 3252 0050 FA69     	 ldr r2,[r7,#28]
 3253 0052 3B6A     	 ldr r3,[r7,#32]
 3254 0054 D31A     	 sub r3,r2,r3
 3255 0056 FB62     	 str r3,[r7,#44]
 3256              	.L170:
2481:../Dave/Generated/UCPROBE/probe_com.c ****     }
2482:../Dave/Generated/UCPROBE/probe_com.c **** 
2483:../Dave/Generated/UCPROBE/probe_com.c ****     cnt_copy  = DEF_MIN(cnt_empty, len);                        /* Copy data.                      
 3257              	 .loc 1 2483 0
 3258 0058 FA6A     	 ldr r2,[r7,#44]
 3259 005a 7B68     	 ldr r3,[r7,#4]
 3260 005c 9342     	 cmp r3,r2
 3261 005e 00D9     	 bls .L172
 3262 0060 131C     	 mov r3,r2
 3263              	.L172:
 3264 0062 BB61     	 str r3,[r7,#24]
2484:../Dave/Generated/UCPROBE/probe_com.c ****     Mem_Copy((void *)&pbuf->DataPtr[ix_wr], (void *)psrc, cnt_copy);
 3265              	 .loc 1 2484 0
 3266 0064 FB68     	 ldr r3,[r7,#12]
 3267 0066 DA68     	 ldr r2,[r3,#12]
 3268 0068 3B6A     	 ldr r3,[r7,#32]
 3269 006a D118     	 add r1,r2,r3
 3270 006c BA68     	 ldr r2,[r7,#8]
 3271 006e BB69     	 ldr r3,[r7,#24]
 3272 0070 081C     	 mov r0,r1
 3273 0072 111C     	 mov r1,r2
 3274 0074 1A1C     	 mov r2,r3
 3275 0076 FFF7FEFF 	 bl Mem_Copy
2485:../Dave/Generated/UCPROBE/probe_com.c **** 
2486:../Dave/Generated/UCPROBE/probe_com.c **** 
2487:../Dave/Generated/UCPROBE/probe_com.c ****     if ((ix_rd > ix_wr) || (ix_rd == 0u)) {
 3276              	 .loc 1 2487 0
 3277 007a 7A6A     	 ldr r2,[r7,#36]
 3278 007c 3B6A     	 ldr r3,[r7,#32]
 3279 007e 9A42     	 cmp r2,r3
 3280 0080 02D8     	 bhi .L173
 3281              	 .loc 1 2487 0 is_stmt 0 discriminator 1
 3282 0082 7B6A     	 ldr r3,[r7,#36]
 3283 0084 002B     	 cmp r3,#0
 3284 0086 0AD1     	 bne .L174
 3285              	.L173:
2488:../Dave/Generated/UCPROBE/probe_com.c ****         pbuf->IxWr = ix_wr + cnt_copy;
 3286              	 .loc 1 2488 0 is_stmt 1
 3287 0088 3A6A     	 ldr r2,[r7,#32]
 3288 008a BB69     	 ldr r3,[r7,#24]
 3289 008c D218     	 add r2,r2,r3
 3290 008e FB68     	 ldr r3,[r7,#12]
 3291 0090 9A60     	 str r2,[r3,#8]
2489:../Dave/Generated/UCPROBE/probe_com.c ****         CPU_CRITICAL_EXIT();
 3292              	 .loc 1 2489 0
 3293 0092 BB6A     	 ldr r3,[r7,#40]
 3294 0094 181C     	 mov r0,r3
 3295 0096 FFF7FEFF 	 bl CPU_SR_Restore
2490:../Dave/Generated/UCPROBE/probe_com.c **** 
2491:../Dave/Generated/UCPROBE/probe_com.c ****         return (cnt_copy);
 3296              	 .loc 1 2491 0
 3297 009a BB69     	 ldr r3,[r7,#24]
 3298 009c 36E0     	 b .L175
 3299              	.L174:
2492:../Dave/Generated/UCPROBE/probe_com.c ****     }
2493:../Dave/Generated/UCPROBE/probe_com.c **** 
2494:../Dave/Generated/UCPROBE/probe_com.c **** 
2495:../Dave/Generated/UCPROBE/probe_com.c **** 
2496:../Dave/Generated/UCPROBE/probe_com.c ****                                                                 /* -------------- COPY DATA AT BUF 
2497:../Dave/Generated/UCPROBE/probe_com.c ****     ix_wr    += cnt_copy;
 3300              	 .loc 1 2497 0
 3301 009e 3A6A     	 ldr r2,[r7,#32]
 3302 00a0 BB69     	 ldr r3,[r7,#24]
 3303 00a2 D318     	 add r3,r2,r3
 3304 00a4 3B62     	 str r3,[r7,#32]
2498:../Dave/Generated/UCPROBE/probe_com.c ****     psrc     += cnt_copy;                                       /* Adj buf ptr.                    
 3305              	 .loc 1 2498 0
 3306 00a6 BA68     	 ldr r2,[r7,#8]
 3307 00a8 BB69     	 ldr r3,[r7,#24]
 3308 00aa D318     	 add r3,r2,r3
 3309 00ac BB60     	 str r3,[r7,#8]
2499:../Dave/Generated/UCPROBE/probe_com.c ****     cnt_rem   = len - cnt_copy;                                 /* Calc nbr data octets to copy fro
 3310              	 .loc 1 2499 0
 3311 00ae 7A68     	 ldr r2,[r7,#4]
 3312 00b0 BB69     	 ldr r3,[r7,#24]
 3313 00b2 D31A     	 sub r3,r2,r3
 3314 00b4 7B61     	 str r3,[r7,#20]
2500:../Dave/Generated/UCPROBE/probe_com.c ****     cnt_copy  = DEF_MIN(ix_rd - 1u, cnt_rem);
 3315              	 .loc 1 2500 0
 3316 00b6 7B6A     	 ldr r3,[r7,#36]
 3317 00b8 013B     	 sub r3,r3,#1
 3318 00ba 7A69     	 ldr r2,[r7,#20]
 3319 00bc 9342     	 cmp r3,r2
 3320 00be 00D9     	 bls .L176
 3321 00c0 131C     	 mov r3,r2
 3322              	.L176:
 3323 00c2 BB61     	 str r3,[r7,#24]
2501:../Dave/Generated/UCPROBE/probe_com.c **** 
2502:../Dave/Generated/UCPROBE/probe_com.c ****     if (cnt_copy > 0u) {
 3324              	 .loc 1 2502 0
 3325 00c4 BB69     	 ldr r3,[r7,#24]
 3326 00c6 002B     	 cmp r3,#0
 3327 00c8 0CD0     	 beq .L177
2503:../Dave/Generated/UCPROBE/probe_com.c ****                                                                 /* Copy data.                      
2504:../Dave/Generated/UCPROBE/probe_com.c ****         Mem_Copy((void *)&pbuf->DataPtr[0], (void *)psrc, cnt_copy);
 3328              	 .loc 1 2504 0
 3329 00ca FB68     	 ldr r3,[r7,#12]
 3330 00cc D968     	 ldr r1,[r3,#12]
 3331 00ce BA68     	 ldr r2,[r7,#8]
 3332 00d0 BB69     	 ldr r3,[r7,#24]
 3333 00d2 081C     	 mov r0,r1
 3334 00d4 111C     	 mov r1,r2
 3335 00d6 1A1C     	 mov r2,r3
 3336 00d8 FFF7FEFF 	 bl Mem_Copy
2505:../Dave/Generated/UCPROBE/probe_com.c ****         pbuf->IxWr = cnt_copy;
 3337              	 .loc 1 2505 0
 3338 00dc FB68     	 ldr r3,[r7,#12]
 3339 00de BA69     	 ldr r2,[r7,#24]
 3340 00e0 9A60     	 str r2,[r3,#8]
 3341 00e2 0AE0     	 b .L178
 3342              	.L177:
2506:../Dave/Generated/UCPROBE/probe_com.c ****     } else {
2507:../Dave/Generated/UCPROBE/probe_com.c ****         if (ix_wr == len_buf) {
 3343              	 .loc 1 2507 0
 3344 00e4 3A6A     	 ldr r2,[r7,#32]
 3345 00e6 FB69     	 ldr r3,[r7,#28]
 3346 00e8 9A42     	 cmp r2,r3
 3347 00ea 03D1     	 bne .L179
2508:../Dave/Generated/UCPROBE/probe_com.c ****             pbuf->IxWr = 0u;
 3348              	 .loc 1 2508 0
 3349 00ec FB68     	 ldr r3,[r7,#12]
 3350 00ee 0022     	 mov r2,#0
 3351 00f0 9A60     	 str r2,[r3,#8]
 3352 00f2 02E0     	 b .L178
 3353              	.L179:
2509:../Dave/Generated/UCPROBE/probe_com.c ****         } else {
2510:../Dave/Generated/UCPROBE/probe_com.c ****             pbuf->IxWr = ix_wr;
 3354              	 .loc 1 2510 0
 3355 00f4 FB68     	 ldr r3,[r7,#12]
 3356 00f6 3A6A     	 ldr r2,[r7,#32]
 3357 00f8 9A60     	 str r2,[r3,#8]
 3358              	.L178:
2511:../Dave/Generated/UCPROBE/probe_com.c ****         }
2512:../Dave/Generated/UCPROBE/probe_com.c ****     }
2513:../Dave/Generated/UCPROBE/probe_com.c ****     CPU_CRITICAL_EXIT();
 3359              	 .loc 1 2513 0
 3360 00fa BB6A     	 ldr r3,[r7,#40]
 3361 00fc 181C     	 mov r0,r3
 3362 00fe FFF7FEFF 	 bl CPU_SR_Restore
2514:../Dave/Generated/UCPROBE/probe_com.c **** 
2515:../Dave/Generated/UCPROBE/probe_com.c ****     return ((len - cnt_rem) + cnt_copy);
 3363              	 .loc 1 2515 0
 3364 0102 7A68     	 ldr r2,[r7,#4]
 3365 0104 7B69     	 ldr r3,[r7,#20]
 3366 0106 D21A     	 sub r2,r2,r3
 3367 0108 BB69     	 ldr r3,[r7,#24]
 3368 010a D318     	 add r3,r2,r3
 3369              	.L175:
2516:../Dave/Generated/UCPROBE/probe_com.c **** }
 3370              	 .loc 1 2516 0
 3371 010c 181C     	 mov r0,r3
 3372 010e BD46     	 mov sp,r7
 3373 0110 0CB0     	 add sp,sp,#48
 3374              	 
 3375 0112 80BD     	 pop {r7,pc}
 3376              	 .cfi_endproc
 3377              	.LFE25:
 3379              	 .section .text.ProbeCom_BufIsEmpty,"ax",%progbits
 3380              	 .align 2
 3381              	 .code 16
 3382              	 .thumb_func
 3384              	ProbeCom_BufIsEmpty:
 3385              	.LFB26:
2517:../Dave/Generated/UCPROBE/probe_com.c **** #endif
2518:../Dave/Generated/UCPROBE/probe_com.c **** 
2519:../Dave/Generated/UCPROBE/probe_com.c **** 
2520:../Dave/Generated/UCPROBE/probe_com.c **** /*
2521:../Dave/Generated/UCPROBE/probe_com.c **** ***************************************************************************************************
2522:../Dave/Generated/UCPROBE/probe_com.c **** *                                        ProbeCom_BufIsEmpty()
2523:../Dave/Generated/UCPROBE/probe_com.c **** *
2524:../Dave/Generated/UCPROBE/probe_com.c **** * Description : Determine whether buffer is empty.
2525:../Dave/Generated/UCPROBE/probe_com.c **** *
2526:../Dave/Generated/UCPROBE/probe_com.c **** * Argument(s) : pbuf            Pointer to buffer.
2527:../Dave/Generated/UCPROBE/probe_com.c **** *
2528:../Dave/Generated/UCPROBE/probe_com.c **** * Return(s)   : DEF_YES, if buffer is empty.
2529:../Dave/Generated/UCPROBE/probe_com.c **** *               DEF_NO,  if buffer contains any data.
2530:../Dave/Generated/UCPROBE/probe_com.c **** *
2531:../Dave/Generated/UCPROBE/probe_com.c **** * Caller(s)   : Application.
2532:../Dave/Generated/UCPROBE/probe_com.c **** *
2533:../Dave/Generated/UCPROBE/probe_com.c **** * Note(s)     : none.
2534:../Dave/Generated/UCPROBE/probe_com.c **** ***************************************************************************************************
2535:../Dave/Generated/UCPROBE/probe_com.c **** */
2536:../Dave/Generated/UCPROBE/probe_com.c **** 
2537:../Dave/Generated/UCPROBE/probe_com.c **** #if (PROBE_COM_CFG_STR_REQ_EN == DEF_TRUE)
2538:../Dave/Generated/UCPROBE/probe_com.c **** static  CPU_BOOLEAN  ProbeCom_BufIsEmpty  (PROBE_COM_BUF  *pbuf)
2539:../Dave/Generated/UCPROBE/probe_com.c **** {
 3386              	 .loc 1 2539 0
 3387              	 .cfi_startproc
 3388 0000 80B5     	 push {r7,lr}
 3389              	.LCFI78:
 3390              	 .cfi_def_cfa_offset 8
 3391              	 .cfi_offset 7,-8
 3392              	 .cfi_offset 14,-4
 3393 0002 84B0     	 sub sp,sp,#16
 3394              	.LCFI79:
 3395              	 .cfi_def_cfa_offset 24
 3396 0004 00AF     	 add r7,sp,#0
 3397              	.LCFI80:
 3398              	 .cfi_def_cfa_register 7
 3399 0006 7860     	 str r0,[r7,#4]
2540:../Dave/Generated/UCPROBE/probe_com.c ****     CPU_BOOLEAN  empty;
2541:../Dave/Generated/UCPROBE/probe_com.c ****     CPU_SR_ALLOC();
 3400              	 .loc 1 2541 0
 3401 0008 0023     	 mov r3,#0
 3402 000a FB60     	 str r3,[r7,#12]
2542:../Dave/Generated/UCPROBE/probe_com.c **** 
2543:../Dave/Generated/UCPROBE/probe_com.c **** 
2544:../Dave/Generated/UCPROBE/probe_com.c ****     CPU_CRITICAL_ENTER();
 3403              	 .loc 1 2544 0
 3404 000c FFF7FEFF 	 bl CPU_SR_Save
 3405 0010 031C     	 mov r3,r0
 3406 0012 FB60     	 str r3,[r7,#12]
2545:../Dave/Generated/UCPROBE/probe_com.c ****     empty = ((pbuf->IxRd == pbuf->IxWr) ? (DEF_YES) : (DEF_NO));
 3407              	 .loc 1 2545 0
 3408 0014 7B68     	 ldr r3,[r7,#4]
 3409 0016 5A68     	 ldr r2,[r3,#4]
 3410 0018 7B68     	 ldr r3,[r7,#4]
 3411 001a 9B68     	 ldr r3,[r3,#8]
 3412 001c 9A42     	 cmp r2,r3
 3413 001e 01D1     	 bne .L181
 3414              	 .loc 1 2545 0 is_stmt 0 discriminator 1
 3415 0020 0122     	 mov r2,#1
 3416 0022 00E0     	 b .L182
 3417              	.L181:
 3418              	 .loc 1 2545 0 discriminator 2
 3419 0024 0022     	 mov r2,#0
 3420              	.L182:
 3421              	 .loc 1 2545 0 discriminator 4
 3422 0026 0B23     	 mov r3,#11
 3423 0028 FB18     	 add r3,r7,r3
 3424 002a 1A70     	 strb r2,[r3]
2546:../Dave/Generated/UCPROBE/probe_com.c ****     CPU_CRITICAL_EXIT();
 3425              	 .loc 1 2546 0 is_stmt 1 discriminator 4
 3426 002c FB68     	 ldr r3,[r7,#12]
 3427 002e 181C     	 mov r0,r3
 3428 0030 FFF7FEFF 	 bl CPU_SR_Restore
2547:../Dave/Generated/UCPROBE/probe_com.c **** 
2548:../Dave/Generated/UCPROBE/probe_com.c ****     return (empty);
 3429              	 .loc 1 2548 0 discriminator 4
 3430 0034 0B23     	 mov r3,#11
 3431 0036 FB18     	 add r3,r7,r3
 3432 0038 1B78     	 ldrb r3,[r3]
2549:../Dave/Generated/UCPROBE/probe_com.c **** }
 3433              	 .loc 1 2549 0 discriminator 4
 3434 003a 181C     	 mov r0,r3
 3435 003c BD46     	 mov sp,r7
 3436 003e 04B0     	 add sp,sp,#16
 3437              	 
 3438 0040 80BD     	 pop {r7,pc}
 3439              	 .cfi_endproc
 3440              	.LFE26:
 3442 0042 C046     	 .section .text.ProbeCom_GetINT08U,"ax",%progbits
 3443              	 .align 2
 3444              	 .code 16
 3445              	 .thumb_func
 3447              	ProbeCom_GetINT08U:
 3448              	.LFB27:
2550:../Dave/Generated/UCPROBE/probe_com.c **** #endif
2551:../Dave/Generated/UCPROBE/probe_com.c **** 
2552:../Dave/Generated/UCPROBE/probe_com.c **** 
2553:../Dave/Generated/UCPROBE/probe_com.c **** /*
2554:../Dave/Generated/UCPROBE/probe_com.c **** ***************************************************************************************************
2555:../Dave/Generated/UCPROBE/probe_com.c **** *                                        ProbeCom_BufIsFull()
2556:../Dave/Generated/UCPROBE/probe_com.c **** *
2557:../Dave/Generated/UCPROBE/probe_com.c **** * Description : Determine whether buffer is full.
2558:../Dave/Generated/UCPROBE/probe_com.c **** *
2559:../Dave/Generated/UCPROBE/probe_com.c **** * Argument(s) : pbuf            Pointer to buffer.
2560:../Dave/Generated/UCPROBE/probe_com.c **** *
2561:../Dave/Generated/UCPROBE/probe_com.c **** * Return(s)   : DEF_YES, if buffer is full.
2562:../Dave/Generated/UCPROBE/probe_com.c **** *               DEF_NO,  otherwise.
2563:../Dave/Generated/UCPROBE/probe_com.c **** *
2564:../Dave/Generated/UCPROBE/probe_com.c **** * Caller(s)   : Application.
2565:../Dave/Generated/UCPROBE/probe_com.c **** *
2566:../Dave/Generated/UCPROBE/probe_com.c **** * Note(s)     : none.
2567:../Dave/Generated/UCPROBE/probe_com.c **** ***************************************************************************************************
2568:../Dave/Generated/UCPROBE/probe_com.c **** */
2569:../Dave/Generated/UCPROBE/probe_com.c **** 
2570:../Dave/Generated/UCPROBE/probe_com.c **** #if 0
2571:../Dave/Generated/UCPROBE/probe_com.c **** static  CPU_BOOLEAN  ProbeCom_BufIsFull  (PROBE_COM_BUF  *pbuf)
2572:../Dave/Generated/UCPROBE/probe_com.c **** {
2573:../Dave/Generated/UCPROBE/probe_com.c ****     CPU_BOOLEAN  full;
2574:../Dave/Generated/UCPROBE/probe_com.c ****     CPU_SR_ALLOC();
2575:../Dave/Generated/UCPROBE/probe_com.c **** 
2576:../Dave/Generated/UCPROBE/probe_com.c **** 
2577:../Dave/Generated/UCPROBE/probe_com.c ****     CPU_CRITICAL_ENTER();
2578:../Dave/Generated/UCPROBE/probe_com.c ****     if (pbuf->IxWr == 0) {
2579:../Dave/Generated/UCPROBE/probe_com.c ****         full = ((pbuf->IxRd == pbuf->Len  - 1) ? (DEF_YES) : (DEF_NO));
2580:../Dave/Generated/UCPROBE/probe_com.c ****     } else {
2581:../Dave/Generated/UCPROBE/probe_com.c ****         full = ((pbuf->IxRd == pbuf->IxWr - 1) ? (DEF_YES) : (DEF_NO));
2582:../Dave/Generated/UCPROBE/probe_com.c ****     }
2583:../Dave/Generated/UCPROBE/probe_com.c ****     CPU_CRITICAL_EXIT();
2584:../Dave/Generated/UCPROBE/probe_com.c **** 
2585:../Dave/Generated/UCPROBE/probe_com.c ****     return (full);
2586:../Dave/Generated/UCPROBE/probe_com.c **** }
2587:../Dave/Generated/UCPROBE/probe_com.c **** #endif
2588:../Dave/Generated/UCPROBE/probe_com.c **** 
2589:../Dave/Generated/UCPROBE/probe_com.c **** 
2590:../Dave/Generated/UCPROBE/probe_com.c **** /*
2591:../Dave/Generated/UCPROBE/probe_com.c **** ***************************************************************************************************
2592:../Dave/Generated/UCPROBE/probe_com.c **** *                                        ProbeCom_GetINT08U()
2593:../Dave/Generated/UCPROBE/probe_com.c **** *                                        ProbeCom_GetINT16U()
2594:../Dave/Generated/UCPROBE/probe_com.c **** *                                        ProbeCom_GetINT32U()
2595:../Dave/Generated/UCPROBE/probe_com.c **** *
2596:../Dave/Generated/UCPROBE/probe_com.c **** * Description : Retrieve data from a buffer and increment buffer pointer.
2597:../Dave/Generated/UCPROBE/probe_com.c **** *
2598:../Dave/Generated/UCPROBE/probe_com.c **** * Argument(s) : pbuf            The pointer to the buffer pointer.
2599:../Dave/Generated/UCPROBE/probe_com.c **** *
2600:../Dave/Generated/UCPROBE/probe_com.c **** * Return(s)   : A 8-, 16-, or 32-bit datum, respectively.
2601:../Dave/Generated/UCPROBE/probe_com.c **** *
2602:../Dave/Generated/UCPROBE/probe_com.c **** * Caller(s)   : various.
2603:../Dave/Generated/UCPROBE/probe_com.c **** *
2604:../Dave/Generated/UCPROBE/probe_com.c **** * Note(s)     : none.
2605:../Dave/Generated/UCPROBE/probe_com.c **** ***************************************************************************************************
2606:../Dave/Generated/UCPROBE/probe_com.c **** */
2607:../Dave/Generated/UCPROBE/probe_com.c **** 
2608:../Dave/Generated/UCPROBE/probe_com.c **** static  CPU_INT08U  ProbeCom_GetINT08U (CPU_INT08U **pbuf)
2609:../Dave/Generated/UCPROBE/probe_com.c **** {
 3449              	 .loc 1 2609 0
 3450              	 .cfi_startproc
 3451 0000 80B5     	 push {r7,lr}
 3452              	.LCFI81:
 3453              	 .cfi_def_cfa_offset 8
 3454              	 .cfi_offset 7,-8
 3455              	 .cfi_offset 14,-4
 3456 0002 82B0     	 sub sp,sp,#8
 3457              	.LCFI82:
 3458              	 .cfi_def_cfa_offset 16
 3459 0004 00AF     	 add r7,sp,#0
 3460              	.LCFI83:
 3461              	 .cfi_def_cfa_register 7
 3462 0006 7860     	 str r0,[r7,#4]
2610:../Dave/Generated/UCPROBE/probe_com.c ****     return (*((*pbuf)++));
 3463              	 .loc 1 2610 0
 3464 0008 7B68     	 ldr r3,[r7,#4]
 3465 000a 1B68     	 ldr r3,[r3]
 3466 000c 591C     	 add r1,r3,#1
 3467 000e 7A68     	 ldr r2,[r7,#4]
 3468 0010 1160     	 str r1,[r2]
 3469 0012 1B78     	 ldrb r3,[r3]
2611:../Dave/Generated/UCPROBE/probe_com.c **** }
 3470              	 .loc 1 2611 0
 3471 0014 181C     	 mov r0,r3
 3472 0016 BD46     	 mov sp,r7
 3473 0018 02B0     	 add sp,sp,#8
 3474              	 
 3475 001a 80BD     	 pop {r7,pc}
 3476              	 .cfi_endproc
 3477              	.LFE27:
 3479              	 .section .text.ProbeCom_GetINT16U,"ax",%progbits
 3480              	 .align 2
 3481              	 .code 16
 3482              	 .thumb_func
 3484              	ProbeCom_GetINT16U:
 3485              	.LFB28:
2612:../Dave/Generated/UCPROBE/probe_com.c **** 
2613:../Dave/Generated/UCPROBE/probe_com.c **** 
2614:../Dave/Generated/UCPROBE/probe_com.c **** static  CPU_INT16U  ProbeCom_GetINT16U (CPU_INT08U **pbuf)
2615:../Dave/Generated/UCPROBE/probe_com.c **** {
 3486              	 .loc 1 2615 0
 3487              	 .cfi_startproc
 3488 0000 80B5     	 push {r7,lr}
 3489              	.LCFI84:
 3490              	 .cfi_def_cfa_offset 8
 3491              	 .cfi_offset 7,-8
 3492              	 .cfi_offset 14,-4
 3493 0002 84B0     	 sub sp,sp,#16
 3494              	.LCFI85:
 3495              	 .cfi_def_cfa_offset 24
 3496 0004 00AF     	 add r7,sp,#0
 3497              	.LCFI86:
 3498              	 .cfi_def_cfa_register 7
 3499 0006 7860     	 str r0,[r7,#4]
2616:../Dave/Generated/UCPROBE/probe_com.c ****     CPU_INT16U  lowbyte;
2617:../Dave/Generated/UCPROBE/probe_com.c ****     CPU_INT16U  highbyte;
2618:../Dave/Generated/UCPROBE/probe_com.c **** 
2619:../Dave/Generated/UCPROBE/probe_com.c **** 
2620:../Dave/Generated/UCPROBE/probe_com.c ****     lowbyte  = ProbeCom_GetINT08U(pbuf);
 3500              	 .loc 1 2620 0
 3501 0008 7B68     	 ldr r3,[r7,#4]
 3502 000a 181C     	 mov r0,r3
 3503 000c FFF7FEFF 	 bl ProbeCom_GetINT08U
 3504 0010 031C     	 mov r3,r0
 3505 0012 1A1C     	 mov r2,r3
 3506 0014 0E23     	 mov r3,#14
 3507 0016 FB18     	 add r3,r7,r3
 3508 0018 1A80     	 strh r2,[r3]
2621:../Dave/Generated/UCPROBE/probe_com.c ****     highbyte = ProbeCom_GetINT08U(pbuf);
 3509              	 .loc 1 2621 0
 3510 001a 7B68     	 ldr r3,[r7,#4]
 3511 001c 181C     	 mov r0,r3
 3512 001e FFF7FEFF 	 bl ProbeCom_GetINT08U
 3513 0022 031C     	 mov r3,r0
 3514 0024 1A1C     	 mov r2,r3
 3515 0026 0C23     	 mov r3,#12
 3516 0028 FB18     	 add r3,r7,r3
 3517 002a 1A80     	 strh r2,[r3]
2622:../Dave/Generated/UCPROBE/probe_com.c ****     return ((CPU_INT16U)((CPU_INT16U)(highbyte << 8) | (CPU_INT16U)lowbyte));
 3518              	 .loc 1 2622 0
 3519 002c 0C23     	 mov r3,#12
 3520 002e FB18     	 add r3,r7,r3
 3521 0030 1B88     	 ldrh r3,[r3]
 3522 0032 1B02     	 lsl r3,r3,#8
 3523 0034 9AB2     	 uxth r2,r3
 3524 0036 0E23     	 mov r3,#14
 3525 0038 FB18     	 add r3,r7,r3
 3526 003a 1B88     	 ldrh r3,[r3]
 3527 003c 1343     	 orr r3,r2
 3528 003e 9BB2     	 uxth r3,r3
2623:../Dave/Generated/UCPROBE/probe_com.c **** }
 3529              	 .loc 1 2623 0
 3530 0040 181C     	 mov r0,r3
 3531 0042 BD46     	 mov sp,r7
 3532 0044 04B0     	 add sp,sp,#16
 3533              	 
 3534 0046 80BD     	 pop {r7,pc}
 3535              	 .cfi_endproc
 3536              	.LFE28:
 3538              	 .section .text.ProbeCom_GetINT32U,"ax",%progbits
 3539              	 .align 2
 3540              	 .code 16
 3541              	 .thumb_func
 3543              	ProbeCom_GetINT32U:
 3544              	.LFB29:
2624:../Dave/Generated/UCPROBE/probe_com.c **** 
2625:../Dave/Generated/UCPROBE/probe_com.c **** static  CPU_INT32U  ProbeCom_GetINT32U (CPU_INT08U **pbuf)
2626:../Dave/Generated/UCPROBE/probe_com.c **** {
 3545              	 .loc 1 2626 0
 3546              	 .cfi_startproc
 3547 0000 80B5     	 push {r7,lr}
 3548              	.LCFI87:
 3549              	 .cfi_def_cfa_offset 8
 3550              	 .cfi_offset 7,-8
 3551              	 .cfi_offset 14,-4
 3552 0002 84B0     	 sub sp,sp,#16
 3553              	.LCFI88:
 3554              	 .cfi_def_cfa_offset 24
 3555 0004 00AF     	 add r7,sp,#0
 3556              	.LCFI89:
 3557              	 .cfi_def_cfa_register 7
 3558 0006 7860     	 str r0,[r7,#4]
2627:../Dave/Generated/UCPROBE/probe_com.c ****     CPU_INT32U  highword;
2628:../Dave/Generated/UCPROBE/probe_com.c ****     CPU_INT32U  lowword;
2629:../Dave/Generated/UCPROBE/probe_com.c **** 
2630:../Dave/Generated/UCPROBE/probe_com.c **** 
2631:../Dave/Generated/UCPROBE/probe_com.c ****     lowword  = ProbeCom_GetINT16U(pbuf);
 3559              	 .loc 1 2631 0
 3560 0008 7B68     	 ldr r3,[r7,#4]
 3561 000a 181C     	 mov r0,r3
 3562 000c FFF7FEFF 	 bl ProbeCom_GetINT16U
 3563 0010 031C     	 mov r3,r0
 3564 0012 FB60     	 str r3,[r7,#12]
2632:../Dave/Generated/UCPROBE/probe_com.c ****     highword = ProbeCom_GetINT16U(pbuf);
 3565              	 .loc 1 2632 0
 3566 0014 7B68     	 ldr r3,[r7,#4]
 3567 0016 181C     	 mov r0,r3
 3568 0018 FFF7FEFF 	 bl ProbeCom_GetINT16U
 3569 001c 031C     	 mov r3,r0
 3570 001e BB60     	 str r3,[r7,#8]
2633:../Dave/Generated/UCPROBE/probe_com.c ****     return ((CPU_INT32U)((highword << 16) | lowword));
 3571              	 .loc 1 2633 0
 3572 0020 BB68     	 ldr r3,[r7,#8]
 3573 0022 1A04     	 lsl r2,r3,#16
 3574 0024 FB68     	 ldr r3,[r7,#12]
 3575 0026 1343     	 orr r3,r2
2634:../Dave/Generated/UCPROBE/probe_com.c **** }
 3576              	 .loc 1 2634 0
 3577 0028 181C     	 mov r0,r3
 3578 002a BD46     	 mov sp,r7
 3579 002c 04B0     	 add sp,sp,#16
 3580              	 
 3581 002e 80BD     	 pop {r7,pc}
 3582              	 .cfi_endproc
 3583              	.LFE29:
 3585              	 .section .text.ProbeCom_StoINT08U,"ax",%progbits
 3586              	 .align 2
 3587              	 .code 16
 3588              	 .thumb_func
 3590              	ProbeCom_StoINT08U:
 3591              	.LFB30:
2635:../Dave/Generated/UCPROBE/probe_com.c **** 
2636:../Dave/Generated/UCPROBE/probe_com.c **** 
2637:../Dave/Generated/UCPROBE/probe_com.c **** /*
2638:../Dave/Generated/UCPROBE/probe_com.c **** ***************************************************************************************************
2639:../Dave/Generated/UCPROBE/probe_com.c **** *                                        ProbeCom_StoINT08U()
2640:../Dave/Generated/UCPROBE/probe_com.c **** *                                        ProbeCom_StoINT16U()
2641:../Dave/Generated/UCPROBE/probe_com.c **** *                                        ProbeCom_StoINT32U()
2642:../Dave/Generated/UCPROBE/probe_com.c **** *
2643:../Dave/Generated/UCPROBE/probe_com.c **** * Description : Store data into a buffer and increment the buffer pointer.
2644:../Dave/Generated/UCPROBE/probe_com.c **** *
2645:../Dave/Generated/UCPROBE/probe_com.c **** * Argument(s) : pbuf            The pointer to the buffer pointer.
2646:../Dave/Generated/UCPROBE/probe_com.c **** *
2647:../Dave/Generated/UCPROBE/probe_com.c **** *               data            A 8-, 16-, or 32-bit datum, respectively.
2648:../Dave/Generated/UCPROBE/probe_com.c **** *
2649:../Dave/Generated/UCPROBE/probe_com.c **** * Return(s)   : none.
2650:../Dave/Generated/UCPROBE/probe_com.c **** *
2651:../Dave/Generated/UCPROBE/probe_com.c **** * Caller(s)   : various.
2652:../Dave/Generated/UCPROBE/probe_com.c **** *
2653:../Dave/Generated/UCPROBE/probe_com.c **** * Note(s)     : none.
2654:../Dave/Generated/UCPROBE/probe_com.c **** ***************************************************************************************************
2655:../Dave/Generated/UCPROBE/probe_com.c **** */
2656:../Dave/Generated/UCPROBE/probe_com.c **** 
2657:../Dave/Generated/UCPROBE/probe_com.c **** static  void  ProbeCom_StoINT08U (CPU_INT08U **pbuf, CPU_INT08U data)
2658:../Dave/Generated/UCPROBE/probe_com.c **** {
 3592              	 .loc 1 2658 0
 3593              	 .cfi_startproc
 3594 0000 80B5     	 push {r7,lr}
 3595              	.LCFI90:
 3596              	 .cfi_def_cfa_offset 8
 3597              	 .cfi_offset 7,-8
 3598              	 .cfi_offset 14,-4
 3599 0002 82B0     	 sub sp,sp,#8
 3600              	.LCFI91:
 3601              	 .cfi_def_cfa_offset 16
 3602 0004 00AF     	 add r7,sp,#0
 3603              	.LCFI92:
 3604              	 .cfi_def_cfa_register 7
 3605 0006 7860     	 str r0,[r7,#4]
 3606 0008 0A1C     	 mov r2,r1
 3607 000a FB1C     	 add r3,r7,#3
 3608 000c 1A70     	 strb r2,[r3]
2659:../Dave/Generated/UCPROBE/probe_com.c ****     *((*pbuf)++) = data;
 3609              	 .loc 1 2659 0
 3610 000e 7B68     	 ldr r3,[r7,#4]
 3611 0010 1B68     	 ldr r3,[r3]
 3612 0012 591C     	 add r1,r3,#1
 3613 0014 7A68     	 ldr r2,[r7,#4]
 3614 0016 1160     	 str r1,[r2]
 3615 0018 FA1C     	 add r2,r7,#3
 3616 001a 1278     	 ldrb r2,[r2]
 3617 001c 1A70     	 strb r2,[r3]
2660:../Dave/Generated/UCPROBE/probe_com.c **** }
 3618              	 .loc 1 2660 0
 3619 001e BD46     	 mov sp,r7
 3620 0020 02B0     	 add sp,sp,#8
 3621              	 
 3622 0022 80BD     	 pop {r7,pc}
 3623              	 .cfi_endproc
 3624              	.LFE30:
 3626              	 .section .text.ProbeCom_StoINT16U,"ax",%progbits
 3627              	 .align 2
 3628              	 .code 16
 3629              	 .thumb_func
 3631              	ProbeCom_StoINT16U:
 3632              	.LFB31:
2661:../Dave/Generated/UCPROBE/probe_com.c **** 
2662:../Dave/Generated/UCPROBE/probe_com.c **** 
2663:../Dave/Generated/UCPROBE/probe_com.c **** static  void  ProbeCom_StoINT16U (CPU_INT08U **pbuf, CPU_INT16U data)
2664:../Dave/Generated/UCPROBE/probe_com.c **** {
 3633              	 .loc 1 2664 0
 3634              	 .cfi_startproc
 3635 0000 80B5     	 push {r7,lr}
 3636              	.LCFI93:
 3637              	 .cfi_def_cfa_offset 8
 3638              	 .cfi_offset 7,-8
 3639              	 .cfi_offset 14,-4
 3640 0002 82B0     	 sub sp,sp,#8
 3641              	.LCFI94:
 3642              	 .cfi_def_cfa_offset 16
 3643 0004 00AF     	 add r7,sp,#0
 3644              	.LCFI95:
 3645              	 .cfi_def_cfa_register 7
 3646 0006 7860     	 str r0,[r7,#4]
 3647 0008 0A1C     	 mov r2,r1
 3648 000a BB1C     	 add r3,r7,#2
 3649 000c 1A80     	 strh r2,[r3]
2665:../Dave/Generated/UCPROBE/probe_com.c ****     ProbeCom_StoINT08U(pbuf, (CPU_INT08U)(data & 0x00FF));
 3650              	 .loc 1 2665 0
 3651 000e BB1C     	 add r3,r7,#2
 3652 0010 1B88     	 ldrh r3,[r3]
 3653 0012 DBB2     	 uxtb r3,r3
 3654 0014 7A68     	 ldr r2,[r7,#4]
 3655 0016 101C     	 mov r0,r2
 3656 0018 191C     	 mov r1,r3
 3657 001a FFF7FEFF 	 bl ProbeCom_StoINT08U
2666:../Dave/Generated/UCPROBE/probe_com.c ****     ProbeCom_StoINT08U(pbuf, (CPU_INT08U)(data >> 8));
 3658              	 .loc 1 2666 0
 3659 001e BB1C     	 add r3,r7,#2
 3660 0020 1B88     	 ldrh r3,[r3]
 3661 0022 1B0A     	 lsr r3,r3,#8
 3662 0024 9BB2     	 uxth r3,r3
 3663 0026 DBB2     	 uxtb r3,r3
 3664 0028 7A68     	 ldr r2,[r7,#4]
 3665 002a 101C     	 mov r0,r2
 3666 002c 191C     	 mov r1,r3
 3667 002e FFF7FEFF 	 bl ProbeCom_StoINT08U
2667:../Dave/Generated/UCPROBE/probe_com.c **** }
 3668              	 .loc 1 2667 0
 3669 0032 BD46     	 mov sp,r7
 3670 0034 02B0     	 add sp,sp,#8
 3671              	 
 3672 0036 80BD     	 pop {r7,pc}
 3673              	 .cfi_endproc
 3674              	.LFE31:
 3676              	 .text
 3677              	.Letext0:
 3678              	 .file 2 "../Dave/Generated/UCPROBE/cpu.h"
 3679              	 .file 3 "../Dave/Generated/UCPROBE/probe_com.h"
DEFINED SYMBOLS
                            *ABS*:00000000 probe_com.c
                            *COM*:00000004 ProbeCom_RxPktCtr
                            *COM*:00000004 ProbeCom_TxPktCtr
                            *COM*:00000004 ProbeCom_TxSymCtr
                            *COM*:00000004 ProbeCom_TxSymByteCtr
                            *COM*:00000004 ProbeCom_ErrPktCtr
                            *COM*:00000004 ProbeCom_StrRxCtr
                            *COM*:00000004 ProbeCom_StrRxOvfErrCtr
                            *COM*:00000004 ProbeCom_StrTxCtr
                            *COM*:00000004 ProbeCom_StrTxOvfErrCtr
                            *COM*:00000004 ProbeCom_RxSymCtr
                            *COM*:00000004 ProbeCom_RxSymByteCtr
    {standard input}:29     .bss.ProbeCom_StrInBufData:00000000 $d
    {standard input}:32     .bss.ProbeCom_StrInBufData:00000000 ProbeCom_StrInBufData
    {standard input}:35     .bss.ProbeCom_StrInBuf:00000000 $d
    {standard input}:38     .bss.ProbeCom_StrInBuf:00000000 ProbeCom_StrInBuf
    {standard input}:41     .bss.ProbeCom_StrOutBufData:00000000 $d
    {standard input}:44     .bss.ProbeCom_StrOutBufData:00000000 ProbeCom_StrOutBufData
    {standard input}:47     .bss.ProbeCom_StrOutBuf:00000000 $d
    {standard input}:50     .bss.ProbeCom_StrOutBuf:00000000 ProbeCom_StrOutBuf
    {standard input}:53     .bss.ProbeCom_TerminalExecHandler:00000000 $d
    {standard input}:56     .bss.ProbeCom_TerminalExecHandler:00000000 ProbeCom_TerminalExecHandler
    {standard input}:61     .bss.ProbeCom_TerminalExecuting:00000000 ProbeCom_TerminalExecuting
    {standard input}:62     .bss.ProbeCom_TerminalExecuting:00000000 $d
    {standard input}:64     .bss.ProbeCom_TerminalInHandler:00000000 $d
    {standard input}:67     .bss.ProbeCom_TerminalInHandler:00000000 ProbeCom_TerminalInHandler
    {standard input}:70     .bss.ProbeCom_TerminalOutBufPtr:00000000 $d
    {standard input}:73     .bss.ProbeCom_TerminalOutBufPtr:00000000 ProbeCom_TerminalOutBufPtr
    {standard input}:76     .bss.ProbeCom_TerminalOutBufIx:00000000 $d
    {standard input}:79     .bss.ProbeCom_TerminalOutBufIx:00000000 ProbeCom_TerminalOutBufIx
    {standard input}:82     .bss.ProbeCom_TerminalOutBufLen:00000000 $d
    {standard input}:85     .bss.ProbeCom_TerminalOutBufLen:00000000 ProbeCom_TerminalOutBufLen
    {standard input}:88     .bss.ProbeCom_EndiannessTest:00000000 $d
    {standard input}:91     .bss.ProbeCom_EndiannessTest:00000000 ProbeCom_EndiannessTest
    {standard input}:94     .text.ProbeCom_Init:00000000 $t
    {standard input}:99     .text.ProbeCom_Init:00000000 ProbeCom_Init
    {standard input}:2933   .text.ProbeCom_BufInit:00000000 ProbeCom_BufInit
    {standard input}:242    .text.ProbeCom_Init:000000cc $d
    {standard input}:269    .text.ProbeCom_StrRd:00000000 $t
    {standard input}:274    .text.ProbeCom_StrRd:00000000 ProbeCom_StrRd
    {standard input}:2980   .text.ProbeCom_BufRd:00000000 ProbeCom_BufRd
    {standard input}:312    .text.ProbeCom_StrRd:00000028 $d
    {standard input}:317    .text.ProbeCom_StrWr:00000000 $t
    {standard input}:322    .text.ProbeCom_StrWr:00000000 ProbeCom_StrWr
    {standard input}:3189   .text.ProbeCom_BufWr:00000000 ProbeCom_BufWr
    {standard input}:372    .text.ProbeCom_StrWr:0000003c $d
    {standard input}:378    .text.ProbeCom_TerminalOut:00000000 $t
    {standard input}:383    .text.ProbeCom_TerminalOut:00000000 ProbeCom_TerminalOut
    {standard input}:491    .text.ProbeCom_TerminalOut:0000008c $d
    {standard input}:499    .text.ProbeCom_TerminalExecComplete:00000000 $t
    {standard input}:504    .text.ProbeCom_TerminalExecComplete:00000000 ProbeCom_TerminalExecComplete
    {standard input}:553    .text.ProbeCom_TerminalExecComplete:00000038 $d
    {standard input}:558    .text.ProbeCom_TerminalExecSet:00000000 $t
    {standard input}:563    .text.ProbeCom_TerminalExecSet:00000000 ProbeCom_TerminalExecSet
    {standard input}:602    .text.ProbeCom_TerminalExecSet:00000028 $d
    {standard input}:607    .text.ProbeCom_TerminalInSet:00000000 $t
    {standard input}:612    .text.ProbeCom_TerminalInSet:00000000 ProbeCom_TerminalInSet
    {standard input}:648    .text.ProbeCom_TerminalInSet:00000024 $d
    {standard input}:653    .text.ProbeCom_ParseRxPkt:00000000 $t
    {standard input}:658    .text.ProbeCom_ParseRxPkt:00000000 ProbeCom_ParseRxPkt
    {standard input}:733    .rodata.ProbeCom_ParseRxPkt:00000000 $d
    {standard input}:1224   .text.ProbeCom_ReqQuery:00000000 ProbeCom_ReqQuery
    {standard input}:1571   .text.ProbeCom_ReqRd:00000000 ProbeCom_ReqRd
    {standard input}:1706   .text.ProbeCom_ReqRdMulti:00000000 ProbeCom_ReqRdMulti
    {standard input}:1909   .text.ProbeCom_ReqWr:00000000 ProbeCom_ReqWr
    {standard input}:2055   .text.ProbeCom_ReqWrMulti:00000000 ProbeCom_ReqWrMulti
    {standard input}:2260   .text.ProbeCom_ReqStrIn:00000000 ProbeCom_ReqStrIn
    {standard input}:2380   .text.ProbeCom_ReqStrOut:00000000 ProbeCom_ReqStrOut
    {standard input}:2505   .text.ProbeCom_ReqTerminalExec:00000000 ProbeCom_ReqTerminalExec
    {standard input}:2626   .text.ProbeCom_ReqTerminalIn:00000000 ProbeCom_ReqTerminalIn
    {standard input}:2742   .text.ProbeCom_ReqTerminalOut:00000000 ProbeCom_ReqTerminalOut
    {standard input}:1154   .text.ProbeCom_ReqErr:00000000 ProbeCom_ReqErr
    {standard input}:883    .text.ProbeCom_ParseRxPkt:00000138 $d
    {standard input}:890    .text.ProbeCom_StrOutAvail:00000000 $t
    {standard input}:894    .text.ProbeCom_StrOutAvail:00000000 ProbeCom_StrOutAvail
    {standard input}:3384   .text.ProbeCom_BufIsEmpty:00000000 ProbeCom_BufIsEmpty
    {standard input}:938    .text.ProbeCom_StrOutAvail:00000030 $d
    {standard input}:943    .text.ProbeCom_TerminalOutAvail:00000000 $t
    {standard input}:947    .text.ProbeCom_TerminalOutAvail:00000000 ProbeCom_TerminalOutAvail
    {standard input}:996    .text.ProbeCom_TerminalOutAvail:00000038 $d
    {standard input}:1001   .text.ProbeCom_TerminalExecDone:00000000 $t
    {standard input}:1005   .text.ProbeCom_TerminalExecDone:00000000 ProbeCom_TerminalExecDone
    {standard input}:1054   .text.ProbeCom_TerminalExecDone:0000003c $d
    {standard input}:1059   .text.ProbeCom_PktModifier:00000000 $t
    {standard input}:1063   .text.ProbeCom_PktModifier:00000000 ProbeCom_PktModifier
    {standard input}:1150   .text.ProbeCom_ReqErr:00000000 $t
    {standard input}:3631   .text.ProbeCom_StoINT16U:00000000 ProbeCom_StoINT16U
    {standard input}:3590   .text.ProbeCom_StoINT08U:00000000 ProbeCom_StoINT08U
    {standard input}:1215   .text.ProbeCom_ReqErr:00000054 $d
    {standard input}:1220   .text.ProbeCom_ReqQuery:00000000 $t
    {standard input}:3484   .text.ProbeCom_GetINT16U:00000000 ProbeCom_GetINT16U
    {standard input}:1555   .text.ProbeCom_ReqQuery:0000021c $d
    {standard input}:1567   .text.ProbeCom_ReqRd:00000000 $t
    {standard input}:3543   .text.ProbeCom_GetINT32U:00000000 ProbeCom_GetINT32U
    {standard input}:1695   .text.ProbeCom_ReqRd:000000c4 $d
    {standard input}:1702   .text.ProbeCom_ReqRdMulti:00000000 $t
    {standard input}:1899   .text.ProbeCom_ReqRdMulti:0000011c $d
    {standard input}:1905   .text.ProbeCom_ReqWr:00000000 $t
    {standard input}:2044   .text.ProbeCom_ReqWr:000000d8 $d
    {standard input}:2051   .text.ProbeCom_ReqWrMulti:00000000 $t
    {standard input}:2249   .text.ProbeCom_ReqWrMulti:0000012c $d
    {standard input}:2256   .text.ProbeCom_ReqStrIn:00000000 $t
    {standard input}:2368   .text.ProbeCom_ReqStrIn:000000a0 $d
    {standard input}:2376   .text.ProbeCom_ReqStrOut:00000000 $t
    {standard input}:2494   .text.ProbeCom_ReqStrOut:000000ac $d
    {standard input}:2501   .text.ProbeCom_ReqTerminalExec:00000000 $t
    {standard input}:2615   .text.ProbeCom_ReqTerminalExec:000000a0 $d
    {standard input}:2622   .text.ProbeCom_ReqTerminalIn:00000000 $t
    {standard input}:2732   .text.ProbeCom_ReqTerminalIn:0000009c $d
    {standard input}:2738   .text.ProbeCom_ReqTerminalOut:00000000 $t
    {standard input}:2921   .text.ProbeCom_ReqTerminalOut:00000114 $d
    {standard input}:2929   .text.ProbeCom_BufInit:00000000 $t
    {standard input}:2976   .text.ProbeCom_BufRd:00000000 $t
    {standard input}:3185   .text.ProbeCom_BufWr:00000000 $t
    {standard input}:3380   .text.ProbeCom_BufIsEmpty:00000000 $t
    {standard input}:3443   .text.ProbeCom_GetINT08U:00000000 $t
    {standard input}:3447   .text.ProbeCom_GetINT08U:00000000 ProbeCom_GetINT08U
    {standard input}:3480   .text.ProbeCom_GetINT16U:00000000 $t
    {standard input}:3539   .text.ProbeCom_GetINT32U:00000000 $t
    {standard input}:3586   .text.ProbeCom_StoINT08U:00000000 $t
    {standard input}:3627   .text.ProbeCom_StoINT16U:00000000 $t
                     .debug_frame:00000010 $d

UNDEFINED SYMBOLS
Mem_Clr
ProbeCom_OS_Init
CPU_SR_Save
CPU_SR_Restore
ProbeCom_OS_TerminalOutWait
Mem_Copy
ProbeCom_OS_TerminalOutSignal
