   1              	 .cpu cortex-m0
   2              	 .fpu softvfp
   3              	 .eabi_attribute 20,1
   4              	 .eabi_attribute 21,1
   5              	 .eabi_attribute 23,3
   6              	 .eabi_attribute 24,1
   7              	 .eabi_attribute 25,1
   8              	 .eabi_attribute 26,1
   9              	 .eabi_attribute 30,6
  10              	 .eabi_attribute 34,0
  11              	 .eabi_attribute 18,4
  12              	 .code 16
  13              	 .file "ucprobe.c"
  14              	 .text
  15              	.Ltext0:
  16              	 .cfi_sections .debug_frame
  17              	 .section .text.UCPROBE_GetAppVersion,"ax",%progbits
  18              	 .align 2
  19              	 .global UCPROBE_GetAppVersion
  20              	 .code 16
  21              	 .thumb_func
  23              	UCPROBE_GetAppVersion:
  24              	.LFB0:
  25              	 .file 1 "../Dave/Generated/UCPROBE/ucprobe.c"
   1:../Dave/Generated/UCPROBE/ucprobe.c **** /**
   2:../Dave/Generated/UCPROBE/ucprobe.c ****  * @file ucprobe.c
   3:../Dave/Generated/UCPROBE/ucprobe.c ****  * @date 2017-06-26
   4:../Dave/Generated/UCPROBE/ucprobe.c ****  *
   5:../Dave/Generated/UCPROBE/ucprobe.c ****  * NOTE:
   6:../Dave/Generated/UCPROBE/ucprobe.c ****  * This file is generated by DAVE-4. Any manual modification done to this file will be lost when th
   7:../Dave/Generated/UCPROBE/ucprobe.c ****  *
   8:../Dave/Generated/UCPROBE/ucprobe.c ****  * @cond
   9:../Dave/Generated/UCPROBE/ucprobe.c ****  **************************************************************************************************
  10:../Dave/Generated/UCPROBE/ucprobe.c ****  * UCPROBE v4.0.4 - Configures UCPROBE target code
  11:../Dave/Generated/UCPROBE/ucprobe.c ****  * Copyright (c) 2015-2017, Infineon Technologies AG
  12:../Dave/Generated/UCPROBE/ucprobe.c ****  * All rights reserved.
  13:../Dave/Generated/UCPROBE/ucprobe.c ****  *
  14:../Dave/Generated/UCPROBE/ucprobe.c ****  * Redistribution and use in source and binary forms, with or without modification,are permitted pr
  15:../Dave/Generated/UCPROBE/ucprobe.c ****  * following conditions are met:
  16:../Dave/Generated/UCPROBE/ucprobe.c ****  *
  17:../Dave/Generated/UCPROBE/ucprobe.c ****  *   Redistributions of source code must retain the above copyright notice, this list of conditions
  18:../Dave/Generated/UCPROBE/ucprobe.c ****  *   disclaimer.
  19:../Dave/Generated/UCPROBE/ucprobe.c ****  *
  20:../Dave/Generated/UCPROBE/ucprobe.c ****  *   Redistributions in binary form must reproduce the above copyright notice, this list of conditi
  21:../Dave/Generated/UCPROBE/ucprobe.c ****  *   following disclaimer in the documentation and/or other materials provided with the distributio
  22:../Dave/Generated/UCPROBE/ucprobe.c ****  *
  23:../Dave/Generated/UCPROBE/ucprobe.c ****  *   Neither the name of the copyright holders nor the names of its contributors may be used to end
  24:../Dave/Generated/UCPROBE/ucprobe.c ****  *   products derived from this software without specific prior written permission.
  25:../Dave/Generated/UCPROBE/ucprobe.c ****  *
  26:../Dave/Generated/UCPROBE/ucprobe.c ****  * THIS SOFTWARE IS PROVIDED BY THE COPYRIGHT HOLDERS AND CONTRIBUTORS "AS IS" AND ANY EXPRESS OR I
  27:../Dave/Generated/UCPROBE/ucprobe.c ****  * INCLUDING, BUT NOT LIMITED TO, THE IMPLIED WARRANTIES OF MERCHANTABILITY AND FITNESS FOR A PARTI
  28:../Dave/Generated/UCPROBE/ucprobe.c ****  * DISCLAIMED. IN NO EVENT SHALL THE COPYRIGHT HOLDER OR CONTRIBUTORS BE LIABLE  FOR ANY DIRECT, IN
  29:../Dave/Generated/UCPROBE/ucprobe.c ****  * SPECIAL, EXEMPLARY, OR CONSEQUENTIAL DAMAGES (INCLUDING, BUT NOT LIMITED TO, PROCUREMENT OF SUBS
  30:../Dave/Generated/UCPROBE/ucprobe.c ****  * SERVICES; LOSS OF USE, DATA, OR PROFITS; OR BUSINESS INTERRUPTION) HOWEVER CAUSED AND ON ANY THE
  31:../Dave/Generated/UCPROBE/ucprobe.c ****  * WHETHER IN CONTRACT, STRICT LIABILITY,OR TORT (INCLUDING NEGLIGENCE OR OTHERWISE) ARISING IN ANY
  32:../Dave/Generated/UCPROBE/ucprobe.c ****  * USE OF THIS SOFTWARE, EVEN IF ADVISED OF THE POSSIBILITY OF SUCH DAMAGE.
  33:../Dave/Generated/UCPROBE/ucprobe.c ****  *
  34:../Dave/Generated/UCPROBE/ucprobe.c ****  * To improve the quality of the software, users are encouraged to share modifications, enhancement
  35:../Dave/Generated/UCPROBE/ucprobe.c ****  * with Infineon Technologies AG (dave@infineon.com).
  36:../Dave/Generated/UCPROBE/ucprobe.c ****  **************************************************************************************************
  37:../Dave/Generated/UCPROBE/ucprobe.c ****  *
  38:../Dave/Generated/UCPROBE/ucprobe.c ****  * Change History
  39:../Dave/Generated/UCPROBE/ucprobe.c ****  * --------------
  40:../Dave/Generated/UCPROBE/ucprobe.c ****  *
  41:../Dave/Generated/UCPROBE/ucprobe.c ****  * 2016-07-30:
  42:../Dave/Generated/UCPROBE/ucprobe.c ****  *     - Initial version<br>
  43:../Dave/Generated/UCPROBE/ucprobe.c ****  *
  44:../Dave/Generated/UCPROBE/ucprobe.c ****  * @endcond
  45:../Dave/Generated/UCPROBE/ucprobe.c ****  *
  46:../Dave/Generated/UCPROBE/ucprobe.c ****  */
  47:../Dave/Generated/UCPROBE/ucprobe.c **** 
  48:../Dave/Generated/UCPROBE/ucprobe.c **** 
  49:../Dave/Generated/UCPROBE/ucprobe.c **** /**************************************************************************************************
  50:../Dave/Generated/UCPROBE/ucprobe.c ****  * HEADER FILES
  51:../Dave/Generated/UCPROBE/ucprobe.c ****  **************************************************************************************************
  52:../Dave/Generated/UCPROBE/ucprobe.c **** #include "ucprobe.h"
  53:../Dave/Generated/UCPROBE/ucprobe.c **** #include "probe_rs232.h"
  54:../Dave/Generated/UCPROBE/ucprobe.c **** #include "probe_scope.h"
  55:../Dave/Generated/UCPROBE/ucprobe.c **** #include "probe_scope_cfg.h"
  56:../Dave/Generated/UCPROBE/ucprobe.c **** 
  57:../Dave/Generated/UCPROBE/ucprobe.c **** /**************************************************************************************************
  58:../Dave/Generated/UCPROBE/ucprobe.c ****  * PRIVATE FUNCTION PROTOTYPES
  59:../Dave/Generated/UCPROBE/ucprobe.c ****  **************************************************************************************************
  60:../Dave/Generated/UCPROBE/ucprobe.c **** 
  61:../Dave/Generated/UCPROBE/ucprobe.c **** /**************************************************************************************************
  62:../Dave/Generated/UCPROBE/ucprobe.c ****  * API IMPLEMENTATION
  63:../Dave/Generated/UCPROBE/ucprobe.c ****  **************************************************************************************************
  64:../Dave/Generated/UCPROBE/ucprobe.c **** 
  65:../Dave/Generated/UCPROBE/ucprobe.c **** /* API to retrieve App version info */
  66:../Dave/Generated/UCPROBE/ucprobe.c **** DAVE_APP_VERSION_t UCPROBE_GetAppVersion(void)
  67:../Dave/Generated/UCPROBE/ucprobe.c **** {
  26              	 .loc 1 67 0
  27              	 .cfi_startproc
  28 0000 80B5     	 push {r7,lr}
  29              	.LCFI0:
  30              	 .cfi_def_cfa_offset 8
  31              	 .cfi_offset 7,-8
  32              	 .cfi_offset 14,-4
  33 0002 82B0     	 sub sp,sp,#8
  34              	.LCFI1:
  35              	 .cfi_def_cfa_offset 16
  36 0004 00AF     	 add r7,sp,#0
  37              	.LCFI2:
  38              	 .cfi_def_cfa_register 7
  68:../Dave/Generated/UCPROBE/ucprobe.c ****   DAVE_APP_VERSION_t version;
  69:../Dave/Generated/UCPROBE/ucprobe.c **** 
  70:../Dave/Generated/UCPROBE/ucprobe.c ****   version.major = UCPROBE_MAJOR_VERSION;
  39              	 .loc 1 70 0
  40 0006 3B1C     	 mov r3,r7
  41 0008 0422     	 mov r2,#4
  42 000a 1A70     	 strb r2,[r3]
  71:../Dave/Generated/UCPROBE/ucprobe.c ****   version.minor = UCPROBE_MINOR_VERSION;
  43              	 .loc 1 71 0
  44 000c 3B1C     	 mov r3,r7
  45 000e 0022     	 mov r2,#0
  46 0010 5A70     	 strb r2,[r3,#1]
  72:../Dave/Generated/UCPROBE/ucprobe.c ****   version.patch = UCPROBE_PATCH_VERSION;
  47              	 .loc 1 72 0
  48 0012 3B1C     	 mov r3,r7
  49 0014 0622     	 mov r2,#6
  50 0016 9A70     	 strb r2,[r3,#2]
  73:../Dave/Generated/UCPROBE/ucprobe.c **** 
  74:../Dave/Generated/UCPROBE/ucprobe.c ****   return (version);
  51              	 .loc 1 74 0
  52 0018 3B1D     	 add r3,r7,#4
  53 001a 3A1C     	 mov r2,r7
  54 001c 1188     	 ldrh r1,[r2]
  55 001e 1980     	 strh r1,[r3]
  56 0020 9278     	 ldrb r2,[r2,#2]
  57 0022 9A70     	 strb r2,[r3,#2]
  58 0024 3A1D     	 add r2,r7,#4
  59 0026 0023     	 mov r3,#0
  60 0028 1178     	 ldrb r1,[r2]
  61 002a FF20     	 mov r0,#255
  62 002c 0140     	 and r1,r0
  63 002e FF20     	 mov r0,#255
  64 0030 8343     	 bic r3,r0
  65 0032 0B43     	 orr r3,r1
  66 0034 5178     	 ldrb r1,[r2,#1]
  67 0036 FF20     	 mov r0,#255
  68 0038 0140     	 and r1,r0
  69 003a 0902     	 lsl r1,r1,#8
  70 003c 0648     	 ldr r0,.L3
  71 003e 0340     	 and r3,r0
  72 0040 0B43     	 orr r3,r1
  73 0042 9278     	 ldrb r2,[r2,#2]
  74 0044 FF21     	 mov r1,#255
  75 0046 0A40     	 and r2,r1
  76 0048 1204     	 lsl r2,r2,#16
  77 004a 0449     	 ldr r1,.L3+4
  78 004c 0B40     	 and r3,r1
  79 004e 1343     	 orr r3,r2
  75:../Dave/Generated/UCPROBE/ucprobe.c **** }
  80              	 .loc 1 75 0
  81 0050 181C     	 mov r0,r3
  82 0052 BD46     	 mov sp,r7
  83 0054 02B0     	 add sp,sp,#8
  84              	 
  85 0056 80BD     	 pop {r7,pc}
  86              	.L4:
  87              	 .align 2
  88              	.L3:
  89 0058 FF00FFFF 	 .word -65281
  90 005c FFFF00FF 	 .word -16711681
  91              	 .cfi_endproc
  92              	.LFE0:
  94              	 .section .text.UCPROBE_Init,"ax",%progbits
  95              	 .align 2
  96              	 .global UCPROBE_Init
  97              	 .code 16
  98              	 .thumb_func
 100              	UCPROBE_Init:
 101              	.LFB1:
  76:../Dave/Generated/UCPROBE/ucprobe.c **** 
  77:../Dave/Generated/UCPROBE/ucprobe.c **** /* API to initialize UC/Probe support */
  78:../Dave/Generated/UCPROBE/ucprobe.c **** void UCPROBE_Init(void)
  79:../Dave/Generated/UCPROBE/ucprobe.c **** {
 102              	 .loc 1 79 0
 103              	 .cfi_startproc
 104 0000 80B5     	 push {r7,lr}
 105              	.LCFI3:
 106              	 .cfi_def_cfa_offset 8
 107              	 .cfi_offset 7,-8
 108              	 .cfi_offset 14,-4
 109 0002 00AF     	 add r7,sp,#0
 110              	.LCFI4:
 111              	 .cfi_def_cfa_register 7
  80:../Dave/Generated/UCPROBE/ucprobe.c **** #if UCPROBE_PROBESCOPE_EN
  81:../Dave/Generated/UCPROBE/ucprobe.c ****   ProbeScope_Init(PROBE_SCOPE_SAMPLING_CLK_HZ_DFLT);
 112              	 .loc 1 81 0
 113 0004 FA23     	 mov r3,#250
 114 0006 9B00     	 lsl r3,r3,#2
 115 0008 181C     	 mov r0,r3
 116 000a FFF7FEFF 	 bl ProbeScope_Init
  82:../Dave/Generated/UCPROBE/ucprobe.c **** #endif
  83:../Dave/Generated/UCPROBE/ucprobe.c **** 
  84:../Dave/Generated/UCPROBE/ucprobe.c **** #if (PROBE_COM_CFG_RS232_EN == DEF_ENABLED)
  85:../Dave/Generated/UCPROBE/ucprobe.c ****   ProbeCom_Init(); /* Initialize the Generic module */
  86:../Dave/Generated/UCPROBE/ucprobe.c ****   ProbeRS232_Init(UCPROBE_UART_BAUD_RATE); /* Initialize the RS-232 interface */
  87:../Dave/Generated/UCPROBE/ucprobe.c ****   ProbeRS232_RxIntEn(); /* Initialize the RS-232 Rx interrupts */
  88:../Dave/Generated/UCPROBE/ucprobe.c **** #endif
  89:../Dave/Generated/UCPROBE/ucprobe.c **** }
 117              	 .loc 1 89 0
 118 000e BD46     	 mov sp,r7
 119              	 
 120 0010 80BD     	 pop {r7,pc}
 121              	 .cfi_endproc
 122              	.LFE1:
 124 0012 C046     	 .text
 125              	.Letext0:
 126              	 .file 2 "c:\\users\\jutta.schuerba\\desktop\\dave-ide-4.4.2-64bit\\eclipse\\arm-gcc-49\\arm-none-eabi\\include\\machine\\_default_types.h"
 127              	 .file 3 "c:\\users\\jutta.schuerba\\desktop\\dave-ide-4.4.2-64bit\\eclipse\\arm-gcc-49\\arm-none-eabi\\include\\stdint.h"
 128              	 .file 4 "C:/Workspaces/DAVE-4.4.2-64Bit/WIRELESS_CHARGER_TRANSMTTER_delivered/Dave/Generated/DAVE_common.h"